
========================================================================

** ELF Header Information

    File Name: .\obj\ADC.axf

    Machine class: ELFCLASS32 (32-bit)
    Data encoding: ELFDATA2LSB (Little endian)
    Header version: EV_CURRENT (Current version)
    Operating System ABI: none
    ABI Version: 0
    File Type: ET_EXEC (Executable) (2)
    Machine: EM_ARM (ARM)

    Image Entry point: 0x000000e9
    Flags: EF_ARM_HASENTRY (0x05000002)

    ARM ELF revision: 5 (ABI version 2)

    Built with
    Component: ARM Compiler 5.05 (build 41) Tool: armasm [4d0eb9]
    Component: ARM Compiler 5.05 (build 41) Tool: armlink [4d0eb9]

    Header size: 52 bytes (0x34)
    Program header entry size: 32 bytes (0x20)
    Section header entry size: 40 bytes (0x28)

    Program header entries: 1
    Section header entries: 16

    Program header offset: 331096 (0x00050d58)
    Section header offset: 331128 (0x00050d78)

    Section header string table index: 15

========================================================================

** Program header #0 (PT_LOAD) [PF_X + PF_W + PF_R + PF_ARM_ENTRY]
    Size : 32464 bytes (30724 bytes in file)
    Virtual address: 0x00000000 (Alignment 8)


========================================================================

** Section #1 'ER_RO' (SHT_PROGBITS) [SHF_ALLOC + SHF_EXECINSTR]
    Size   : 30424 bytes (alignment 8)
    Address: 0x00000000

    $d.realdata
    RESET
    __Vectors
        0x00000000:    200007f8    ...     DCD    536872952
        0x00000004:    000000e9    ....    DCD    233
        0x00000008:    00000105    ....    DCD    261
        0x0000000c:    00000107    ....    DCD    263
        0x00000010:    00000000    ....    DCD    0
        0x00000014:    00000000    ....    DCD    0
        0x00000018:    00000000    ....    DCD    0
        0x0000001c:    00000000    ....    DCD    0
        0x00000020:    00000000    ....    DCD    0
        0x00000024:    00000000    ....    DCD    0
        0x00000028:    00000000    ....    DCD    0
        0x0000002c:    00000109    ....    DCD    265
        0x00000030:    00000000    ....    DCD    0
        0x00000034:    00000000    ....    DCD    0
        0x00000038:    0000010b    ....    DCD    267
        0x0000003c:    0000010d    ....    DCD    269
        0x00000040:    0000010f    ....    DCD    271
        0x00000044:    0000010f    ....    DCD    271
        0x00000048:    0000010f    ....    DCD    271
        0x0000004c:    0000010f    ....    DCD    271
        0x00000050:    0000010f    ....    DCD    271
        0x00000054:    0000010f    ....    DCD    271
        0x00000058:    0000010f    ....    DCD    271
        0x0000005c:    0000010f    ....    DCD    271
        0x00000060:    0000010f    ....    DCD    271
        0x00000064:    000020a1    . ..    DCD    8353
        0x00000068:    0000010f    ....    DCD    271
        0x0000006c:    0000010f    ....    DCD    271
        0x00000070:    0000010f    ....    DCD    271
        0x00000074:    0000010f    ....    DCD    271
        0x00000078:    0000010f    ....    DCD    271
        0x0000007c:    0000010f    ....    DCD    271
        0x00000080:    0000010f    ....    DCD    271
        0x00000084:    0000010f    ....    DCD    271
        0x00000088:    0000010f    ....    DCD    271
        0x0000008c:    0000010f    ....    DCD    271
        0x00000090:    0000010f    ....    DCD    271
        0x00000094:    0000010f    ....    DCD    271
        0x00000098:    0000010f    ....    DCD    271
        0x0000009c:    0000010f    ....    DCD    271
        0x000000a0:    0000010f    ....    DCD    271
        0x000000a4:    0000010f    ....    DCD    271
        0x000000a8:    00001a15    ....    DCD    6677
        0x000000ac:    0000010f    ....    DCD    271
        0x000000b0:    0000010f    ....    DCD    271
        0x000000b4:    00000c49    I...    DCD    3145
        0x000000b8:    0000010f    ....    DCD    271
        0x000000bc:    0000010f    ....    DCD    271
    $t
    .ARM.Collect$$$$00000000
    .ARM.Collect$$$$00000001
    __main
    _main_stk
        0x000000c0:    4803        .H      LDR      r0,__lit__00000000 ; [0xd0] = 0x200007f8
        0x000000c2:    4685        .F      MOV      sp,r0
    .ARM.Collect$$$$00000004
    _main_scatterload
        0x000000c4:    f000fd5e    ..^.    BL       __scatterload ; 0xb84
    .ARM.Collect$$$$00000008
    .ARM.Collect$$$$0000000A
    .ARM.Collect$$$$0000000B
    __main_after_scatterload
    _main_clock
    _main_cpp_init
    _main_init
        0x000000c8:    4800        .H      LDR      r0,[pc,#0] ; [0xcc] = 0x3759
        0x000000ca:    4700        .G      BX       r0
    $d
        0x000000cc:    00003759    Y7..    DCD    14169
    .ARM.Collect$$$$00002712
    __lit__00000000
    .ARM.Collect$$$$0000000D
    .ARM.Collect$$$$0000000F
    __rt_final_cpp
    __rt_final_exit
        0x000000d0:    200007f8    ...     DCD    536872952
    $t
    .emb_text
    SH_DoCommand
        0x000000d4:    beab        ..      BKPT     #0xab
        0x000000d6:    e001        ..      B        0xdc ; SH_DoCommand + 8
        0x000000d8:    2000        .       MOVS     r0,#0
        0x000000da:    4770        pG      BX       lr
        0x000000dc:    2a00        .*      CMP      r2,#0
        0x000000de:    d000        ..      BEQ      0xe2 ; SH_DoCommand + 14
        0x000000e0:    6010        .`      STR      r0,[r2,#0]
        0x000000e2:    2001        .       MOVS     r0,#1
        0x000000e4:    4770        pG      BX       lr
        0x000000e6:    0000        ..      MOVS     r0,r0
    .text
    Reset_Handler
        0x000000e8:    4809        .H      LDR      r0,[pc,#36] ; [0x110] = 0x50000100
        0x000000ea:    490a        .I      LDR      r1,[pc,#40] ; [0x114] = 0x59
        0x000000ec:    6001        .`      STR      r1,[r0,#0]
        0x000000ee:    490a        .I      LDR      r1,[pc,#40] ; [0x118] = 0x16
        0x000000f0:    6001        .`      STR      r1,[r0,#0]
        0x000000f2:    490a        .I      LDR      r1,[pc,#40] ; [0x11c] = 0x88
        0x000000f4:    6001        .`      STR      r1,[r0,#0]
        0x000000f6:    4a0a        .J      LDR      r2,[pc,#40] ; [0x120] = 0x50000024
        0x000000f8:    490a        .I      LDR      r1,[pc,#40] ; [0x124] = 0x5aa5
        0x000000fa:    6011        .`      STR      r1,[r2,#0]
        0x000000fc:    2100        .!      MOVS     r1,#0
        0x000000fe:    6001        .`      STR      r1,[r0,#0]
        0x00000100:    4809        .H      LDR      r0,[pc,#36] ; [0x128] = 0xc1
        0x00000102:    4700        .G      BX       r0
    NMI_Handler
        0x00000104:    e7fe        ..      B        NMI_Handler ; 0x104
    HardFault_Handler
        0x00000106:    e7fe        ..      B        HardFault_Handler ; 0x106
    SVC_Handler
        0x00000108:    e7fe        ..      B        SVC_Handler ; 0x108
    PendSV_Handler
        0x0000010a:    e7fe        ..      B        PendSV_Handler ; 0x10a
    SysTick_Handler
        0x0000010c:    e7fe        ..      B        SysTick_Handler ; 0x10c
    Default_Handler
    ACMP_IRQHandler
    ALC_IRQHandler
    BOD_IRQHandler
    CAPS_IRQHandler
    EINT0_IRQHandler
    EINT1_IRQHandler
    GPAB_IRQHandler
    I2C0_IRQHandler
    I2S_IRQHandler
    PWM0_IRQHandler
    RTC_IRQHandler
    SPI0_IRQHandler
    TALARM_IRQHandler
    TMR0_IRQHandler
    UART0_IRQHandler
    WDT_IRQHandler
        0x0000010e:    e7fe        ..      B        Default_Handler ; 0x10e
    $d
        0x00000110:    50000100    ...P    DCD    1342177536
        0x00000114:    00000059    Y...    DCD    89
        0x00000118:    00000016    ....    DCD    22
        0x0000011c:    00000088    ....    DCD    136
        0x00000120:    50000024    $..P    DCD    1342177316
        0x00000124:    00005aa5    .Z..    DCD    23205
        0x00000128:    000000c1    ....    DCD    193
    $t
    .text
    __aeabi_uidiv
    __aeabi_uidivmod
        0x0000012c:    b530        0.      PUSH     {r4,r5,lr}
        0x0000012e:    460b        .F      MOV      r3,r1
        0x00000130:    4601        .F      MOV      r1,r0
        0x00000132:    2000        .       MOVS     r0,#0
        0x00000134:    2220         "      MOVS     r2,#0x20
        0x00000136:    2401        .$      MOVS     r4,#1
        0x00000138:    e009        ..      B        0x14e ; __aeabi_uidiv + 34
        0x0000013a:    460d        .F      MOV      r5,r1
        0x0000013c:    40d5        .@      LSRS     r5,r5,r2
        0x0000013e:    429d        .B      CMP      r5,r3
        0x00000140:    d305        ..      BCC      0x14e ; __aeabi_uidiv + 34
        0x00000142:    461d        .F      MOV      r5,r3
        0x00000144:    4095        .@      LSLS     r5,r5,r2
        0x00000146:    1b49        I.      SUBS     r1,r1,r5
        0x00000148:    4625        %F      MOV      r5,r4
        0x0000014a:    4095        .@      LSLS     r5,r5,r2
        0x0000014c:    1940        @.      ADDS     r0,r0,r5
        0x0000014e:    4615        .F      MOV      r5,r2
        0x00000150:    1e52        R.      SUBS     r2,r2,#1
        0x00000152:    2d00        .-      CMP      r5,#0
        0x00000154:    dcf1        ..      BGT      0x13a ; __aeabi_uidiv + 14
        0x00000156:    bd30        0.      POP      {r4,r5,pc}
    .text
    __aeabi_idiv
    __aeabi_idivmod
        0x00000158:    b570        p.      PUSH     {r4-r6,lr}
        0x0000015a:    2400        .$      MOVS     r4,#0
        0x0000015c:    4625        %F      MOV      r5,r4
        0x0000015e:    2800        .(      CMP      r0,#0
        0x00000160:    da01        ..      BGE      0x166 ; __aeabi_idiv + 14
        0x00000162:    2401        .$      MOVS     r4,#1
        0x00000164:    4240        @B      RSBS     r0,r0,#0
        0x00000166:    2900        .)      CMP      r1,#0
        0x00000168:    da01        ..      BGE      0x16e ; __aeabi_idiv + 22
        0x0000016a:    2501        .%      MOVS     r5,#1
        0x0000016c:    4249        IB      RSBS     r1,r1,#0
        0x0000016e:    f7ffffdd    ....    BL       __aeabi_uidiv ; 0x12c
        0x00000172:    42ac        .B      CMP      r4,r5
        0x00000174:    d000        ..      BEQ      0x178 ; __aeabi_idiv + 32
        0x00000176:    4240        @B      RSBS     r0,r0,#0
        0x00000178:    2c00        .,      CMP      r4,#0
        0x0000017a:    d000        ..      BEQ      0x17e ; __aeabi_idiv + 38
        0x0000017c:    4249        IB      RSBS     r1,r1,#0
        0x0000017e:    bd70        p.      POP      {r4-r6,pc}
    .text
    __aeabi_memcpy
    __aeabi_memcpy4
    __aeabi_memcpy8
        0x00000180:    4603        .F      MOV      r3,r0
        0x00000182:    430b        .C      ORRS     r3,r3,r1
        0x00000184:    079b        ..      LSLS     r3,r3,#30
        0x00000186:    d003        ..      BEQ      0x190 ; __aeabi_memcpy + 16
        0x00000188:    e009        ..      B        0x19e ; __aeabi_memcpy + 30
        0x0000018a:    c908        ..      LDM      r1!,{r3}
        0x0000018c:    1f12        ..      SUBS     r2,r2,#4
        0x0000018e:    c008        ..      STM      r0!,{r3}
        0x00000190:    2a04        .*      CMP      r2,#4
        0x00000192:    d2fa        ..      BCS      0x18a ; __aeabi_memcpy + 10
        0x00000194:    e003        ..      B        0x19e ; __aeabi_memcpy + 30
        0x00000196:    780b        .x      LDRB     r3,[r1,#0]
        0x00000198:    7003        .p      STRB     r3,[r0,#0]
        0x0000019a:    1c40        @.      ADDS     r0,r0,#1
        0x0000019c:    1c49        I.      ADDS     r1,r1,#1
        0x0000019e:    1e52        R.      SUBS     r2,r2,#1
        0x000001a0:    d2f9        ..      BCS      0x196 ; __aeabi_memcpy + 22
        0x000001a2:    4770        pG      BX       lr
    .text
    __aeabi_memset
    __aeabi_memset4
    __aeabi_memset8
        0x000001a4:    b2d2        ..      UXTB     r2,r2
        0x000001a6:    e001        ..      B        0x1ac ; __aeabi_memset + 8
        0x000001a8:    7002        .p      STRB     r2,[r0,#0]
        0x000001aa:    1c40        @.      ADDS     r0,r0,#1
        0x000001ac:    1e49        I.      SUBS     r1,r1,#1
        0x000001ae:    d2fb        ..      BCS      0x1a8 ; __aeabi_memset + 4
        0x000001b0:    4770        pG      BX       lr
    __aeabi_memclr
    __aeabi_memclr4
    __aeabi_memclr8
        0x000001b2:    2200        ."      MOVS     r2,#0
        0x000001b4:    e7f6        ..      B        __aeabi_memset ; 0x1a4
    _memset$wrapper
        0x000001b6:    b510        ..      PUSH     {r4,lr}
        0x000001b8:    4613        .F      MOV      r3,r2
        0x000001ba:    460a        .F      MOV      r2,r1
        0x000001bc:    4604        .F      MOV      r4,r0
        0x000001be:    4619        .F      MOV      r1,r3
        0x000001c0:    f7fffff0    ....    BL       __aeabi_memset ; 0x1a4
        0x000001c4:    4620         F      MOV      r0,r4
        0x000001c6:    bd10        ..      POP      {r4,pc}
    .text
    __aeabi_fadd
        0x000001c8:    b5f8        ..      PUSH     {r3-r7,lr}
        0x000001ca:    4602        .F      MOV      r2,r0
        0x000001cc:    404a        J@      EORS     r2,r2,r1
        0x000001ce:    0fd4        ..      LSRS     r4,r2,#31
        0x000001d0:    0042        B.      LSLS     r2,r0,#1
        0x000001d2:    004b        K.      LSLS     r3,r1,#1
        0x000001d4:    0852        R.      LSRS     r2,r2,#1
        0x000001d6:    085b        [.      LSRS     r3,r3,#1
        0x000001d8:    429a        .B      CMP      r2,r3
        0x000001da:    d202        ..      BCS      0x1e2 ; __aeabi_fadd + 26
        0x000001dc:    4602        .F      MOV      r2,r0
        0x000001de:    4608        .F      MOV      r0,r1
        0x000001e0:    4611        .F      MOV      r1,r2
        0x000001e2:    004a        J.      LSLS     r2,r1,#1
        0x000001e4:    d023        #.      BEQ      0x22e ; __aeabi_fadd + 102
        0x000001e6:    0dc3        ..      LSRS     r3,r0,#23
        0x000001e8:    004a        J.      LSLS     r2,r1,#1
        0x000001ea:    b2dd        ..      UXTB     r5,r3
        0x000001ec:    0e12        ..      LSRS     r2,r2,#24
        0x000001ee:    1aad        ..      SUBS     r5,r5,r2
        0x000001f0:    2d20         -      CMP      r5,#0x20
        0x000001f2:    da35        5.      BGE      0x260 ; __aeabi_fadd + 152
        0x000001f4:    0249        I.      LSLS     r1,r1,#9
        0x000001f6:    2601        .&      MOVS     r6,#1
        0x000001f8:    0a49        I.      LSRS     r1,r1,#9
        0x000001fa:    05f6        ..      LSLS     r6,r6,#23
        0x000001fc:    198a        ..      ADDS     r2,r1,r6
        0x000001fe:    2c00        .,      CMP      r4,#0
        0x00000200:    d000        ..      BEQ      0x204 ; __aeabi_fadd + 60
        0x00000202:    4252        RB      RSBS     r2,r2,#0
        0x00000204:    2120         !      MOVS     r1,#0x20
        0x00000206:    1b4f        O.      SUBS     r7,r1,r5
        0x00000208:    4611        .F      MOV      r1,r2
        0x0000020a:    40b9        .@      LSLS     r1,r1,r7
        0x0000020c:    412a        *A      ASRS     r2,r2,r5
        0x0000020e:    1810        ..      ADDS     r0,r2,r0
        0x00000210:    0dc2        ..      LSRS     r2,r0,#23
        0x00000212:    429a        .B      CMP      r2,r3
        0x00000214:    d021        !.      BEQ      0x25a ; __aeabi_fadd + 146
        0x00000216:    2c00        .,      CMP      r4,#0
        0x00000218:    d017        ..      BEQ      0x24a ; __aeabi_fadd + 130
        0x0000021a:    2d01        .-      CMP      r5,#1
        0x0000021c:    dc08        ..      BGT      0x230 ; __aeabi_fadd + 104
        0x0000021e:    05da        ..      LSLS     r2,r3,#23
        0x00000220:    1a80        ..      SUBS     r0,r0,r2
        0x00000222:    0fd2        ..      LSRS     r2,r2,#31
        0x00000224:    1980        ..      ADDS     r0,r0,r6
        0x00000226:    07d2        ..      LSLS     r2,r2,#31
        0x00000228:    b2db        ..      UXTB     r3,r3
        0x0000022a:    f000fad7    ....    BL       _float_epilogue ; 0x7dc
        0x0000022e:    bdf8        ..      POP      {r3-r7,pc}
        0x00000230:    05da        ..      LSLS     r2,r3,#23
        0x00000232:    1a80        ..      SUBS     r0,r0,r2
        0x00000234:    2301        .#      MOVS     r3,#1
        0x00000236:    0040        @.      LSLS     r0,r0,#1
        0x00000238:    061b        ..      LSLS     r3,r3,#24
        0x0000023a:    18c0        ..      ADDS     r0,r0,r3
        0x0000023c:    1880        ..      ADDS     r0,r0,r2
        0x0000023e:    425a        ZB      RSBS     r2,r3,#0
        0x00000240:    1880        ..      ADDS     r0,r0,r2
        0x00000242:    0fca        ..      LSRS     r2,r1,#31
        0x00000244:    4310        .C      ORRS     r0,r0,r2
        0x00000246:    0049        I.      LSLS     r1,r1,#1
        0x00000248:    e007        ..      B        0x25a ; __aeabi_fadd + 146
        0x0000024a:    0849        I.      LSRS     r1,r1,#1
        0x0000024c:    07c2        ..      LSLS     r2,r0,#31
        0x0000024e:    4311        .C      ORRS     r1,r1,r2
        0x00000250:    05da        ..      LSLS     r2,r3,#23
        0x00000252:    1a80        ..      SUBS     r0,r0,r2
        0x00000254:    1980        ..      ADDS     r0,r0,r6
        0x00000256:    0840        @.      LSRS     r0,r0,#1
        0x00000258:    1880        ..      ADDS     r0,r0,r2
        0x0000025a:    f000fab7    ....    BL       __I$use$fp ; 0x7cc
        0x0000025e:    bdf8        ..      POP      {r3-r7,pc}
        0x00000260:    0061        a.      LSLS     r1,r4,#1
        0x00000262:    2201        ."      MOVS     r2,#1
        0x00000264:    1a51        Q.      SUBS     r1,r2,r1
        0x00000266:    1b00        ..      SUBS     r0,r0,r4
        0x00000268:    e7f7        ..      B        0x25a ; __aeabi_fadd + 146
    __aeabi_fsub
        0x0000026a:    2201        ."      MOVS     r2,#1
        0x0000026c:    07d2        ..      LSLS     r2,r2,#31
        0x0000026e:    4051        Q@      EORS     r1,r1,r2
        0x00000270:    e7aa        ..      B        __aeabi_fadd ; 0x1c8
    __aeabi_frsub
        0x00000272:    2201        ."      MOVS     r2,#1
        0x00000274:    07d2        ..      LSLS     r2,r2,#31
        0x00000276:    4050        P@      EORS     r0,r0,r2
        0x00000278:    e7a6        ..      B        __aeabi_fadd ; 0x1c8
    .text
    __aeabi_fmul
        0x0000027a:    4602        .F      MOV      r2,r0
        0x0000027c:    b570        p.      PUSH     {r4-r6,lr}
        0x0000027e:    404a        J@      EORS     r2,r2,r1
        0x00000280:    0fd3        ..      LSRS     r3,r2,#31
        0x00000282:    07db        ..      LSLS     r3,r3,#31
        0x00000284:    0040        @.      LSLS     r0,r0,#1
        0x00000286:    d02d        -.      BEQ      0x2e4 ; __aeabi_fmul + 106
        0x00000288:    004a        J.      LSLS     r2,r1,#1
        0x0000028a:    d02a        *.      BEQ      0x2e2 ; __aeabi_fmul + 104
        0x0000028c:    0e01        ..      LSRS     r1,r0,#24
        0x0000028e:    0e14        ..      LSRS     r4,r2,#24
        0x00000290:    0200        ..      LSLS     r0,r0,#8
        0x00000292:    0212        ..      LSLS     r2,r2,#8
        0x00000294:    1909        ..      ADDS     r1,r1,r4
        0x00000296:    0a40        @.      LSRS     r0,r0,#9
        0x00000298:    0a52        R.      LSRS     r2,r2,#9
        0x0000029a:    1884        ..      ADDS     r4,r0,r2
        0x0000029c:    01e5        ..      LSLS     r5,r4,#7
        0x0000029e:    4604        .F      MOV      r4,r0
        0x000002a0:    4354        TC      MULS     r4,r2,r4
        0x000002a2:    0a00        ..      LSRS     r0,r0,#8
        0x000002a4:    0a12        ..      LSRS     r2,r2,#8
        0x000002a6:    042e        ..      LSLS     r6,r5,#16
        0x000002a8:    4350        PC      MULS     r0,r2,r0
        0x000002aa:    19a4        ..      ADDS     r4,r4,r6
        0x000002ac:    1942        B.      ADDS     r2,r0,r5
        0x000002ae:    0c20         .      LSRS     r0,r4,#16
        0x000002b0:    43c5        .C      MVNS     r5,r0
        0x000002b2:    18aa        ..      ADDS     r2,r5,r2
        0x000002b4:    0c12        ..      LSRS     r2,r2,#16
        0x000002b6:    2501        .%      MOVS     r5,#1
        0x000002b8:    03ad        ..      LSLS     r5,r5,#14
        0x000002ba:    1c52        R.      ADDS     r2,r2,#1
        0x000002bc:    1952        R.      ADDS     r2,r2,r5
        0x000002be:    0412        ..      LSLS     r2,r2,#16
        0x000002c0:    397f        .9      SUBS     r1,r1,#0x7f
        0x000002c2:    0424        $.      LSLS     r4,r4,#16
        0x000002c4:    d000        ..      BEQ      0x2c8 ; __aeabi_fmul + 78
        0x000002c6:    1c52        R.      ADDS     r2,r2,#1
        0x000002c8:    4310        .C      ORRS     r0,r0,r2
        0x000002ca:    d401        ..      BMI      0x2d0 ; __aeabi_fmul + 86
        0x000002cc:    0040        @.      LSLS     r0,r0,#1
        0x000002ce:    1e49        I.      SUBS     r1,r1,#1
        0x000002d0:    b2c2        ..      UXTB     r2,r0
        0x000002d2:    060c        ..      LSLS     r4,r1,#24
        0x000002d4:    09c0        ..      LSRS     r0,r0,#7
        0x000002d6:    1820         .      ADDS     r0,r4,r0
        0x000002d8:    1c40        @.      ADDS     r0,r0,#1
        0x000002da:    0840        @.      LSRS     r0,r0,#1
        0x000002dc:    2a80        .*      CMP      r2,#0x80
        0x000002de:    d002        ..      BEQ      0x2e6 ; __aeabi_fmul + 108
        0x000002e0:    e003        ..      B        0x2ea ; __aeabi_fmul + 112
        0x000002e2:    2000        .       MOVS     r0,#0
        0x000002e4:    bd70        p.      POP      {r4-r6,pc}
        0x000002e6:    0840        @.      LSRS     r0,r0,#1
        0x000002e8:    0040        @.      LSLS     r0,r0,#1
        0x000002ea:    2900        .)      CMP      r1,#0
        0x000002ec:    da00        ..      BGE      0x2f0 ; __aeabi_fmul + 118
        0x000002ee:    2000        .       MOVS     r0,#0
        0x000002f0:    4318        .C      ORRS     r0,r0,r3
        0x000002f2:    bd70        p.      POP      {r4-r6,pc}
    .text
    __aeabi_fdiv
        0x000002f4:    b570        p.      PUSH     {r4-r6,lr}
        0x000002f6:    4602        .F      MOV      r2,r0
        0x000002f8:    404a        J@      EORS     r2,r2,r1
        0x000002fa:    0fd5        ..      LSRS     r5,r2,#31
        0x000002fc:    0040        @.      LSLS     r0,r0,#1
        0x000002fe:    004a        J.      LSLS     r2,r1,#1
        0x00000300:    07ed        ..      LSLS     r5,r5,#31
        0x00000302:    0840        @.      LSRS     r0,r0,#1
        0x00000304:    0852        R.      LSRS     r2,r2,#1
        0x00000306:    2800        .(      CMP      r0,#0
        0x00000308:    d014        ..      BEQ      0x334 ; __aeabi_fdiv + 64
        0x0000030a:    2a00        .*      CMP      r2,#0
        0x0000030c:    d012        ..      BEQ      0x334 ; __aeabi_fdiv + 64
        0x0000030e:    0dc4        ..      LSRS     r4,r0,#23
        0x00000310:    0dd3        ..      LSRS     r3,r2,#23
        0x00000312:    0241        A.      LSLS     r1,r0,#9
        0x00000314:    2001        .       MOVS     r0,#1
        0x00000316:    05c0        ..      LSLS     r0,r0,#23
        0x00000318:    0252        R.      LSLS     r2,r2,#9
        0x0000031a:    0a49        I.      LSRS     r1,r1,#9
        0x0000031c:    0a52        R.      LSRS     r2,r2,#9
        0x0000031e:    1ae4        ..      SUBS     r4,r4,r3
        0x00000320:    1809        ..      ADDS     r1,r1,r0
        0x00000322:    1812        ..      ADDS     r2,r2,r0
        0x00000324:    347d        }4      ADDS     r4,r4,#0x7d
        0x00000326:    4291        .B      CMP      r1,r2
        0x00000328:    d301        ..      BCC      0x32e ; __aeabi_fdiv + 58
        0x0000032a:    1c64        d.      ADDS     r4,r4,#1
        0x0000032c:    e000        ..      B        0x330 ; __aeabi_fdiv + 60
        0x0000032e:    0049        I.      LSLS     r1,r1,#1
        0x00000330:    2c00        .,      CMP      r4,#0
        0x00000332:    da01        ..      BGE      0x338 ; __aeabi_fdiv + 68
        0x00000334:    2000        .       MOVS     r0,#0
        0x00000336:    bd70        p.      POP      {r4-r6,pc}
        0x00000338:    2300        .#      MOVS     r3,#0
        0x0000033a:    4291        .B      CMP      r1,r2
        0x0000033c:    d301        ..      BCC      0x342 ; __aeabi_fdiv + 78
        0x0000033e:    1a89        ..      SUBS     r1,r1,r2
        0x00000340:    4303        .C      ORRS     r3,r3,r0
        0x00000342:    0840        @.      LSRS     r0,r0,#1
        0x00000344:    0049        I.      LSLS     r1,r1,#1
        0x00000346:    2800        .(      CMP      r0,#0
        0x00000348:    d1f7        ..      BNE      0x33a ; __aeabi_fdiv + 70
        0x0000034a:    2900        .)      CMP      r1,#0
        0x0000034c:    d00a        ..      BEQ      0x364 ; __aeabi_fdiv + 112
        0x0000034e:    4291        .B      CMP      r1,r2
        0x00000350:    d102        ..      BNE      0x358 ; __aeabi_fdiv + 100
        0x00000352:    2101        .!      MOVS     r1,#1
        0x00000354:    07c9        ..      LSLS     r1,r1,#31
        0x00000356:    e005        ..      B        0x364 ; __aeabi_fdiv + 112
        0x00000358:    4291        .B      CMP      r1,r2
        0x0000035a:    d201        ..      BCS      0x360 ; __aeabi_fdiv + 108
        0x0000035c:    2101        .!      MOVS     r1,#1
        0x0000035e:    e001        ..      B        0x364 ; __aeabi_fdiv + 112
        0x00000360:    2101        .!      MOVS     r1,#1
        0x00000362:    43c9        .C      MVNS     r1,r1
        0x00000364:    05e0        ..      LSLS     r0,r4,#23
        0x00000366:    18c0        ..      ADDS     r0,r0,r3
        0x00000368:    1940        @.      ADDS     r0,r0,r5
        0x0000036a:    f000fa2f    ../.    BL       __I$use$fp ; 0x7cc
        0x0000036e:    bd70        p.      POP      {r4-r6,pc}
    .text
    __aeabi_dadd
        0x00000370:    b5f0        ..      PUSH     {r4-r7,lr}
        0x00000372:    4607        .F      MOV      r7,r0
        0x00000374:    4608        .F      MOV      r0,r1
        0x00000376:    4058        X@      EORS     r0,r0,r3
        0x00000378:    b087        ..      SUB      sp,sp,#0x1c
        0x0000037a:    0fc0        ..      LSRS     r0,r0,#31
        0x0000037c:    9004        ..      STR      r0,[sp,#0x10]
        0x0000037e:    0048        H.      LSLS     r0,r1,#1
        0x00000380:    460e        .F      MOV      r6,r1
        0x00000382:    0059        Y.      LSLS     r1,r3,#1
        0x00000384:    0840        @.      LSRS     r0,r0,#1
        0x00000386:    0849        I.      LSRS     r1,r1,#1
        0x00000388:    1abc        ..      SUBS     r4,r7,r2
        0x0000038a:    4188        .A      SBCS     r0,r0,r1
        0x0000038c:    d205        ..      BCS      0x39a ; __aeabi_dadd + 42
        0x0000038e:    4638        8F      MOV      r0,r7
        0x00000390:    4631        1F      MOV      r1,r6
        0x00000392:    461e        .F      MOV      r6,r3
        0x00000394:    4617        .F      MOV      r7,r2
        0x00000396:    460b        .F      MOV      r3,r1
        0x00000398:    4602        .F      MOV      r2,r0
        0x0000039a:    0058        X.      LSLS     r0,r3,#1
        0x0000039c:    0840        @.      LSRS     r0,r0,#1
        0x0000039e:    4310        .C      ORRS     r0,r0,r2
        0x000003a0:    d04c        L.      BEQ      0x43c ; __aeabi_dadd + 204
        0x000003a2:    0d30        0.      LSRS     r0,r6,#20
        0x000003a4:    9003        ..      STR      r0,[sp,#0xc]
        0x000003a6:    0540        @.      LSLS     r0,r0,#21
        0x000003a8:    0059        Y.      LSLS     r1,r3,#1
        0x000003aa:    0d40        @.      LSRS     r0,r0,#21
        0x000003ac:    0d49        I.      LSRS     r1,r1,#21
        0x000003ae:    9005        ..      STR      r0,[sp,#0x14]
        0x000003b0:    1a40        @.      SUBS     r0,r0,r1
        0x000003b2:    9002        ..      STR      r0,[sp,#8]
        0x000003b4:    2840        @(      CMP      r0,#0x40
        0x000003b6:    da72        r.      BGE      0x49e ; __aeabi_dadd + 302
        0x000003b8:    0318        ..      LSLS     r0,r3,#12
        0x000003ba:    2101        .!      MOVS     r1,#1
        0x000003bc:    0b00        ..      LSRS     r0,r0,#12
        0x000003be:    0509        ..      LSLS     r1,r1,#20
        0x000003c0:    4308        .C      ORRS     r0,r0,r1
        0x000003c2:    9001        ..      STR      r0,[sp,#4]
        0x000003c4:    9804        ..      LDR      r0,[sp,#0x10]
        0x000003c6:    9200        ..      STR      r2,[sp,#0]
        0x000003c8:    2800        .(      CMP      r0,#0
        0x000003ca:    d005        ..      BEQ      0x3d8 ; __aeabi_dadd + 104
        0x000003cc:    9901        ..      LDR      r1,[sp,#4]
        0x000003ce:    4252        RB      RSBS     r2,r2,#0
        0x000003d0:    2000        .       MOVS     r0,#0
        0x000003d2:    4188        .A      SBCS     r0,r0,r1
        0x000003d4:    9200        ..      STR      r2,[sp,#0]
        0x000003d6:    9001        ..      STR      r0,[sp,#4]
        0x000003d8:    9802        ..      LDR      r0,[sp,#8]
        0x000003da:    2140        @!      MOVS     r1,#0x40
        0x000003dc:    1a0a        ..      SUBS     r2,r1,r0
        0x000003de:    9901        ..      LDR      r1,[sp,#4]
        0x000003e0:    9800        ..      LDR      r0,[sp,#0]
        0x000003e2:    f000f9bf    ....    BL       __aeabi_llsl ; 0x764
        0x000003e6:    4605        .F      MOV      r5,r0
        0x000003e8:    460c        .F      MOV      r4,r1
        0x000003ea:    466b        kF      MOV      r3,sp
        0x000003ec:    cb07        ..      LDM      r3!,{r0-r2}
        0x000003ee:    f000f9da    ....    BL       __aeabi_lasr ; 0x7a6
        0x000003f2:    19c0        ..      ADDS     r0,r0,r7
        0x000003f4:    4171        qA      ADCS     r1,r1,r6
        0x000003f6:    9a03        ..      LDR      r2,[sp,#0xc]
        0x000003f8:    0d0e        ..      LSRS     r6,r1,#20
        0x000003fa:    2300        .#      MOVS     r3,#0
        0x000003fc:    17d7        ..      ASRS     r7,r2,#31
        0x000003fe:    4056        V@      EORS     r6,r6,r2
        0x00000400:    461a        .F      MOV      r2,r3
        0x00000402:    407a        z@      EORS     r2,r2,r7
        0x00000404:    4316        .C      ORRS     r6,r6,r2
        0x00000406:    d044        D.      BEQ      0x492 ; __aeabi_dadd + 290
        0x00000408:    9a04        ..      LDR      r2,[sp,#0x10]
        0x0000040a:    2a00        .*      CMP      r2,#0
        0x0000040c:    d02d        -.      BEQ      0x46a ; __aeabi_dadd + 250
        0x0000040e:    9a02        ..      LDR      r2,[sp,#8]
        0x00000410:    2a01        .*      CMP      r2,#1
        0x00000412:    9a03        ..      LDR      r2,[sp,#0xc]
        0x00000414:    dc15        ..      BGT      0x442 ; __aeabi_dadd + 210
        0x00000416:    0512        ..      LSLS     r2,r2,#20
        0x00000418:    1ac0        ..      SUBS     r0,r0,r3
        0x0000041a:    4191        .A      SBCS     r1,r1,r2
        0x0000041c:    2601        .&      MOVS     r6,#1
        0x0000041e:    0536        6.      LSLS     r6,r6,#20
        0x00000420:    1c00        ..      ADDS     r0,r0,#0
        0x00000422:    4171        qA      ADCS     r1,r1,r6
        0x00000424:    0fd2        ..      LSRS     r2,r2,#31
        0x00000426:    9e05        ..      LDR      r6,[sp,#0x14]
        0x00000428:    07d2        ..      LSLS     r2,r2,#31
        0x0000042a:    9300        ..      STR      r3,[sp,#0]
        0x0000042c:    9201        ..      STR      r2,[sp,#4]
        0x0000042e:    9602        ..      STR      r6,[sp,#8]
        0x00000430:    462a        *F      MOV      r2,r5
        0x00000432:    4623        #F      MOV      r3,r4
        0x00000434:    f000fa18    ....    BL       _double_epilogue ; 0x868
        0x00000438:    b007        ..      ADD      sp,sp,#0x1c
        0x0000043a:    bdf0        ..      POP      {r4-r7,pc}
        0x0000043c:    4638        8F      MOV      r0,r7
        0x0000043e:    4631        1F      MOV      r1,r6
        0x00000440:    e7fa        ..      B        0x438 ; __aeabi_dadd + 200
        0x00000442:    0516        ..      LSLS     r6,r2,#20
        0x00000444:    4a22        "J      LDR      r2,[pc,#136] ; [0x4d0] = 0xffe00000
        0x00000446:    460f        .F      MOV      r7,r1
        0x00000448:    18b2        ..      ADDS     r2,r6,r2
        0x0000044a:    1ac0        ..      SUBS     r0,r0,r3
        0x0000044c:    41b7        .A      SBCS     r7,r7,r6
        0x0000044e:    2101        .!      MOVS     r1,#1
        0x00000450:    0509        ..      LSLS     r1,r1,#20
        0x00000452:    1c00        ..      ADDS     r0,r0,#0
        0x00000454:    414f        OA      ADCS     r7,r7,r1
        0x00000456:    1800        ..      ADDS     r0,r0,r0
        0x00000458:    417f        .A      ADCS     r7,r7,r7
        0x0000045a:    4611        .F      MOV      r1,r2
        0x0000045c:    1818        ..      ADDS     r0,r3,r0
        0x0000045e:    4179        yA      ADCS     r1,r1,r7
        0x00000460:    0fe2        ..      LSRS     r2,r4,#31
        0x00000462:    4310        .C      ORRS     r0,r0,r2
        0x00000464:    196d        m.      ADDS     r5,r5,r5
        0x00000466:    4164        dA      ADCS     r4,r4,r4
        0x00000468:    e013        ..      B        0x492 ; __aeabi_dadd + 290
        0x0000046a:    07e2        ..      LSLS     r2,r4,#31
        0x0000046c:    086d        m.      LSRS     r5,r5,#1
        0x0000046e:    4315        .C      ORRS     r5,r5,r2
        0x00000470:    0864        d.      LSRS     r4,r4,#1
        0x00000472:    07c2        ..      LSLS     r2,r0,#31
        0x00000474:    4314        .C      ORRS     r4,r4,r2
        0x00000476:    9a03        ..      LDR      r2,[sp,#0xc]
        0x00000478:    2601        .&      MOVS     r6,#1
        0x0000047a:    0512        ..      LSLS     r2,r2,#20
        0x0000047c:    1ac0        ..      SUBS     r0,r0,r3
        0x0000047e:    4191        .A      SBCS     r1,r1,r2
        0x00000480:    0536        6.      LSLS     r6,r6,#20
        0x00000482:    1c00        ..      ADDS     r0,r0,#0
        0x00000484:    4171        qA      ADCS     r1,r1,r6
        0x00000486:    07ce        ..      LSLS     r6,r1,#31
        0x00000488:    0840        @.      LSRS     r0,r0,#1
        0x0000048a:    4330        0C      ORRS     r0,r0,r6
        0x0000048c:    0849        I.      LSRS     r1,r1,#1
        0x0000048e:    18c0        ..      ADDS     r0,r0,r3
        0x00000490:    4151        QA      ADCS     r1,r1,r2
        0x00000492:    462a        *F      MOV      r2,r5
        0x00000494:    4623        #F      MOV      r3,r4
        0x00000496:    f000f9da    ....    BL       _double_round ; 0x84e
        0x0000049a:    e7cd        ..      B        0x438 ; __aeabi_dadd + 200
        0x0000049c:    e7ff        ..      B        0x49e ; __aeabi_dadd + 302
        0x0000049e:    9804        ..      LDR      r0,[sp,#0x10]
        0x000004a0:    2201        ."      MOVS     r2,#1
        0x000004a2:    0040        @.      LSLS     r0,r0,#1
        0x000004a4:    17c1        ..      ASRS     r1,r0,#31
        0x000004a6:    1a12        ..      SUBS     r2,r2,r0
        0x000004a8:    2300        .#      MOVS     r3,#0
        0x000004aa:    418b        .A      SBCS     r3,r3,r1
        0x000004ac:    9804        ..      LDR      r0,[sp,#0x10]
        0x000004ae:    4631        1F      MOV      r1,r6
        0x000004b0:    17c4        ..      ASRS     r4,r0,#31
        0x000004b2:    1a38        8.      SUBS     r0,r7,r0
        0x000004b4:    41a1        .A      SBCS     r1,r1,r4
        0x000004b6:    e7ee        ..      B        0x496 ; __aeabi_dadd + 294
    __aeabi_dsub
        0x000004b8:    b430        0.      PUSH     {r4,r5}
        0x000004ba:    2401        .$      MOVS     r4,#1
        0x000004bc:    07e4        ..      LSLS     r4,r4,#31
        0x000004be:    4063        c@      EORS     r3,r3,r4
        0x000004c0:    bc30        0.      POP      {r4,r5}
        0x000004c2:    e755        U.      B        __aeabi_dadd ; 0x370
    __aeabi_drsub
        0x000004c4:    b430        0.      PUSH     {r4,r5}
        0x000004c6:    2401        .$      MOVS     r4,#1
        0x000004c8:    07e4        ..      LSLS     r4,r4,#31
        0x000004ca:    4061        a@      EORS     r1,r1,r4
        0x000004cc:    bc30        0.      POP      {r4,r5}
        0x000004ce:    e74f        O.      B        __aeabi_dadd ; 0x370
    $d
        0x000004d0:    ffe00000    ....    DCD    4292870144
    $t
    .text
    __aeabi_dmul
        0x000004d4:    b5f0        ..      PUSH     {r4-r7,lr}
        0x000004d6:    b41f        ..      PUSH     {r0-r4}
        0x000004d8:    b088        ..      SUB      sp,sp,#0x20
        0x000004da:    990b        ..      LDR      r1,[sp,#0x2c]
        0x000004dc:    9809        ..      LDR      r0,[sp,#0x24]
        0x000004de:    2400        .$      MOVS     r4,#0
        0x000004e0:    4048        H@      EORS     r0,r0,r1
        0x000004e2:    9909        ..      LDR      r1,[sp,#0x24]
        0x000004e4:    0fc0        ..      LSRS     r0,r0,#31
        0x000004e6:    0049        I.      LSLS     r1,r1,#1
        0x000004e8:    0849        I.      LSRS     r1,r1,#1
        0x000004ea:    9109        ..      STR      r1,[sp,#0x24]
        0x000004ec:    07c0        ..      LSLS     r0,r0,#31
        0x000004ee:    990b        ..      LDR      r1,[sp,#0x2c]
        0x000004f0:    9000        ..      STR      r0,[sp,#0]
        0x000004f2:    0049        I.      LSLS     r1,r1,#1
        0x000004f4:    0849        I.      LSRS     r1,r1,#1
        0x000004f6:    910b        ..      STR      r1,[sp,#0x2c]
        0x000004f8:    9909        ..      LDR      r1,[sp,#0x24]
        0x000004fa:    9808        ..      LDR      r0,[sp,#0x20]
        0x000004fc:    46a6        .F      MOV      lr,r4
        0x000004fe:    4308        .C      ORRS     r0,r0,r1
        0x00000500:    d01c        ..      BEQ      0x53c ; __aeabi_dmul + 104
        0x00000502:    990b        ..      LDR      r1,[sp,#0x2c]
        0x00000504:    980a        ..      LDR      r0,[sp,#0x28]
        0x00000506:    4308        .C      ORRS     r0,r0,r1
        0x00000508:    d018        ..      BEQ      0x53c ; __aeabi_dmul + 104
        0x0000050a:    9809        ..      LDR      r0,[sp,#0x24]
        0x0000050c:    2401        .$      MOVS     r4,#1
        0x0000050e:    0040        @.      LSLS     r0,r0,#1
        0x00000510:    0d42        B.      LSRS     r2,r0,#21
        0x00000512:    0048        H.      LSLS     r0,r1,#1
        0x00000514:    0d41        A.      LSRS     r1,r0,#21
        0x00000516:    9809        ..      LDR      r0,[sp,#0x24]
        0x00000518:    0524        $.      LSLS     r4,r4,#20
        0x0000051a:    0300        ..      LSLS     r0,r0,#12
        0x0000051c:    0b00        ..      LSRS     r0,r0,#12
        0x0000051e:    4320         C      ORRS     r0,r0,r4
        0x00000520:    9009        ..      STR      r0,[sp,#0x24]
        0x00000522:    980b        ..      LDR      r0,[sp,#0x2c]
        0x00000524:    0300        ..      LSLS     r0,r0,#12
        0x00000526:    0b00        ..      LSRS     r0,r0,#12
        0x00000528:    4320         C      ORRS     r0,r0,r4
        0x0000052a:    900b        ..      STR      r0,[sp,#0x2c]
        0x0000052c:    1850        P.      ADDS     r0,r2,r1
        0x0000052e:    491c        .I      LDR      r1,[pc,#112] ; [0x5a0] = 0xfffffc0d
        0x00000530:    1840        @.      ADDS     r0,r0,r1
        0x00000532:    2200        ."      MOVS     r2,#0
        0x00000534:    9001        ..      STR      r0,[sp,#4]
        0x00000536:    4614        .F      MOV      r4,r2
        0x00000538:    4610        .F      MOV      r0,r2
        0x0000053a:    e005        ..      B        0x548 ; __aeabi_dmul + 116
        0x0000053c:    2000        .       MOVS     r0,#0
        0x0000053e:    4601        .F      MOV      r1,r0
        0x00000540:    b00d        ..      ADD      sp,sp,#0x34
        0x00000542:    bdf0        ..      POP      {r4-r7,pc}
        0x00000544:    2803        .(      CMP      r0,#3
        0x00000546:    da01        ..      BGE      0x54c ; __aeabi_dmul + 120
        0x00000548:    4603        .F      MOV      r3,r0
        0x0000054a:    e000        ..      B        0x54e ; __aeabi_dmul + 122
        0x0000054c:    2303        .#      MOVS     r3,#3
        0x0000054e:    469c        .F      MOV      r12,r3
        0x00000550:    1ac1        ..      SUBS     r1,r0,r3
        0x00000552:    ae0a        ..      ADD      r6,sp,#0x28
        0x00000554:    e00a        ..      B        0x56c ; __aeabi_dmul + 152
        0x00000556:    005f        _.      LSLS     r7,r3,#1
        0x00000558:    ad08        ..      ADD      r5,sp,#0x20
        0x0000055a:    5bed        .[      LDRH     r5,[r5,r7]
        0x0000055c:    004f        O.      LSLS     r7,r1,#1
        0x0000055e:    5bf7        .[      LDRH     r7,[r6,r7]
        0x00000560:    437d        }C      MULS     r5,r7,r5
        0x00000562:    2700        .'      MOVS     r7,#0
        0x00000564:    18aa        ..      ADDS     r2,r5,r2
        0x00000566:    417c        |A      ADCS     r4,r4,r7
        0x00000568:    1c49        I.      ADDS     r1,r1,#1
        0x0000056a:    1e5b        [.      SUBS     r3,r3,#1
        0x0000056c:    4561        aE      CMP      r1,r12
        0x0000056e:    ddf2        ..      BLE      0x556 ; __aeabi_dmul + 130
        0x00000570:    0041        A.      LSLS     r1,r0,#1
        0x00000572:    ab04        ..      ADD      r3,sp,#0x10
        0x00000574:    525a        ZR      STRH     r2,[r3,r1]
        0x00000576:    0421        !.      LSLS     r1,r4,#16
        0x00000578:    0c12        ..      LSRS     r2,r2,#16
        0x0000057a:    430a        .C      ORRS     r2,r2,r1
        0x0000057c:    0c24        $.      LSRS     r4,r4,#16
        0x0000057e:    1c40        @.      ADDS     r0,r0,#1
        0x00000580:    2808        .(      CMP      r0,#8
        0x00000582:    dbdf        ..      BLT      0x544 ; __aeabi_dmul + 112
        0x00000584:    9801        ..      LDR      r0,[sp,#4]
        0x00000586:    9002        ..      STR      r0,[sp,#8]
        0x00000588:    9900        ..      LDR      r1,[sp,#0]
        0x0000058a:    4670        pF      MOV      r0,lr
        0x0000058c:    9101        ..      STR      r1,[sp,#4]
        0x0000058e:    9000        ..      STR      r0,[sp,#0]
        0x00000590:    9b05        ..      LDR      r3,[sp,#0x14]
        0x00000592:    9a04        ..      LDR      r2,[sp,#0x10]
        0x00000594:    9907        ..      LDR      r1,[sp,#0x1c]
        0x00000596:    9806        ..      LDR      r0,[sp,#0x18]
        0x00000598:    f000f966    ..f.    BL       _double_epilogue ; 0x868
        0x0000059c:    e7d0        ..      B        0x540 ; __aeabi_dmul + 108
    $d
        0x0000059e:    0000        ..      DCW    0
        0x000005a0:    fffffc0d    ....    DCD    4294966285
    $t
    .text
    __aeabi_i2f
        0x000005a4:    17c2        ..      ASRS     r2,r0,#31
        0x000005a6:    0fc1        ..      LSRS     r1,r0,#31
        0x000005a8:    4050        P@      EORS     r0,r0,r2
        0x000005aa:    b510        ..      PUSH     {r4,lr}
        0x000005ac:    1840        @.      ADDS     r0,r0,r1
        0x000005ae:    07ca        ..      LSLS     r2,r1,#31
        0x000005b0:    2396        .#      MOVS     r3,#0x96
        0x000005b2:    2100        .!      MOVS     r1,#0
        0x000005b4:    f000f912    ....    BL       _float_epilogue ; 0x7dc
        0x000005b8:    bd10        ..      POP      {r4,pc}
    .text
    __aeabi_ui2f
        0x000005ba:    b510        ..      PUSH     {r4,lr}
        0x000005bc:    2200        ."      MOVS     r2,#0
        0x000005be:    2396        .#      MOVS     r3,#0x96
        0x000005c0:    4611        .F      MOV      r1,r2
        0x000005c2:    f000f90b    ....    BL       _float_epilogue ; 0x7dc
        0x000005c6:    bd10        ..      POP      {r4,pc}
    .text
    __aeabi_ui2d
        0x000005c8:    b50e        ..      PUSH     {r1-r3,lr}
        0x000005ca:    4905        .I      LDR      r1,[pc,#20] ; [0x5e0] = 0x433
        0x000005cc:    9102        ..      STR      r1,[sp,#8]
        0x000005ce:    2100        .!      MOVS     r1,#0
        0x000005d0:    9100        ..      STR      r1,[sp,#0]
        0x000005d2:    460a        .F      MOV      r2,r1
        0x000005d4:    460b        .F      MOV      r3,r1
        0x000005d6:    9101        ..      STR      r1,[sp,#4]
        0x000005d8:    f000f946    ..F.    BL       _double_epilogue ; 0x868
        0x000005dc:    b003        ..      ADD      sp,sp,#0xc
        0x000005de:    bd00        ..      POP      {pc}
    $d
        0x000005e0:    00000433    3...    DCD    1075
    $t
    .text
    __aeabi_f2iz
        0x000005e4:    0fc2        ..      LSRS     r2,r0,#31
        0x000005e6:    0041        A.      LSLS     r1,r0,#1
        0x000005e8:    0240        @.      LSLS     r0,r0,#9
        0x000005ea:    2301        .#      MOVS     r3,#1
        0x000005ec:    0a40        @.      LSRS     r0,r0,#9
        0x000005ee:    05db        ..      LSLS     r3,r3,#23
        0x000005f0:    07d2        ..      LSLS     r2,r2,#31
        0x000005f2:    0e09        ..      LSRS     r1,r1,#24
        0x000005f4:    18c0        ..      ADDS     r0,r0,r3
        0x000005f6:    297f        .)      CMP      r1,#0x7f
        0x000005f8:    da01        ..      BGE      0x5fe ; __aeabi_f2iz + 26
        0x000005fa:    2000        .       MOVS     r0,#0
        0x000005fc:    4770        pG      BX       lr
        0x000005fe:    2996        .)      CMP      r1,#0x96
        0x00000600:    dc03        ..      BGT      0x60a ; __aeabi_f2iz + 38
        0x00000602:    2396        .#      MOVS     r3,#0x96
        0x00000604:    1a59        Y.      SUBS     r1,r3,r1
        0x00000606:    40c8        .@      LSRS     r0,r0,r1
        0x00000608:    e001        ..      B        0x60e ; __aeabi_f2iz + 42
        0x0000060a:    3996        .9      SUBS     r1,r1,#0x96
        0x0000060c:    4088        .@      LSLS     r0,r0,r1
        0x0000060e:    2a00        .*      CMP      r2,#0
        0x00000610:    d0f4        ..      BEQ      0x5fc ; __aeabi_f2iz + 24
        0x00000612:    4240        @B      RSBS     r0,r0,#0
        0x00000614:    4770        pG      BX       lr
    .text
    __aeabi_f2uiz
        0x00000616:    0041        A.      LSLS     r1,r0,#1
        0x00000618:    0240        @.      LSLS     r0,r0,#9
        0x0000061a:    2201        ."      MOVS     r2,#1
        0x0000061c:    0a40        @.      LSRS     r0,r0,#9
        0x0000061e:    05d2        ..      LSLS     r2,r2,#23
        0x00000620:    0e09        ..      LSRS     r1,r1,#24
        0x00000622:    1880        ..      ADDS     r0,r0,r2
        0x00000624:    297f        .)      CMP      r1,#0x7f
        0x00000626:    da01        ..      BGE      0x62c ; __aeabi_f2uiz + 22
        0x00000628:    2000        .       MOVS     r0,#0
        0x0000062a:    4770        pG      BX       lr
        0x0000062c:    2996        .)      CMP      r1,#0x96
        0x0000062e:    dc03        ..      BGT      0x638 ; __aeabi_f2uiz + 34
        0x00000630:    2296        ."      MOVS     r2,#0x96
        0x00000632:    1a51        Q.      SUBS     r1,r2,r1
        0x00000634:    40c8        .@      LSRS     r0,r0,r1
        0x00000636:    4770        pG      BX       lr
        0x00000638:    3996        .9      SUBS     r1,r1,#0x96
        0x0000063a:    4088        .@      LSLS     r0,r0,r1
        0x0000063c:    4770        pG      BX       lr
        0x0000063e:    0000        ..      MOVS     r0,r0
    .text
    __aeabi_d2uiz
        0x00000640:    004a        J.      LSLS     r2,r1,#1
        0x00000642:    0309        ..      LSLS     r1,r1,#12
        0x00000644:    2301        .#      MOVS     r3,#1
        0x00000646:    0b09        ..      LSRS     r1,r1,#12
        0x00000648:    051b        ..      LSLS     r3,r3,#20
        0x0000064a:    4319        .C      ORRS     r1,r1,r3
        0x0000064c:    4b09        .K      LDR      r3,[pc,#36] ; [0x674] = 0x3ff
        0x0000064e:    b510        ..      PUSH     {r4,lr}
        0x00000650:    0d52        R.      LSRS     r2,r2,#21
        0x00000652:    429a        .B      CMP      r2,r3
        0x00000654:    da01        ..      BGE      0x65a ; __aeabi_d2uiz + 26
        0x00000656:    2000        .       MOVS     r0,#0
        0x00000658:    bd10        ..      POP      {r4,pc}
        0x0000065a:    4b06        .K      LDR      r3,[pc,#24] ; [0x674] = 0x3ff
        0x0000065c:    3334        43      ADDS     r3,r3,#0x34
        0x0000065e:    429a        .B      CMP      r2,r3
        0x00000660:    dc03        ..      BGT      0x66a ; __aeabi_d2uiz + 42
        0x00000662:    1a9a        ..      SUBS     r2,r3,r2
        0x00000664:    f000f88e    ....    BL       __aeabi_llsr ; 0x784
        0x00000668:    bd10        ..      POP      {r4,pc}
        0x0000066a:    4903        .I      LDR      r1,[pc,#12] ; [0x678] = 0xfffffbcd
        0x0000066c:    1851        Q.      ADDS     r1,r2,r1
        0x0000066e:    4088        .@      LSLS     r0,r0,r1
        0x00000670:    bd10        ..      POP      {r4,pc}
    $d
        0x00000672:    0000        ..      DCW    0
        0x00000674:    000003ff    ....    DCD    1023
        0x00000678:    fffffbcd    ....    DCD    4294966221
    $t
    .text
    __aeabi_f2d
        0x0000067c:    0fc2        ..      LSRS     r2,r0,#31
        0x0000067e:    07d2        ..      LSLS     r2,r2,#31
        0x00000680:    0040        @.      LSLS     r0,r0,#1
        0x00000682:    0840        @.      LSRS     r0,r0,#1
        0x00000684:    d00b        ..      BEQ      0x69e ; __aeabi_f2d + 34
        0x00000686:    0dc1        ..      LSRS     r1,r0,#23
        0x00000688:    2307        .#      MOVS     r3,#7
        0x0000068a:    01db        ..      LSLS     r3,r3,#7
        0x0000068c:    18c9        ..      ADDS     r1,r1,r3
        0x0000068e:    0240        @.      LSLS     r0,r0,#9
        0x00000690:    0509        ..      LSLS     r1,r1,#20
        0x00000692:    0a40        @.      LSRS     r0,r0,#9
        0x00000694:    4311        .C      ORRS     r1,r1,r2
        0x00000696:    08c2        ..      LSRS     r2,r0,#3
        0x00000698:    0740        @.      LSLS     r0,r0,#29
        0x0000069a:    4311        .C      ORRS     r1,r1,r2
        0x0000069c:    4770        pG      BX       lr
        0x0000069e:    2000        .       MOVS     r0,#0
        0x000006a0:    4601        .F      MOV      r1,r0
        0x000006a2:    4770        pG      BX       lr
    .text
    __aeabi_d2f
        0x000006a4:    0fcb        ..      LSRS     r3,r1,#31
        0x000006a6:    07db        ..      LSLS     r3,r3,#31
        0x000006a8:    0049        I.      LSLS     r1,r1,#1
        0x000006aa:    b510        ..      PUSH     {r4,lr}
        0x000006ac:    0849        I.      LSRS     r1,r1,#1
        0x000006ae:    4602        .F      MOV      r2,r0
        0x000006b0:    430a        .C      ORRS     r2,r2,r1
        0x000006b2:    d007        ..      BEQ      0x6c4 ; __aeabi_d2f + 32
        0x000006b4:    0d0a        ..      LSRS     r2,r1,#20
        0x000006b6:    2407        .$      MOVS     r4,#7
        0x000006b8:    0309        ..      LSLS     r1,r1,#12
        0x000006ba:    01e4        ..      LSLS     r4,r4,#7
        0x000006bc:    0b09        ..      LSRS     r1,r1,#12
        0x000006be:    1b12        ..      SUBS     r2,r2,r4
        0x000006c0:    2a00        .*      CMP      r2,#0
        0x000006c2:    dc01        ..      BGT      0x6c8 ; __aeabi_d2f + 36
        0x000006c4:    2000        .       MOVS     r0,#0
        0x000006c6:    bd10        ..      POP      {r4,pc}
        0x000006c8:    00c9        ..      LSLS     r1,r1,#3
        0x000006ca:    0f44        D.      LSRS     r4,r0,#29
        0x000006cc:    430c        .C      ORRS     r4,r4,r1
        0x000006ce:    00c1        ..      LSLS     r1,r0,#3
        0x000006d0:    18e0        ..      ADDS     r0,r4,r3
        0x000006d2:    05d2        ..      LSLS     r2,r2,#23
        0x000006d4:    1880        ..      ADDS     r0,r0,r2
        0x000006d6:    f000f879    ..y.    BL       __I$use$fp ; 0x7cc
        0x000006da:    bd10        ..      POP      {r4,pc}
    .text
    __aeabi_cfcmpeq
    __aeabi_cfcmple
        0x000006dc:    2201        ."      MOVS     r2,#1
        0x000006de:    07d2        ..      LSLS     r2,r2,#31
        0x000006e0:    2800        .(      CMP      r0,#0
        0x000006e2:    db00        ..      BLT      0x6e6 ; __aeabi_cfcmpeq + 10
        0x000006e4:    1a10        ..      SUBS     r0,r2,r0
        0x000006e6:    2900        .)      CMP      r1,#0
        0x000006e8:    db00        ..      BLT      0x6ec ; __aeabi_cfcmpeq + 16
        0x000006ea:    1a51        Q.      SUBS     r1,r2,r1
        0x000006ec:    4281        .B      CMP      r1,r0
        0x000006ee:    4770        pG      BX       lr
    .text
    __aeabi_cfrcmple
        0x000006f0:    2201        ."      MOVS     r2,#1
        0x000006f2:    07d2        ..      LSLS     r2,r2,#31
        0x000006f4:    2800        .(      CMP      r0,#0
        0x000006f6:    db00        ..      BLT      0x6fa ; __aeabi_cfrcmple + 10
        0x000006f8:    1a10        ..      SUBS     r0,r2,r0
        0x000006fa:    2900        .)      CMP      r1,#0
        0x000006fc:    db00        ..      BLT      0x700 ; __aeabi_cfrcmple + 16
        0x000006fe:    1a51        Q.      SUBS     r1,r2,r1
        0x00000700:    4288        .B      CMP      r0,r1
        0x00000702:    4770        pG      BX       lr
    .text
    __aeabi_uldivmod
        0x00000704:    b5f0        ..      PUSH     {r4-r7,lr}
        0x00000706:    b41f        ..      PUSH     {r0-r4}
        0x00000708:    4606        .F      MOV      r6,r0
        0x0000070a:    2000        .       MOVS     r0,#0
        0x0000070c:    b082        ..      SUB      sp,sp,#8
        0x0000070e:    4605        .F      MOV      r5,r0
        0x00000710:    2440        @$      MOVS     r4,#0x40
        0x00000712:    9101        ..      STR      r1,[sp,#4]
        0x00000714:    9000        ..      STR      r0,[sp,#0]
        0x00000716:    e01b        ..      B        0x750 ; __aeabi_uldivmod + 76
        0x00000718:    9901        ..      LDR      r1,[sp,#4]
        0x0000071a:    4622        "F      MOV      r2,r4
        0x0000071c:    460f        .F      MOV      r7,r1
        0x0000071e:    4630        0F      MOV      r0,r6
        0x00000720:    f000f830    ..0.    BL       __aeabi_llsr ; 0x784
        0x00000724:    9a04        ..      LDR      r2,[sp,#0x10]
        0x00000726:    9b05        ..      LDR      r3,[sp,#0x14]
        0x00000728:    1a80        ..      SUBS     r0,r0,r2
        0x0000072a:    4199        .A      SBCS     r1,r1,r3
        0x0000072c:    d310        ..      BCC      0x750 ; __aeabi_uldivmod + 76
        0x0000072e:    4610        .F      MOV      r0,r2
        0x00000730:    4619        .F      MOV      r1,r3
        0x00000732:    4622        "F      MOV      r2,r4
        0x00000734:    f000f816    ....    BL       __aeabi_llsl ; 0x764
        0x00000738:    1a36        6.      SUBS     r6,r6,r0
        0x0000073a:    418f        .A      SBCS     r7,r7,r1
        0x0000073c:    9701        ..      STR      r7,[sp,#4]
        0x0000073e:    4622        "F      MOV      r2,r4
        0x00000740:    2001        .       MOVS     r0,#1
        0x00000742:    2100        .!      MOVS     r1,#0
        0x00000744:    9f00        ..      LDR      r7,[sp,#0]
        0x00000746:    f000f80d    ....    BL       __aeabi_llsl ; 0x764
        0x0000074a:    1838        8.      ADDS     r0,r7,r0
        0x0000074c:    414d        MA      ADCS     r5,r5,r1
        0x0000074e:    9000        ..      STR      r0,[sp,#0]
        0x00000750:    4620         F      MOV      r0,r4
        0x00000752:    1e64        d.      SUBS     r4,r4,#1
        0x00000754:    2800        .(      CMP      r0,#0
        0x00000756:    dcdf        ..      BGT      0x718 ; __aeabi_uldivmod + 20
        0x00000758:    9b01        ..      LDR      r3,[sp,#4]
        0x0000075a:    9800        ..      LDR      r0,[sp,#0]
        0x0000075c:    4629        )F      MOV      r1,r5
        0x0000075e:    4632        2F      MOV      r2,r6
        0x00000760:    b007        ..      ADD      sp,sp,#0x1c
        0x00000762:    bdf0        ..      POP      {r4-r7,pc}
    .text
    __aeabi_llsl
    _ll_shift_l
        0x00000764:    b510        ..      PUSH     {r4,lr}
        0x00000766:    2a20         *      CMP      r2,#0x20
        0x00000768:    db04        ..      BLT      0x774 ; __aeabi_llsl + 16
        0x0000076a:    4601        .F      MOV      r1,r0
        0x0000076c:    3a20         :      SUBS     r2,r2,#0x20
        0x0000076e:    4091        .@      LSLS     r1,r1,r2
        0x00000770:    2000        .       MOVS     r0,#0
        0x00000772:    bd10        ..      POP      {r4,pc}
        0x00000774:    4091        .@      LSLS     r1,r1,r2
        0x00000776:    2320         #      MOVS     r3,#0x20
        0x00000778:    1a9c        ..      SUBS     r4,r3,r2
        0x0000077a:    4603        .F      MOV      r3,r0
        0x0000077c:    40e3        .@      LSRS     r3,r3,r4
        0x0000077e:    4319        .C      ORRS     r1,r1,r3
        0x00000780:    4090        .@      LSLS     r0,r0,r2
        0x00000782:    bd10        ..      POP      {r4,pc}
    .text
    __aeabi_llsr
    _ll_ushift_r
        0x00000784:    b510        ..      PUSH     {r4,lr}
        0x00000786:    2a20         *      CMP      r2,#0x20
        0x00000788:    db04        ..      BLT      0x794 ; __aeabi_llsr + 16
        0x0000078a:    4608        .F      MOV      r0,r1
        0x0000078c:    3a20         :      SUBS     r2,r2,#0x20
        0x0000078e:    40d0        .@      LSRS     r0,r0,r2
        0x00000790:    2100        .!      MOVS     r1,#0
        0x00000792:    bd10        ..      POP      {r4,pc}
        0x00000794:    460b        .F      MOV      r3,r1
        0x00000796:    40d3        .@      LSRS     r3,r3,r2
        0x00000798:    40d0        .@      LSRS     r0,r0,r2
        0x0000079a:    2420         $      MOVS     r4,#0x20
        0x0000079c:    1aa2        ..      SUBS     r2,r4,r2
        0x0000079e:    4091        .@      LSLS     r1,r1,r2
        0x000007a0:    4308        .C      ORRS     r0,r0,r1
        0x000007a2:    4619        .F      MOV      r1,r3
        0x000007a4:    bd10        ..      POP      {r4,pc}
    .text
    __aeabi_lasr
    _ll_sshift_r
        0x000007a6:    b510        ..      PUSH     {r4,lr}
        0x000007a8:    2a20         *      CMP      r2,#0x20
        0x000007aa:    db06        ..      BLT      0x7ba ; __aeabi_lasr + 20
        0x000007ac:    17cb        ..      ASRS     r3,r1,#31
        0x000007ae:    4608        .F      MOV      r0,r1
        0x000007b0:    3a20         :      SUBS     r2,r2,#0x20
        0x000007b2:    4110        .A      ASRS     r0,r0,r2
        0x000007b4:    17c1        ..      ASRS     r1,r0,#31
        0x000007b6:    430b        .C      ORRS     r3,r3,r1
        0x000007b8:    e006        ..      B        0x7c8 ; __aeabi_lasr + 34
        0x000007ba:    460b        .F      MOV      r3,r1
        0x000007bc:    4113        .A      ASRS     r3,r3,r2
        0x000007be:    40d0        .@      LSRS     r0,r0,r2
        0x000007c0:    2420         $      MOVS     r4,#0x20
        0x000007c2:    1aa2        ..      SUBS     r2,r4,r2
        0x000007c4:    4091        .@      LSLS     r1,r1,r2
        0x000007c6:    4308        .C      ORRS     r0,r0,r1
        0x000007c8:    4619        .F      MOV      r1,r3
        0x000007ca:    bd10        ..      POP      {r4,pc}
    .text
    .text
    __I$use$fp
    _float_round
        0x000007cc:    2900        .)      CMP      r1,#0
        0x000007ce:    da04        ..      BGE      0x7da ; __I$use$fp + 14
        0x000007d0:    1c40        @.      ADDS     r0,r0,#1
        0x000007d2:    0049        I.      LSLS     r1,r1,#1
        0x000007d4:    d101        ..      BNE      0x7da ; __I$use$fp + 14
        0x000007d6:    0840        @.      LSRS     r0,r0,#1
        0x000007d8:    0040        @.      LSLS     r0,r0,#1
        0x000007da:    4770        pG      BX       lr
    _float_epilogue
        0x000007dc:    b470        p.      PUSH     {r4-r6}
        0x000007de:    2400        .$      MOVS     r4,#0
        0x000007e0:    0c05        ..      LSRS     r5,r0,#16
        0x000007e2:    d105        ..      BNE      0x7f0 ; _float_epilogue + 20
        0x000007e4:    2410        .$      MOVS     r4,#0x10
        0x000007e6:    0400        ..      LSLS     r0,r0,#16
        0x000007e8:    d102        ..      BNE      0x7f0 ; _float_epilogue + 20
        0x000007ea:    2900        .)      CMP      r1,#0
        0x000007ec:    d021        !.      BEQ      0x832 ; _float_epilogue + 86
        0x000007ee:    2411        .$      MOVS     r4,#0x11
        0x000007f0:    0e05        ..      LSRS     r5,r0,#24
        0x000007f2:    d101        ..      BNE      0x7f8 ; _float_epilogue + 28
        0x000007f4:    0200        ..      LSLS     r0,r0,#8
        0x000007f6:    3408        .4      ADDS     r4,r4,#8
        0x000007f8:    0f05        ..      LSRS     r5,r0,#28
        0x000007fa:    d101        ..      BNE      0x800 ; _float_epilogue + 36
        0x000007fc:    0100        ..      LSLS     r0,r0,#4
        0x000007fe:    1d24        $.      ADDS     r4,r4,#4
        0x00000800:    0f85        ..      LSRS     r5,r0,#30
        0x00000802:    d101        ..      BNE      0x808 ; _float_epilogue + 44
        0x00000804:    0080        ..      LSLS     r0,r0,#2
        0x00000806:    1ca4        ..      ADDS     r4,r4,#2
        0x00000808:    2800        .(      CMP      r0,#0
        0x0000080a:    db01        ..      BLT      0x810 ; _float_epilogue + 52
        0x0000080c:    0040        @.      LSLS     r0,r0,#1
        0x0000080e:    1c64        d.      ADDS     r4,r4,#1
        0x00000810:    2900        .)      CMP      r1,#0
        0x00000812:    d008        ..      BEQ      0x826 ; _float_epilogue + 74
        0x00000814:    2520         %      MOVS     r5,#0x20
        0x00000816:    1b2e        ..      SUBS     r6,r5,r4
        0x00000818:    460d        .F      MOV      r5,r1
        0x0000081a:    40f5        .@      LSRS     r5,r5,r6
        0x0000081c:    40a1        .@      LSLS     r1,r1,r4
        0x0000081e:    d000        ..      BEQ      0x822 ; _float_epilogue + 70
        0x00000820:    2101        .!      MOVS     r1,#1
        0x00000822:    4329        )C      ORRS     r1,r1,r5
        0x00000824:    4308        .C      ORRS     r0,r0,r1
        0x00000826:    0601        ..      LSLS     r1,r0,#24
        0x00000828:    1b1b        ..      SUBS     r3,r3,r4
        0x0000082a:    0a00        ..      LSRS     r0,r0,#8
        0x0000082c:    1ddb        ..      ADDS     r3,r3,#7
        0x0000082e:    d502        ..      BPL      0x836 ; _float_epilogue + 90
        0x00000830:    2000        .       MOVS     r0,#0
        0x00000832:    bc70        p.      POP      {r4-r6}
        0x00000834:    4770        pG      BX       lr
        0x00000836:    05db        ..      LSLS     r3,r3,#23
        0x00000838:    1818        ..      ADDS     r0,r3,r0
        0x0000083a:    1880        ..      ADDS     r0,r0,r2
        0x0000083c:    2900        .)      CMP      r1,#0
        0x0000083e:    daf8        ..      BGE      0x832 ; _float_epilogue + 86
        0x00000840:    1c40        @.      ADDS     r0,r0,#1
        0x00000842:    0049        I.      LSLS     r1,r1,#1
        0x00000844:    d1f5        ..      BNE      0x832 ; _float_epilogue + 86
        0x00000846:    bc70        p.      POP      {r4-r6}
        0x00000848:    0840        @.      LSRS     r0,r0,#1
        0x0000084a:    0040        @.      LSLS     r0,r0,#1
        0x0000084c:    4770        pG      BX       lr
    .text
    _double_round
        0x0000084e:    b510        ..      PUSH     {r4,lr}
        0x00000850:    2b00        .+      CMP      r3,#0
        0x00000852:    da08        ..      BGE      0x866 ; _double_round + 24
        0x00000854:    2400        .$      MOVS     r4,#0
        0x00000856:    1c40        @.      ADDS     r0,r0,#1
        0x00000858:    4161        aA      ADCS     r1,r1,r4
        0x0000085a:    1892        ..      ADDS     r2,r2,r2
        0x0000085c:    415b        [A      ADCS     r3,r3,r3
        0x0000085e:    431a        .C      ORRS     r2,r2,r3
        0x00000860:    d101        ..      BNE      0x866 ; _double_round + 24
        0x00000862:    0840        @.      LSRS     r0,r0,#1
        0x00000864:    0040        @.      LSLS     r0,r0,#1
        0x00000866:    bd10        ..      POP      {r4,pc}
    _double_epilogue
        0x00000868:    b5f0        ..      PUSH     {r4-r7,lr}
        0x0000086a:    b41f        ..      PUSH     {r0-r4}
        0x0000086c:    b082        ..      SUB      sp,sp,#8
        0x0000086e:    4605        .F      MOV      r5,r0
        0x00000870:    000c        ..      MOVS     r4,r1
        0x00000872:    d003        ..      BEQ      0x87c ; _double_epilogue + 20
        0x00000874:    4608        .F      MOV      r0,r1
        0x00000876:    f001fc85    ....    BL       __ARM_clz ; 0x2184
        0x0000087a:    e002        ..      B        0x882 ; _double_epilogue + 26
        0x0000087c:    f001fc82    ....    BL       __ARM_clz ; 0x2184
        0x00000880:    3020         0      ADDS     r0,r0,#0x20
        0x00000882:    4602        .F      MOV      r2,r0
        0x00000884:    9000        ..      STR      r0,[sp,#0]
        0x00000886:    4621        !F      MOV      r1,r4
        0x00000888:    4628        (F      MOV      r0,r5
        0x0000088a:    f7ffff6b    ..k.    BL       __aeabi_llsl ; 0x764
        0x0000088e:    9b04        ..      LDR      r3,[sp,#0x10]
        0x00000890:    9a05        ..      LDR      r2,[sp,#0x14]
        0x00000892:    4604        .F      MOV      r4,r0
        0x00000894:    460f        .F      MOV      r7,r1
        0x00000896:    4318        .C      ORRS     r0,r0,r3
        0x00000898:    4311        .C      ORRS     r1,r1,r2
        0x0000089a:    4308        .C      ORRS     r0,r0,r1
        0x0000089c:    d014        ..      BEQ      0x8c8 ; _double_epilogue + 96
        0x0000089e:    4618        .F      MOV      r0,r3
        0x000008a0:    4310        .C      ORRS     r0,r0,r2
        0x000008a2:    d01b        ..      BEQ      0x8dc ; _double_epilogue + 116
        0x000008a4:    9800        ..      LDR      r0,[sp,#0]
        0x000008a6:    2140        @!      MOVS     r1,#0x40
        0x000008a8:    1a0a        ..      SUBS     r2,r1,r0
        0x000008aa:    4618        .F      MOV      r0,r3
        0x000008ac:    9905        ..      LDR      r1,[sp,#0x14]
        0x000008ae:    f7ffff69    ..i.    BL       __aeabi_llsr ; 0x784
        0x000008b2:    4605        .F      MOV      r5,r0
        0x000008b4:    460e        .F      MOV      r6,r1
        0x000008b6:    9a00        ..      LDR      r2,[sp,#0]
        0x000008b8:    9905        ..      LDR      r1,[sp,#0x14]
        0x000008ba:    9804        ..      LDR      r0,[sp,#0x10]
        0x000008bc:    f7ffff52    ..R.    BL       __aeabi_llsl ; 0x764
        0x000008c0:    4308        .C      ORRS     r0,r0,r1
        0x000008c2:    d005        ..      BEQ      0x8d0 ; _double_epilogue + 104
        0x000008c4:    2001        .       MOVS     r0,#1
        0x000008c6:    e004        ..      B        0x8d2 ; _double_epilogue + 106
        0x000008c8:    4620         F      MOV      r0,r4
        0x000008ca:    4639        9F      MOV      r1,r7
        0x000008cc:    b007        ..      ADD      sp,sp,#0x1c
        0x000008ce:    bdf0        ..      POP      {r4-r7,pc}
        0x000008d0:    2000        .       MOVS     r0,#0
        0x000008d2:    17c1        ..      ASRS     r1,r0,#31
        0x000008d4:    4305        .C      ORRS     r5,r5,r0
        0x000008d6:    430e        .C      ORRS     r6,r6,r1
        0x000008d8:    432c        ,C      ORRS     r4,r4,r5
        0x000008da:    4337        7C      ORRS     r7,r7,r6
        0x000008dc:    9900        ..      LDR      r1,[sp,#0]
        0x000008de:    980e        ..      LDR      r0,[sp,#0x38]
        0x000008e0:    0563        c.      LSLS     r3,r4,#21
        0x000008e2:    1a40        @.      SUBS     r0,r0,r1
        0x000008e4:    0579        y.      LSLS     r1,r7,#21
        0x000008e6:    0ae4        ..      LSRS     r4,r4,#11
        0x000008e8:    2200        ."      MOVS     r2,#0
        0x000008ea:    430c        .C      ORRS     r4,r4,r1
        0x000008ec:    0afd        ..      LSRS     r5,r7,#11
        0x000008ee:    300a        .0      ADDS     r0,r0,#0xa
        0x000008f0:    d502        ..      BPL      0x8f8 ; _double_epilogue + 144
        0x000008f2:    2000        .       MOVS     r0,#0
        0x000008f4:    4601        .F      MOV      r1,r0
        0x000008f6:    e7e9        ..      B        0x8cc ; _double_epilogue + 100
        0x000008f8:    0501        ..      LSLS     r1,r0,#20
        0x000008fa:    1910        ..      ADDS     r0,r2,r4
        0x000008fc:    4169        iA      ADCS     r1,r1,r5
        0x000008fe:    9c0c        ..      LDR      r4,[sp,#0x30]
        0x00000900:    9d0d        ..      LDR      r5,[sp,#0x34]
        0x00000902:    1900        ..      ADDS     r0,r0,r4
        0x00000904:    4169        iA      ADCS     r1,r1,r5
        0x00000906:    f7ffffa2    ....    BL       _double_round ; 0x84e
        0x0000090a:    e7df        ..      B        0x8cc ; _double_epilogue + 100
    .text
    __aeabi_ddiv
        0x0000090c:    b5f0        ..      PUSH     {r4-r7,lr}
        0x0000090e:    460c        .F      MOV      r4,r1
        0x00000910:    405c        \@      EORS     r4,r4,r3
        0x00000912:    b085        ..      SUB      sp,sp,#0x14
        0x00000914:    0fe4        ..      LSRS     r4,r4,#31
        0x00000916:    07e4        ..      LSLS     r4,r4,#31
        0x00000918:    9403        ..      STR      r4,[sp,#0xc]
        0x0000091a:    004c        L.      LSLS     r4,r1,#1
        0x0000091c:    2600        .&      MOVS     r6,#0
        0x0000091e:    0864        d.      LSRS     r4,r4,#1
        0x00000920:    0059        Y.      LSLS     r1,r3,#1
        0x00000922:    4694        .F      MOV      r12,r2
        0x00000924:    0849        I.      LSRS     r1,r1,#1
        0x00000926:    4602        .F      MOV      r2,r0
        0x00000928:    9602        ..      STR      r6,[sp,#8]
        0x0000092a:    4322        "C      ORRS     r2,r2,r4
        0x0000092c:    d021        !.      BEQ      0x972 ; __aeabi_ddiv + 102
        0x0000092e:    4662        bF      MOV      r2,r12
        0x00000930:    430a        .C      ORRS     r2,r2,r1
        0x00000932:    d01e        ..      BEQ      0x972 ; __aeabi_ddiv + 102
        0x00000934:    0062        b.      LSLS     r2,r4,#1
        0x00000936:    0d57        W.      LSRS     r7,r2,#21
        0x00000938:    004a        J.      LSLS     r2,r1,#1
        0x0000093a:    030e        ..      LSLS     r6,r1,#12
        0x0000093c:    0323        #.      LSLS     r3,r4,#12
        0x0000093e:    0d55        U.      LSRS     r5,r2,#21
        0x00000940:    2401        .$      MOVS     r4,#1
        0x00000942:    4602        .F      MOV      r2,r0
        0x00000944:    492c        ,I      LDR      r1,[pc,#176] ; [0x9f8] = 0x3fd
        0x00000946:    0524        $.      LSLS     r4,r4,#20
        0x00000948:    1b78        x.      SUBS     r0,r7,r5
        0x0000094a:    0b1b        ..      LSRS     r3,r3,#12
        0x0000094c:    0b36        6.      LSRS     r6,r6,#12
        0x0000094e:    1840        @.      ADDS     r0,r0,r1
        0x00000950:    4323        #C      ORRS     r3,r3,r4
        0x00000952:    4326        &C      ORRS     r6,r6,r4
        0x00000954:    4661        aF      MOV      r1,r12
        0x00000956:    9000        ..      STR      r0,[sp,#0]
        0x00000958:    461c        .F      MOV      r4,r3
        0x0000095a:    1a50        P.      SUBS     r0,r2,r1
        0x0000095c:    41b4        .A      SBCS     r4,r4,r6
        0x0000095e:    d303        ..      BCC      0x968 ; __aeabi_ddiv + 92
        0x00000960:    9800        ..      LDR      r0,[sp,#0]
        0x00000962:    1c40        @.      ADDS     r0,r0,#1
        0x00000964:    9000        ..      STR      r0,[sp,#0]
        0x00000966:    e002        ..      B        0x96e ; __aeabi_ddiv + 98
        0x00000968:    1892        ..      ADDS     r2,r2,r2
        0x0000096a:    9800        ..      LDR      r0,[sp,#0]
        0x0000096c:    415b        [A      ADCS     r3,r3,r3
        0x0000096e:    2800        .(      CMP      r0,#0
        0x00000970:    da03        ..      BGE      0x97a ; __aeabi_ddiv + 110
        0x00000972:    2000        .       MOVS     r0,#0
        0x00000974:    4601        .F      MOV      r1,r0
        0x00000976:    b005        ..      ADD      sp,sp,#0x14
        0x00000978:    bdf0        ..      POP      {r4-r7,pc}
        0x0000097a:    2000        .       MOVS     r0,#0
        0x0000097c:    2101        .!      MOVS     r1,#1
        0x0000097e:    0509        ..      LSLS     r1,r1,#20
        0x00000980:    4607        .F      MOV      r7,r0
        0x00000982:    4686        .F      MOV      lr,r0
        0x00000984:    e011        ..      B        0x9aa ; __aeabi_ddiv + 158
        0x00000986:    4664        dF      MOV      r4,r12
        0x00000988:    461d        .F      MOV      r5,r3
        0x0000098a:    1b14        ..      SUBS     r4,r2,r4
        0x0000098c:    41b5        .A      SBCS     r5,r5,r6
        0x0000098e:    d306        ..      BCC      0x99e ; __aeabi_ddiv + 146
        0x00000990:    4665        eF      MOV      r5,r12
        0x00000992:    1b52        R.      SUBS     r2,r2,r5
        0x00000994:    41b3        .A      SBCS     r3,r3,r6
        0x00000996:    4674        tF      MOV      r4,lr
        0x00000998:    4307        .C      ORRS     r7,r7,r0
        0x0000099a:    430c        .C      ORRS     r4,r4,r1
        0x0000099c:    46a6        .F      MOV      lr,r4
        0x0000099e:    07cd        ..      LSLS     r5,r1,#31
        0x000009a0:    0840        @.      LSRS     r0,r0,#1
        0x000009a2:    0849        I.      LSRS     r1,r1,#1
        0x000009a4:    4328        (C      ORRS     r0,r0,r5
        0x000009a6:    1892        ..      ADDS     r2,r2,r2
        0x000009a8:    415b        [A      ADCS     r3,r3,r3
        0x000009aa:    4605        .F      MOV      r5,r0
        0x000009ac:    430d        .C      ORRS     r5,r5,r1
        0x000009ae:    d1ea        ..      BNE      0x986 ; __aeabi_ddiv + 122
        0x000009b0:    4610        .F      MOV      r0,r2
        0x000009b2:    4318        .C      ORRS     r0,r0,r3
        0x000009b4:    d013        ..      BEQ      0x9de ; __aeabi_ddiv + 210
        0x000009b6:    4660        `F      MOV      r0,r12
        0x000009b8:    4619        .F      MOV      r1,r3
        0x000009ba:    4050        P@      EORS     r0,r0,r2
        0x000009bc:    4071        q@      EORS     r1,r1,r6
        0x000009be:    4308        .C      ORRS     r0,r0,r1
        0x000009c0:    d006        ..      BEQ      0x9d0 ; __aeabi_ddiv + 196
        0x000009c2:    4660        `F      MOV      r0,r12
        0x000009c4:    1a10        ..      SUBS     r0,r2,r0
        0x000009c6:    41b3        .A      SBCS     r3,r3,r6
        0x000009c8:    d206        ..      BCS      0x9d8 ; __aeabi_ddiv + 204
        0x000009ca:    2201        ."      MOVS     r2,#1
        0x000009cc:    2300        .#      MOVS     r3,#0
        0x000009ce:    e006        ..      B        0x9de ; __aeabi_ddiv + 210
        0x000009d0:    2200        ."      MOVS     r2,#0
        0x000009d2:    2301        .#      MOVS     r3,#1
        0x000009d4:    07db        ..      LSLS     r3,r3,#31
        0x000009d6:    e002        ..      B        0x9de ; __aeabi_ddiv + 210
        0x000009d8:    2201        ."      MOVS     r2,#1
        0x000009da:    43d2        .C      MVNS     r2,r2
        0x000009dc:    1053        S.      ASRS     r3,r2,#1
        0x000009de:    9800        ..      LDR      r0,[sp,#0]
        0x000009e0:    4674        tF      MOV      r4,lr
        0x000009e2:    0501        ..      LSLS     r1,r0,#20
        0x000009e4:    1c38        8.      ADDS     r0,r7,#0
        0x000009e6:    4161        aA      ADCS     r1,r1,r4
        0x000009e8:    9c02        ..      LDR      r4,[sp,#8]
        0x000009ea:    9d03        ..      LDR      r5,[sp,#0xc]
        0x000009ec:    1900        ..      ADDS     r0,r0,r4
        0x000009ee:    4169        iA      ADCS     r1,r1,r5
        0x000009f0:    f7ffff2d    ..-.    BL       _double_round ; 0x84e
        0x000009f4:    e7bf        ..      B        0x976 ; __aeabi_ddiv + 106
    $d
        0x000009f6:    0000        ..      DCW    0
        0x000009f8:    000003fd    ....    DCD    1021
    $t
    .text
    __ARM_scalbn
    scalbn
        0x000009fc:    b570        p.      PUSH     {r4-r6,lr}
        0x000009fe:    004b        K.      LSLS     r3,r1,#1
        0x00000a00:    085b        [.      LSRS     r3,r3,#1
        0x00000a02:    4303        .C      ORRS     r3,r3,r0
        0x00000a04:    d00b        ..      BEQ      0xa1e ; __ARM_scalbn + 34
        0x00000a06:    004b        K.      LSLS     r3,r1,#1
        0x00000a08:    0d5c        \.      LSRS     r4,r3,#21
        0x00000a0a:    2600        .&      MOVS     r6,#0
        0x00000a0c:    4633        3F      MOV      r3,r6
        0x00000a0e:    4265        eB      RSBS     r5,r4,#0
        0x00000a10:    41b3        .A      SBCS     r3,r3,r6
        0x00000a12:    17d4        ..      ASRS     r4,r2,#31
        0x00000a14:    1aad        ..      SUBS     r5,r5,r2
        0x00000a16:    41a3        .A      SBCS     r3,r3,r4
        0x00000a18:    db02        ..      BLT      0xa20 ; __ARM_scalbn + 36
        0x00000a1a:    2000        .       MOVS     r0,#0
        0x00000a1c:    4601        .F      MOV      r1,r0
        0x00000a1e:    bd70        p.      POP      {r4-r6,pc}
        0x00000a20:    0512        ..      LSLS     r2,r2,#20
        0x00000a22:    1830        0.      ADDS     r0,r6,r0
        0x00000a24:    4151        QA      ADCS     r1,r1,r2
        0x00000a26:    bd70        p.      POP      {r4-r6,pc}
    .text
    _dsqrt
        0x00000a28:    b5fe        ..      PUSH     {r1-r7,lr}
        0x00000a2a:    2300        .#      MOVS     r3,#0
        0x00000a2c:    461a        .F      MOV      r2,r3
        0x00000a2e:    1a1b        ..      SUBS     r3,r3,r0
        0x00000a30:    418a        .A      SBCS     r2,r2,r1
        0x00000a32:    db03        ..      BLT      0xa3c ; _dsqrt + 20
        0x00000a34:    2000        .       MOVS     r0,#0
        0x00000a36:    4601        .F      MOV      r1,r0
        0x00000a38:    b003        ..      ADD      sp,sp,#0xc
        0x00000a3a:    bdf0        ..      POP      {r4-r7,pc}
        0x00000a3c:    004a        J.      LSLS     r2,r1,#1
        0x00000a3e:    030d        ..      LSLS     r5,r1,#12
        0x00000a40:    2101        .!      MOVS     r1,#1
        0x00000a42:    0b2d        -.      LSRS     r5,r5,#12
        0x00000a44:    0509        ..      LSLS     r1,r1,#20
        0x00000a46:    0d52        R.      LSRS     r2,r2,#21
        0x00000a48:    430d        .C      ORRS     r5,r5,r1
        0x00000a4a:    07d1        ..      LSLS     r1,r2,#31
        0x00000a4c:    d102        ..      BNE      0xa54 ; _dsqrt + 44
        0x00000a4e:    1800        ..      ADDS     r0,r0,r0
        0x00000a50:    416d        mA      ADCS     r5,r5,r5
        0x00000a52:    1e52        R.      SUBS     r2,r2,#1
        0x00000a54:    1051        Q.      ASRS     r1,r2,#1
        0x00000a56:    31ff        .1      ADDS     r1,r1,#0xff
        0x00000a58:    31ff        .1      ADDS     r1,r1,#0xff
        0x00000a5a:    3101        .1      ADDS     r1,#1
        0x00000a5c:    2700        .'      MOVS     r7,#0
        0x00000a5e:    4604        .F      MOV      r4,r0
        0x00000a60:    463e        >F      MOV      r6,r7
        0x00000a62:    4638        8F      MOV      r0,r7
        0x00000a64:    9700        ..      STR      r7,[sp,#0]
        0x00000a66:    9101        ..      STR      r1,[sp,#4]
        0x00000a68:    4602        .F      MOV      r2,r0
        0x00000a6a:    2101        .!      MOVS     r1,#1
        0x00000a6c:    2000        .       MOVS     r0,#0
        0x00000a6e:    0509        ..      LSLS     r1,r1,#20
        0x00000a70:    f7fffe88    ....    BL       __aeabi_llsr ; 0x784
        0x00000a74:    19c3        ..      ADDS     r3,r0,r7
        0x00000a76:    4171        qA      ADCS     r1,r1,r6
        0x00000a78:    18f8        ..      ADDS     r0,r7,r3
        0x00000a7a:    4632        2F      MOV      r2,r6
        0x00000a7c:    4684        .F      MOV      r12,r0
        0x00000a7e:    468e        .F      MOV      lr,r1
        0x00000a80:    414a        JA      ADCS     r2,r2,r1
        0x00000a82:    4661        aF      MOV      r1,r12
        0x00000a84:    4628        (F      MOV      r0,r5
        0x00000a86:    1a61        a.      SUBS     r1,r4,r1
        0x00000a88:    4190        .A      SBCS     r0,r0,r2
        0x00000a8a:    d304        ..      BCC      0xa96 ; _dsqrt + 110
        0x00000a8c:    4660        `F      MOV      r0,r12
        0x00000a8e:    1a24        $.      SUBS     r4,r4,r0
        0x00000a90:    4195        .A      SBCS     r5,r5,r2
        0x00000a92:    4676        vF      MOV      r6,lr
        0x00000a94:    461f        .F      MOV      r7,r3
        0x00000a96:    1924        $.      ADDS     r4,r4,r4
        0x00000a98:    9800        ..      LDR      r0,[sp,#0]
        0x00000a9a:    416d        mA      ADCS     r5,r5,r5
        0x00000a9c:    1c40        @.      ADDS     r0,r0,#1
        0x00000a9e:    9000        ..      STR      r0,[sp,#0]
        0x00000aa0:    2834        4(      CMP      r0,#0x34
        0x00000aa2:    dde1        ..      BLE      0xa68 ; _dsqrt + 64
        0x00000aa4:    19f9        ..      ADDS     r1,r7,r7
        0x00000aa6:    4630        0F      MOV      r0,r6
        0x00000aa8:    4170        pA      ADCS     r0,r0,r6
        0x00000aaa:    1b09        ..      SUBS     r1,r1,r4
        0x00000aac:    41a8        .A      SBCS     r0,r0,r5
        0x00000aae:    d203        ..      BCS      0xab8 ; _dsqrt + 144
        0x00000ab0:    2200        ."      MOVS     r2,#0
        0x00000ab2:    43d2        .C      MVNS     r2,r2
        0x00000ab4:    4613        .F      MOV      r3,r2
        0x00000ab6:    e001        ..      B        0xabc ; _dsqrt + 148
        0x00000ab8:    2200        ."      MOVS     r2,#0
        0x00000aba:    4613        .F      MOV      r3,r2
        0x00000abc:    9801        ..      LDR      r0,[sp,#4]
        0x00000abe:    0501        ..      LSLS     r1,r0,#20
        0x00000ac0:    1c38        8.      ADDS     r0,r7,#0
        0x00000ac2:    4171        qA      ADCS     r1,r1,r6
        0x00000ac4:    f7fffec3    ....    BL       _double_round ; 0x84e
        0x00000ac8:    e7b6        ..      B        0xa38 ; _dsqrt + 16
        0x00000aca:    0000        ..      MOVS     r0,r0
    .text
    __aeabi_i2d
        0x00000acc:    b50e        ..      PUSH     {r1-r3,lr}
        0x00000ace:    17c2        ..      ASRS     r2,r0,#31
        0x00000ad0:    0fc1        ..      LSRS     r1,r0,#31
        0x00000ad2:    4050        P@      EORS     r0,r0,r2
        0x00000ad4:    07ca        ..      LSLS     r2,r1,#31
        0x00000ad6:    1840        @.      ADDS     r0,r0,r1
        0x00000ad8:    2100        .!      MOVS     r1,#0
        0x00000ada:    4b05        .K      LDR      r3,[pc,#20] ; [0xaf0] = 0x433
        0x00000adc:    9302        ..      STR      r3,[sp,#8]
        0x00000ade:    9201        ..      STR      r2,[sp,#4]
        0x00000ae0:    9100        ..      STR      r1,[sp,#0]
        0x00000ae2:    460a        .F      MOV      r2,r1
        0x00000ae4:    460b        .F      MOV      r3,r1
        0x00000ae6:    f7fffebf    ....    BL       _double_epilogue ; 0x868
        0x00000aea:    b003        ..      ADD      sp,sp,#0xc
        0x00000aec:    bd00        ..      POP      {pc}
    $d
        0x00000aee:    0000        ..      DCW    0
        0x00000af0:    00000433    3...    DCD    1075
    $t
    .text
    __aeabi_d2ulz
        0x00000af4:    004a        J.      LSLS     r2,r1,#1
        0x00000af6:    0309        ..      LSLS     r1,r1,#12
        0x00000af8:    2301        .#      MOVS     r3,#1
        0x00000afa:    0b09        ..      LSRS     r1,r1,#12
        0x00000afc:    051b        ..      LSLS     r3,r3,#20
        0x00000afe:    4319        .C      ORRS     r1,r1,r3
        0x00000b00:    4b0a        .K      LDR      r3,[pc,#40] ; [0xb2c] = 0x3ff
        0x00000b02:    b510        ..      PUSH     {r4,lr}
        0x00000b04:    0d52        R.      LSRS     r2,r2,#21
        0x00000b06:    429a        .B      CMP      r2,r3
        0x00000b08:    da02        ..      BGE      0xb10 ; __aeabi_d2ulz + 28
        0x00000b0a:    2000        .       MOVS     r0,#0
        0x00000b0c:    4601        .F      MOV      r1,r0
        0x00000b0e:    bd10        ..      POP      {r4,pc}
        0x00000b10:    4b06        .K      LDR      r3,[pc,#24] ; [0xb2c] = 0x3ff
        0x00000b12:    3334        43      ADDS     r3,r3,#0x34
        0x00000b14:    429a        .B      CMP      r2,r3
        0x00000b16:    dc03        ..      BGT      0xb20 ; __aeabi_d2ulz + 44
        0x00000b18:    1a9a        ..      SUBS     r2,r3,r2
        0x00000b1a:    f7fffe33    ..3.    BL       __aeabi_llsr ; 0x784
        0x00000b1e:    bd10        ..      POP      {r4,pc}
        0x00000b20:    4b03        .K      LDR      r3,[pc,#12] ; [0xb30] = 0xfffffbcd
        0x00000b22:    18d2        ..      ADDS     r2,r2,r3
        0x00000b24:    f7fffe1e    ....    BL       __aeabi_llsl ; 0x764
        0x00000b28:    bd10        ..      POP      {r4,pc}
    $d
        0x00000b2a:    0000        ..      DCW    0
        0x00000b2c:    000003ff    ....    DCD    1023
        0x00000b30:    fffffbcd    ....    DCD    4294966221
    $t
    .text
    __aeabi_cdcmpeq
    __aeabi_cdcmple
        0x00000b34:    b510        ..      PUSH     {r4,lr}
        0x00000b36:    2900        .)      CMP      r1,#0
        0x00000b38:    db04        ..      BLT      0xb44 ; __aeabi_cdcmpeq + 16
        0x00000b3a:    2401        .$      MOVS     r4,#1
        0x00000b3c:    07e4        ..      LSLS     r4,r4,#31
        0x00000b3e:    4240        @B      RSBS     r0,r0,#0
        0x00000b40:    418c        .A      SBCS     r4,r4,r1
        0x00000b42:    4621        !F      MOV      r1,r4
        0x00000b44:    2b00        .+      CMP      r3,#0
        0x00000b46:    db04        ..      BLT      0xb52 ; __aeabi_cdcmpeq + 30
        0x00000b48:    461c        .F      MOV      r4,r3
        0x00000b4a:    2301        .#      MOVS     r3,#1
        0x00000b4c:    07db        ..      LSLS     r3,r3,#31
        0x00000b4e:    4252        RB      RSBS     r2,r2,#0
        0x00000b50:    41a3        .A      SBCS     r3,r3,r4
        0x00000b52:    428b        .B      CMP      r3,r1
        0x00000b54:    d100        ..      BNE      0xb58 ; __aeabi_cdcmpeq + 36
        0x00000b56:    4282        .B      CMP      r2,r0
        0x00000b58:    bd10        ..      POP      {r4,pc}
    $d
        0x00000b5a:    0000        ..      DCW    0
    $t
    .text
    __aeabi_cdrcmple
        0x00000b5c:    b510        ..      PUSH     {r4,lr}
        0x00000b5e:    2900        .)      CMP      r1,#0
        0x00000b60:    db04        ..      BLT      0xb6c ; __aeabi_cdrcmple + 16
        0x00000b62:    2401        .$      MOVS     r4,#1
        0x00000b64:    07e4        ..      LSLS     r4,r4,#31
        0x00000b66:    4240        @B      RSBS     r0,r0,#0
        0x00000b68:    418c        .A      SBCS     r4,r4,r1
        0x00000b6a:    4621        !F      MOV      r1,r4
        0x00000b6c:    2b00        .+      CMP      r3,#0
        0x00000b6e:    db04        ..      BLT      0xb7a ; __aeabi_cdrcmple + 30
        0x00000b70:    461c        .F      MOV      r4,r3
        0x00000b72:    2301        .#      MOVS     r3,#1
        0x00000b74:    07db        ..      LSLS     r3,r3,#31
        0x00000b76:    4252        RB      RSBS     r2,r2,#0
        0x00000b78:    41a3        .A      SBCS     r3,r3,r4
        0x00000b7a:    4299        .B      CMP      r1,r3
        0x00000b7c:    d100        ..      BNE      0xb80 ; __aeabi_cdrcmple + 36
        0x00000b7e:    4290        .B      CMP      r0,r2
        0x00000b80:    bd10        ..      POP      {r4,pc}
    $d
        0x00000b82:    0000        ..      DCW    0
    $t
    .text
    __scatterload
    __scatterload_rt2
        0x00000b84:    4c06        .L      LDR      r4,[pc,#24] ; [0xba0] = 0x76b8
        0x00000b86:    2501        .%      MOVS     r5,#1
        0x00000b88:    4e06        .N      LDR      r6,[pc,#24] ; [0xba4] = 0x76d8
        0x00000b8a:    e005        ..      B        0xb98 ; __scatterload + 20
        0x00000b8c:    68e3        .h      LDR      r3,[r4,#0xc]
        0x00000b8e:    cc07        ..      LDM      r4!,{r0-r2}
        0x00000b90:    432b        +C      ORRS     r3,r3,r5
        0x00000b92:    3c0c        .<      SUBS     r4,r4,#0xc
        0x00000b94:    4798        .G      BLX      r3
        0x00000b96:    3410        .4      ADDS     r4,r4,#0x10
        0x00000b98:    42b4        .B      CMP      r4,r6
        0x00000b9a:    d3f7        ..      BCC      0xb8c ; __scatterload + 8
        0x00000b9c:    f7fffa94    ....    BL       __main_after_scatterload ; 0xc8
    $d
        0x00000ba0:    000076b8    .v..    DCD    30392
        0x00000ba4:    000076d8    .v..    DCD    30424
    $t
    i.ADC_ClearIntFlag
    ADC_ClearIntFlag
        0x00000ba8:    2102        .!      MOVS     r1,#2
        0x00000baa:    4001        .@      ANDS     r1,r1,r0
        0x00000bac:    2900        .)      CMP      r1,#0
        0x00000bae:    d005        ..      BEQ      0xbbc ; ADC_ClearIntFlag + 20
        0x00000bb0:    490d        .I      LDR      r1,[pc,#52] ; [0xbe8] = 0x400e0000
        0x00000bb2:    6989        .i      LDR      r1,[r1,#0x18]
        0x00000bb4:    2280        ."      MOVS     r2,#0x80
        0x00000bb6:    4311        .C      ORRS     r1,r1,r2
        0x00000bb8:    4a0b        .J      LDR      r2,[pc,#44] ; [0xbe8] = 0x400e0000
        0x00000bba:    6191        .a      STR      r1,[r2,#0x18]
        0x00000bbc:    2104        .!      MOVS     r1,#4
        0x00000bbe:    4001        .@      ANDS     r1,r1,r0
        0x00000bc0:    2900        .)      CMP      r1,#0
        0x00000bc2:    d005        ..      BEQ      0xbd0 ; ADC_ClearIntFlag + 40
        0x00000bc4:    4908        .I      LDR      r1,[pc,#32] ; [0xbe8] = 0x400e0000
        0x00000bc6:    69c9        .i      LDR      r1,[r1,#0x1c]
        0x00000bc8:    2280        ."      MOVS     r2,#0x80
        0x00000bca:    4311        .C      ORRS     r1,r1,r2
        0x00000bcc:    4a06        .J      LDR      r2,[pc,#24] ; [0xbe8] = 0x400e0000
        0x00000bce:    61d1        .a      STR      r1,[r2,#0x1c]
        0x00000bd0:    2108        .!      MOVS     r1,#8
        0x00000bd2:    4001        .@      ANDS     r1,r1,r0
        0x00000bd4:    2900        .)      CMP      r1,#0
        0x00000bd6:    d005        ..      BEQ      0xbe4 ; ADC_ClearIntFlag + 60
        0x00000bd8:    4904        .I      LDR      r1,[pc,#16] ; [0xbec] = 0x400b0040
        0x00000bda:    6909        .i      LDR      r1,[r1,#0x10]
        0x00000bdc:    2201        ."      MOVS     r2,#1
        0x00000bde:    4311        .C      ORRS     r1,r1,r2
        0x00000be0:    4a02        .J      LDR      r2,[pc,#8] ; [0xbec] = 0x400b0040
        0x00000be2:    6111        .a      STR      r1,[r2,#0x10]
        0x00000be4:    4770        pG      BX       lr
    $d
        0x00000be6:    0000        ..      DCW    0
        0x00000be8:    400e0000    ...@    DCD    1074659328
        0x00000bec:    400b0040    @..@    DCD    1074462784
    $t
    i.ADC_EnableMICBias
    ADC_EnableMICBias
        0x00000bf0:    4903        .I      LDR      r1,[pc,#12] ; [0xc00] = 0x40080000
        0x00000bf2:    6a89        .j      LDR      r1,[r1,#0x28]
        0x00000bf4:    4a02        .J      LDR      r2,[pc,#8] ; [0xc00] = 0x40080000
        0x00000bf6:    6290        .b      STR      r0,[r2,#0x28]
        0x00000bf8:    2101        .!      MOVS     r1,#1
        0x00000bfa:    62d1        .b      STR      r1,[r2,#0x2c]
        0x00000bfc:    4770        pG      BX       lr
    $d
        0x00000bfe:    0000        ..      DCW    0
        0x00000c00:    40080000    ...@    DCD    1074266112
    $t
    i.ADC_GetIntFlag
    ADC_GetIntFlag
        0x00000c04:    4601        .F      MOV      r1,r0
        0x00000c06:    2002        .       MOVS     r0,#2
        0x00000c08:    4008        .@      ANDS     r0,r0,r1
        0x00000c0a:    2800        .(      CMP      r0,#0
        0x00000c0c:    d004        ..      BEQ      0xc18 ; ADC_GetIntFlag + 20
        0x00000c0e:    480c        .H      LDR      r0,[pc,#48] ; [0xc40] = 0x400e0000
        0x00000c10:    6980        .i      LDR      r0,[r0,#0x18]
        0x00000c12:    2280        ."      MOVS     r2,#0x80
        0x00000c14:    4010        .@      ANDS     r0,r0,r2
        0x00000c16:    4770        pG      BX       lr
        0x00000c18:    2004        .       MOVS     r0,#4
        0x00000c1a:    4008        .@      ANDS     r0,r0,r1
        0x00000c1c:    2800        .(      CMP      r0,#0
        0x00000c1e:    d004        ..      BEQ      0xc2a ; ADC_GetIntFlag + 38
        0x00000c20:    4807        .H      LDR      r0,[pc,#28] ; [0xc40] = 0x400e0000
        0x00000c22:    69c0        .i      LDR      r0,[r0,#0x1c]
        0x00000c24:    2280        ."      MOVS     r2,#0x80
        0x00000c26:    4010        .@      ANDS     r0,r0,r2
        0x00000c28:    e7f5        ..      B        0xc16 ; ADC_GetIntFlag + 18
        0x00000c2a:    2008        .       MOVS     r0,#8
        0x00000c2c:    4008        .@      ANDS     r0,r0,r1
        0x00000c2e:    2800        .(      CMP      r0,#0
        0x00000c30:    d004        ..      BEQ      0xc3c ; ADC_GetIntFlag + 56
        0x00000c32:    4804        .H      LDR      r0,[pc,#16] ; [0xc44] = 0x400b0040
        0x00000c34:    6900        .i      LDR      r0,[r0,#0x10]
        0x00000c36:    07c0        ..      LSLS     r0,r0,#31
        0x00000c38:    0fc0        ..      LSRS     r0,r0,#31
        0x00000c3a:    e7ec        ..      B        0xc16 ; ADC_GetIntFlag + 18
        0x00000c3c:    2000        .       MOVS     r0,#0
        0x00000c3e:    e7ea        ..      B        0xc16 ; ADC_GetIntFlag + 18
    $d
        0x00000c40:    400e0000    ...@    DCD    1074659328
        0x00000c44:    400b0040    @..@    DCD    1074462784
    $t
    i.ADC_IRQHandler
    ADC_IRQHandler
        0x00000c48:    b510        ..      PUSH     {r4,lr}
        0x00000c4a:    2002        .       MOVS     r0,#2
        0x00000c4c:    f7ffffda    ....    BL       ADC_GetIntFlag ; 0xc04
        0x00000c50:    2800        .(      CMP      r0,#0
        0x00000c52:    d003        ..      BEQ      0xc5c ; ADC_IRQHandler + 20
        0x00000c54:    2002        .       MOVS     r0,#2
        0x00000c56:    f7ffffa7    ....    BL       ADC_ClearIntFlag ; 0xba8
        0x00000c5a:    e007        ..      B        0xc6c ; ADC_IRQHandler + 36
        0x00000c5c:    2004        .       MOVS     r0,#4
        0x00000c5e:    f7ffffd1    ....    BL       ADC_GetIntFlag ; 0xc04
        0x00000c62:    2800        .(      CMP      r0,#0
        0x00000c64:    d002        ..      BEQ      0xc6c ; ADC_IRQHandler + 36
        0x00000c66:    2004        .       MOVS     r0,#4
        0x00000c68:    f7ffff9e    ....    BL       ADC_ClearIntFlag ; 0xba8
        0x00000c6c:    bd10        ..      POP      {r4,pc}
        0x00000c6e:    0000        ..      MOVS     r0,r0
    i.ADC_Init
    ADC_Init
        0x00000c70:    b570        p.      PUSH     {r4-r6,lr}
        0x00000c72:    482e        .H      LDR      r0,[pc,#184] ; [0xd2c] = 0x4003fe1c
        0x00000c74:    f000f8d6    ....    BL       CLK_EnableModuleClock ; 0xe24
        0x00000c78:    482d        -H      LDR      r0,[pc,#180] ; [0xd30] = 0x4000001e
        0x00000c7a:    f000f8d3    ....    BL       CLK_EnableModuleClock ; 0xe24
        0x00000c7e:    482d        -H      LDR      r0,[pc,#180] ; [0xd34] = 0x400001c
        0x00000c80:    f001f8ca    ....    BL       SYS_ResetModule ; 0x1e18
        0x00000c84:    482b        +H      LDR      r0,[pc,#172] ; [0xd34] = 0x400001c
        0x00000c86:    1c80        ..      ADDS     r0,r0,#2
        0x00000c88:    f001f8c6    ....    BL       SYS_ResetModule ; 0x1e18
        0x00000c8c:    482a        *H      LDR      r0,[pc,#168] ; [0xd38] = 0x40080040
        0x00000c8e:    6a40        @j      LDR      r0,[r0,#0x24]
        0x00000c90:    0940        @.      LSRS     r0,r0,#5
        0x00000c92:    0140        @.      LSLS     r0,r0,#5
        0x00000c94:    301e        .0      ADDS     r0,r0,#0x1e
        0x00000c96:    4928        (I      LDR      r1,[pc,#160] ; [0xd38] = 0x40080040
        0x00000c98:    6248        Hb      STR      r0,[r1,#0x24]
        0x00000c9a:    4608        .F      MOV      r0,r1
        0x00000c9c:    6a40        @j      LDR      r0,[r0,#0x24]
        0x00000c9e:    2120         !      MOVS     r1,#0x20
        0x00000ca0:    4308        .C      ORRS     r0,r0,r1
        0x00000ca2:    4925        %I      LDR      r1,[pc,#148] ; [0xd38] = 0x40080040
        0x00000ca4:    6248        Hb      STR      r0,[r1,#0x24]
        0x00000ca6:    4608        .F      MOV      r0,r1
        0x00000ca8:    6a40        @j      LDR      r0,[r0,#0x24]
        0x00000caa:    2140        @!      MOVS     r1,#0x40
        0x00000cac:    4388        .C      BICS     r0,r0,r1
        0x00000cae:    4922        "I      LDR      r1,[pc,#136] ; [0xd38] = 0x40080040
        0x00000cb0:    6248        Hb      STR      r0,[r1,#0x24]
        0x00000cb2:    4608        .F      MOV      r0,r1
        0x00000cb4:    6a00        .j      LDR      r0,[r0,#0x20]
        0x00000cb6:    2109        .!      MOVS     r1,#9
        0x00000cb8:    4388        .C      BICS     r0,r0,r1
        0x00000cba:    210e        .!      MOVS     r1,#0xe
        0x00000cbc:    4308        .C      ORRS     r0,r0,r1
        0x00000cbe:    491e        .I      LDR      r1,[pc,#120] ; [0xd38] = 0x40080040
        0x00000cc0:    6208        .b      STR      r0,[r1,#0x20]
        0x00000cc2:    2000        .       MOVS     r0,#0
        0x00000cc4:    f000f86e    ..n.    BL       ADC_SetPGAGaindB ; 0xda4
        0x00000cc8:    2004        .       MOVS     r0,#4
        0x00000cca:    491b        .I      LDR      r1,[pc,#108] ; [0xd38] = 0x40080040
        0x00000ccc:    3940        @9      SUBS     r1,r1,#0x40
        0x00000cce:    6008        .`      STR      r0,[r1,#0]
        0x00000cd0:    2000        .       MOVS     r0,#0
        0x00000cd2:    f7ffff8d    ....    BL       ADC_EnableMICBias ; 0xbf0
        0x00000cd6:    2200        ."      MOVS     r2,#0
        0x00000cd8:    4611        .F      MOV      r1,r2
        0x00000cda:    2001        .       MOVS     r0,#1
        0x00000cdc:    0340        @.      LSLS     r0,r0,#13
        0x00000cde:    f000f831    ..1.    BL       ADC_SetAMUX ; 0xd44
        0x00000ce2:    f000f82d    ..-.    BL       ADC_Open ; 0xd40
        0x00000ce6:    4815        .H      LDR      r0,[pc,#84] ; [0xd3c] = 0x400e0000
        0x00000ce8:    68c0        .h      LDR      r0,[r0,#0xc]
        0x00000cea:    0900        ..      LSRS     r0,r0,#4
        0x00000cec:    0100        ..      LSLS     r0,r0,#4
        0x00000cee:    1c80        ..      ADDS     r0,r0,#2
        0x00000cf0:    4912        .I      LDR      r1,[pc,#72] ; [0xd3c] = 0x400e0000
        0x00000cf2:    60c8        .`      STR      r0,[r1,#0xc]
        0x00000cf4:    f000f8c0    ....    BL       CLK_GetHIRCFreq ; 0xe78
        0x00000cf8:    4606        .F      MOV      r6,r0
        0x00000cfa:    217d        }!      MOVS     r1,#0x7d
        0x00000cfc:    0149        I.      LSLS     r1,r1,#5
        0x00000cfe:    f7fffa15    ....    BL       __aeabi_uidiv ; 0x12c
        0x00000d02:    4605        .F      MOV      r5,r0
        0x00000d04:    21c0        .!      MOVS     r1,#0xc0
        0x00000d06:    f7fffa11    ....    BL       __aeabi_uidiv ; 0x12c
        0x00000d0a:    4604        .F      MOV      r4,r0
        0x00000d0c:    b2e0        ..      UXTB     r0,r4
        0x00000d0e:    490b        .I      LDR      r1,[pc,#44] ; [0xd3c] = 0x400e0000
        0x00000d10:    6088        .`      STR      r0,[r1,#8]
        0x00000d12:    4608        .F      MOV      r0,r1
        0x00000d14:    6900        .i      LDR      r0,[r0,#0x10]
        0x00000d16:    08c0        ..      LSRS     r0,r0,#3
        0x00000d18:    00c0        ..      LSLS     r0,r0,#3
        0x00000d1a:    1dc0        ..      ADDS     r0,r0,#7
        0x00000d1c:    6108        .a      STR      r0,[r1,#0x10]
        0x00000d1e:    4806        .H      LDR      r0,[pc,#24] ; [0xd38] = 0x40080040
        0x00000d20:    6a40        @j      LDR      r0,[r0,#0x24]
        0x00000d22:    2120         !      MOVS     r1,#0x20
        0x00000d24:    4388        .C      BICS     r0,r0,r1
        0x00000d26:    4904        .I      LDR      r1,[pc,#16] ; [0xd38] = 0x40080040
        0x00000d28:    6248        Hb      STR      r0,[r1,#0x24]
        0x00000d2a:    bd70        p.      POP      {r4-r6,pc}
    $d
        0x00000d2c:    4003fe1c    ...@    DCD    1074003484
        0x00000d30:    4000001e    ...@    DCD    1073741854
        0x00000d34:    0400001c    ....    DCD    67108892
        0x00000d38:    40080040    @..@    DCD    1074266176
        0x00000d3c:    400e0000    ...@    DCD    1074659328
    $t
    i.ADC_Open
    ADC_Open
        0x00000d40:    4770        pG      BX       lr
        0x00000d42:    0000        ..      MOVS     r0,r0
    i.ADC_SetAMUX
    ADC_SetAMUX
        0x00000d44:    b510        ..      PUSH     {r4,lr}
        0x00000d46:    4b15        .K      LDR      r3,[pc,#84] ; [0xd9c] = 0x40080040
        0x00000d48:    691b        .i      LDR      r3,[r3,#0x10]
        0x00000d4a:    2300        .#      MOVS     r3,#0
        0x00000d4c:    4c13        .L      LDR      r4,[pc,#76] ; [0xd9c] = 0x40080040
        0x00000d4e:    6123        #a      STR      r3,[r4,#0x10]
        0x00000d50:    2301        .#      MOVS     r3,#1
        0x00000d52:    035b        [.      LSLS     r3,r3,#13
        0x00000d54:    4298        .B      CMP      r0,r3
        0x00000d56:    d107        ..      BNE      0xd68 ; ADC_SetAMUX + 36
        0x00000d58:    4623        #F      MOV      r3,r4
        0x00000d5a:    691b        .i      LDR      r3,[r3,#0x10]
        0x00000d5c:    2403        .$      MOVS     r4,#3
        0x00000d5e:    0364        d.      LSLS     r4,r4,#13
        0x00000d60:    4323        #C      ORRS     r3,r3,r4
        0x00000d62:    4c0e        .L      LDR      r4,[pc,#56] ; [0xd9c] = 0x40080040
        0x00000d64:    6123        #a      STR      r3,[r4,#0x10]
        0x00000d66:    e017        ..      B        0xd98 ; ADC_SetAMUX + 84
        0x00000d68:    2301        .#      MOVS     r3,#1
        0x00000d6a:    031b        ..      LSLS     r3,r3,#12
        0x00000d6c:    4298        .B      CMP      r0,r3
        0x00000d6e:    d107        ..      BNE      0xd80 ; ADC_SetAMUX + 60
        0x00000d70:    4b0a        .K      LDR      r3,[pc,#40] ; [0xd9c] = 0x40080040
        0x00000d72:    691b        .i      LDR      r3,[r3,#0x10]
        0x00000d74:    2405        .$      MOVS     r4,#5
        0x00000d76:    0324        $.      LSLS     r4,r4,#12
        0x00000d78:    4323        #C      ORRS     r3,r3,r4
        0x00000d7a:    4c08        .L      LDR      r4,[pc,#32] ; [0xd9c] = 0x40080040
        0x00000d7c:    6123        #a      STR      r3,[r4,#0x10]
        0x00000d7e:    e00b        ..      B        0xd98 ; ADC_SetAMUX + 84
        0x00000d80:    4b07        .K      LDR      r3,[pc,#28] ; [0xda0] = 0xfff
        0x00000d82:    4298        .B      CMP      r0,r3
        0x00000d84:    d108        ..      BNE      0xd98 ; ADC_SetAMUX + 84
        0x00000d86:    4b05        .K      LDR      r3,[pc,#20] ; [0xd9c] = 0x40080040
        0x00000d88:    691c        .i      LDR      r4,[r3,#0x10]
        0x00000d8a:    2301        .#      MOVS     r3,#1
        0x00000d8c:    039b        ..      LSLS     r3,r3,#14
        0x00000d8e:    430b        .C      ORRS     r3,r3,r1
        0x00000d90:    4313        .C      ORRS     r3,r3,r2
        0x00000d92:    431c        .C      ORRS     r4,r4,r3
        0x00000d94:    4b01        .K      LDR      r3,[pc,#4] ; [0xd9c] = 0x40080040
        0x00000d96:    611c        .a      STR      r4,[r3,#0x10]
        0x00000d98:    bd10        ..      POP      {r4,pc}
    $d
        0x00000d9a:    0000        ..      DCW    0
        0x00000d9c:    40080040    @..@    DCD    1074266176
        0x00000da0:    00000fff    ....    DCD    4095
    $t
    i.ADC_SetPGAGaindB
    ADC_SetPGAGaindB
        0x00000da4:    b510        ..      PUSH     {r4,lr}
        0x00000da6:    4604        .F      MOV      r4,r0
        0x00000da8:    480b        .H      LDR      r0,[pc,#44] ; [0xdd8] = 0xfffffb50
        0x00000daa:    4284        .B      CMP      r4,r0
        0x00000dac:    da01        ..      BGE      0xdb2 ; ADC_SetPGAGaindB + 14
        0x00000dae:    4604        .F      MOV      r4,r0
        0x00000db0:    e003        ..      B        0xdba ; ADC_SetPGAGaindB + 22
        0x00000db2:    480a        .H      LDR      r0,[pc,#40] ; [0xddc] = 0xdc5
        0x00000db4:    4284        .B      CMP      r4,r0
        0x00000db6:    dd00        ..      BLE      0xdba ; ADC_SetPGAGaindB + 22
        0x00000db8:    4604        .F      MOV      r4,r0
        0x00000dba:    214b        K!      MOVS     r1,#0x4b
        0x00000dbc:    0108        ..      LSLS     r0,r1,#4
        0x00000dbe:    1820         .      ADDS     r0,r4,r0
        0x00000dc0:    f7fff9ca    ....    BL       __aeabi_idiv ; 0x158
        0x00000dc4:    0684        ..      LSLS     r4,r0,#26
        0x00000dc6:    0ea4        ..      LSRS     r4,r4,#26
        0x00000dc8:    4805        .H      LDR      r0,[pc,#20] ; [0xde0] = 0x40080040
        0x00000dca:    6284        .b      STR      r4,[r0,#0x28]
        0x00000dcc:    204b        K       MOVS     r0,#0x4b
        0x00000dce:    4360        `C      MULS     r0,r4,r0
        0x00000dd0:    214b        K!      MOVS     r1,#0x4b
        0x00000dd2:    0109        ..      LSLS     r1,r1,#4
        0x00000dd4:    1a40        @.      SUBS     r0,r0,r1
        0x00000dd6:    bd10        ..      POP      {r4,pc}
    $d
        0x00000dd8:    fffffb50    P...    DCD    4294966096
        0x00000ddc:    00000dc5    ....    DCD    3525
        0x00000de0:    40080040    @..@    DCD    1074266176
    $t
    i.CLK_EnableLDO
    CLK_EnableLDO
        0x00000de4:    b570        p.      PUSH     {r4-r6,lr}
        0x00000de6:    4604        .F      MOV      r4,r0
        0x00000de8:    f001f82e    ....    BL       SYS_Unlock ; 0x1e48
        0x00000dec:    4605        .F      MOV      r5,r0
        0x00000dee:    480b        .H      LDR      r0,[pc,#44] ; [0xe1c] = 0x50000200
        0x00000df0:    6880        .h      LDR      r0,[r0,#8]
        0x00000df2:    2101        .!      MOVS     r1,#1
        0x00000df4:    0789        ..      LSLS     r1,r1,#30
        0x00000df6:    4308        .C      ORRS     r0,r0,r1
        0x00000df8:    4908        .I      LDR      r1,[pc,#32] ; [0xe1c] = 0x50000200
        0x00000dfa:    6088        .`      STR      r0,[r1,#8]
        0x00000dfc:    4808        .H      LDR      r0,[pc,#32] ; [0xe20] = 0x40080000
        0x00000dfe:    6a40        @j      LDR      r0,[r0,#0x24]
        0x00000e00:    0840        @.      LSRS     r0,r0,#1
        0x00000e02:    0040        @.      LSLS     r0,r0,#1
        0x00000e04:    4906        .I      LDR      r1,[pc,#24] ; [0xe20] = 0x40080000
        0x00000e06:    6248        Hb      STR      r0,[r1,#0x24]
        0x00000e08:    4608        .F      MOV      r0,r1
        0x00000e0a:    6a00        .j      LDR      r0,[r0,#0x20]
        0x00000e0c:    0880        ..      LSRS     r0,r0,#2
        0x00000e0e:    0080        ..      LSLS     r0,r0,#2
        0x00000e10:    4320         C      ORRS     r0,r0,r4
        0x00000e12:    6208        .b      STR      r0,[r1,#0x20]
        0x00000e14:    4628        (F      MOV      r0,r5
        0x00000e16:    f000fff1    ....    BL       SYS_Lock ; 0x1dfc
        0x00000e1a:    bd70        p.      POP      {r4-r6,pc}
    $d
        0x00000e1c:    50000200    ...P    DCD    1342177792
        0x00000e20:    40080000    ...@    DCD    1074266112
    $t
    i.CLK_EnableModuleClock
    CLK_EnableModuleClock
        0x00000e24:    0f81        ..      LSRS     r1,r0,#30
        0x00000e26:    0089        ..      LSLS     r1,r1,#2
        0x00000e28:    4a06        .J      LDR      r2,[pc,#24] ; [0xe44] = 0x50000200
        0x00000e2a:    1889        ..      ADDS     r1,r1,r2
        0x00000e2c:    6849        Ih      LDR      r1,[r1,#4]
        0x00000e2e:    06c3        ..      LSLS     r3,r0,#27
        0x00000e30:    0edb        ..      LSRS     r3,r3,#27
        0x00000e32:    2201        ."      MOVS     r2,#1
        0x00000e34:    409a        .@      LSLS     r2,r2,r3
        0x00000e36:    4311        .C      ORRS     r1,r1,r2
        0x00000e38:    0f82        ..      LSRS     r2,r0,#30
        0x00000e3a:    0092        ..      LSLS     r2,r2,#2
        0x00000e3c:    4b01        .K      LDR      r3,[pc,#4] ; [0xe44] = 0x50000200
        0x00000e3e:    18d2        ..      ADDS     r2,r2,r3
        0x00000e40:    6051        Q`      STR      r1,[r2,#4]
        0x00000e42:    4770        pG      BX       lr
    $d
        0x00000e44:    50000200    ...P    DCD    1342177792
    $t
    i.CLK_EnableXtalRC
    CLK_EnableXtalRC
        0x00000e48:    b570        p.      PUSH     {r4-r6,lr}
        0x00000e4a:    4604        .F      MOV      r4,r0
        0x00000e4c:    f000fffc    ....    BL       SYS_Unlock ; 0x1e48
        0x00000e50:    4605        .F      MOV      r5,r0
        0x00000e52:    4804        .H      LDR      r0,[pc,#16] ; [0xe64] = 0x50000200
        0x00000e54:    6800        .h      LDR      r0,[r0,#0]
        0x00000e56:    4320         C      ORRS     r0,r0,r4
        0x00000e58:    4902        .I      LDR      r1,[pc,#8] ; [0xe64] = 0x50000200
        0x00000e5a:    6008        .`      STR      r0,[r1,#0]
        0x00000e5c:    4628        (F      MOV      r0,r5
        0x00000e5e:    f000ffcd    ....    BL       SYS_Lock ; 0x1dfc
        0x00000e62:    bd70        p.      POP      {r4-r6,pc}
    $d
        0x00000e64:    50000200    ...P    DCD    1342177792
    $t
    i.CLK_GetHCLKFreq
    CLK_GetHCLKFreq
        0x00000e68:    b510        ..      PUSH     {r4,lr}
        0x00000e6a:    f001f867    ..g.    BL       SystemCoreClockUpdate ; 0x1f3c
        0x00000e6e:    4801        .H      LDR      r0,[pc,#4] ; [0xe74] = 0x20000000
        0x00000e70:    6800        .h      LDR      r0,[r0,#0]
        0x00000e72:    bd10        ..      POP      {r4,pc}
    $d
        0x00000e74:    20000000    ...     DCD    536870912
    $t
    i.CLK_GetHIRCFreq
    CLK_GetHIRCFreq
        0x00000e78:    4804        .H      LDR      r0,[pc,#16] ; [0xe8c] = 0x50000200
        0x00000e7a:    6900        .i      LDR      r0,[r0,#0x10]
        0x00000e7c:    2140        @!      MOVS     r1,#0x40
        0x00000e7e:    4008        .@      ANDS     r0,r0,r1
        0x00000e80:    0980        ..      LSRS     r0,r0,#6
        0x00000e82:    0080        ..      LSLS     r0,r0,#2
        0x00000e84:    4902        .I      LDR      r1,[pc,#8] ; [0xe90] = 0x20000014
        0x00000e86:    5808        .X      LDR      r0,[r1,r0]
        0x00000e88:    4770        pG      BX       lr
    $d
        0x00000e8a:    0000        ..      DCW    0
        0x00000e8c:    50000200    ...P    DCD    1342177792
        0x00000e90:    20000014    ...     DCD    536870932
    $t
    i.CLK_SetHCLK
    CLK_SetHCLK
        0x00000e94:    b5f8        ..      PUSH     {r3-r7,lr}
        0x00000e96:    4604        .F      MOV      r4,r0
        0x00000e98:    460d        .F      MOV      r5,r1
        0x00000e9a:    4616        .F      MOV      r6,r2
        0x00000e9c:    f000ffd4    ....    BL       SYS_Unlock ; 0x1e48
        0x00000ea0:    4607        .F      MOV      r7,r0
        0x00000ea2:    480d        .H      LDR      r0,[pc,#52] ; [0xed8] = 0x50000200
        0x00000ea4:    6900        .i      LDR      r0,[r0,#0x10]
        0x00000ea6:    2147        G!      MOVS     r1,#0x47
        0x00000ea8:    4388        .C      BICS     r0,r0,r1
        0x00000eaa:    4320         C      ORRS     r0,r0,r4
        0x00000eac:    4328        (C      ORRS     r0,r0,r5
        0x00000eae:    490a        .I      LDR      r1,[pc,#40] ; [0xed8] = 0x50000200
        0x00000eb0:    6108        .a      STR      r0,[r1,#0x10]
        0x00000eb2:    4608        .F      MOV      r0,r1
        0x00000eb4:    6900        .i      LDR      r0,[r0,#0x10]
        0x00000eb6:    08c0        ..      LSRS     r0,r0,#3
        0x00000eb8:    00c0        ..      LSLS     r0,r0,#3
        0x00000eba:    4320         C      ORRS     r0,r0,r4
        0x00000ebc:    6108        .a      STR      r0,[r1,#0x10]
        0x00000ebe:    4608        .F      MOV      r0,r1
        0x00000ec0:    6980        .i      LDR      r0,[r0,#0x18]
        0x00000ec2:    0900        ..      LSRS     r0,r0,#4
        0x00000ec4:    0100        ..      LSLS     r0,r0,#4
        0x00000ec6:    4330        0C      ORRS     r0,r0,r6
        0x00000ec8:    6188        .a      STR      r0,[r1,#0x18]
        0x00000eca:    4638        8F      MOV      r0,r7
        0x00000ecc:    f000ff96    ....    BL       SYS_Lock ; 0x1dfc
        0x00000ed0:    f001f834    ..4.    BL       SystemCoreClockUpdate ; 0x1f3c
        0x00000ed4:    bdf8        ..      POP      {r3-r7,pc}
    $d
        0x00000ed6:    0000        ..      DCW    0
        0x00000ed8:    50000200    ...P    DCD    1342177792
    $t
    i.CLK_SetModuleClock
    CLK_SetModuleClock
        0x00000edc:    b5f0        ..      PUSH     {r4-r7,lr}
        0x00000ede:    460b        .F      MOV      r3,r1
        0x00000ee0:    2100        .!      MOVS     r1,#0
        0x00000ee2:    2400        .$      MOVS     r4,#0
        0x00000ee4:    2500        .%      MOVS     r5,#0
        0x00000ee6:    0386        ..      LSLS     r6,r0,#14
        0x00000ee8:    0e36        6.      LSRS     r6,r6,#24
        0x00000eea:    2e00        ..      CMP      r6,#0
        0x00000eec:    d00f        ..      BEQ      0xf0e ; CLK_SetModuleClock + 50
        0x00000eee:    0306        ..      LSLS     r6,r0,#12
        0x00000ef0:    0fb6        ..      LSRS     r6,r6,#30
        0x00000ef2:    00b6        ..      LSLS     r6,r6,#2
        0x00000ef4:    4f11        .O      LDR      r7,[pc,#68] ; [0xf3c] = 0x50000218
        0x00000ef6:    19f5        ..      ADDS     r5,r6,r7
        0x00000ef8:    6829        )h      LDR      r1,[r5,#0]
        0x00000efa:    0386        ..      LSLS     r6,r0,#14
        0x00000efc:    0e37        7.      LSRS     r7,r6,#24
        0x00000efe:    0586        ..      LSLS     r6,r0,#22
        0x00000f00:    0ef6        ..      LSRS     r6,r6,#27
        0x00000f02:    40b7        .@      LSLS     r7,r7,r6
        0x00000f04:    460e        .F      MOV      r6,r1
        0x00000f06:    43be        .C      BICS     r6,r6,r7
        0x00000f08:    4316        .C      ORRS     r6,r6,r2
        0x00000f0a:    4631        1F      MOV      r1,r6
        0x00000f0c:    6029        )`      STR      r1,[r5,#0]
        0x00000f0e:    0106        ..      LSLS     r6,r0,#4
        0x00000f10:    0f76        v.      LSRS     r6,r6,#29
        0x00000f12:    2e00        ..      CMP      r6,#0
        0x00000f14:    d010        ..      BEQ      0xf38 ; CLK_SetModuleClock + 92
        0x00000f16:    0086        ..      LSLS     r6,r0,#2
        0x00000f18:    0fb6        ..      LSRS     r6,r6,#30
        0x00000f1a:    00b6        ..      LSLS     r6,r6,#2
        0x00000f1c:    4f07        .O      LDR      r7,[pc,#28] ; [0xf3c] = 0x50000218
        0x00000f1e:    3f08        .?      SUBS     r7,r7,#8
        0x00000f20:    19f4        ..      ADDS     r4,r6,r7
        0x00000f22:    6821        !h      LDR      r1,[r4,#0]
        0x00000f24:    0106        ..      LSLS     r6,r0,#4
        0x00000f26:    0f77        w.      LSRS     r7,r6,#29
        0x00000f28:    01c6        ..      LSLS     r6,r0,#7
        0x00000f2a:    0ef6        ..      LSRS     r6,r6,#27
        0x00000f2c:    40b7        .@      LSLS     r7,r7,r6
        0x00000f2e:    460e        .F      MOV      r6,r1
        0x00000f30:    43be        .C      BICS     r6,r6,r7
        0x00000f32:    431e        .C      ORRS     r6,r6,r3
        0x00000f34:    4631        1F      MOV      r1,r6
        0x00000f36:    6021        !`      STR      r1,[r4,#0]
        0x00000f38:    bdf0        ..      POP      {r4-r7,pc}
    $d
        0x00000f3a:    0000        ..      DCW    0
        0x00000f3c:    50000218    ...P    DCD    1342177816
    $t
    i.FMC_Close
    FMC_Close
        0x00000f40:    4803        .H      LDR      r0,[pc,#12] ; [0xf50] = 0x5000c000
        0x00000f42:    6800        .h      LDR      r0,[r0,#0]
        0x00000f44:    0840        @.      LSRS     r0,r0,#1
        0x00000f46:    0040        @.      LSLS     r0,r0,#1
        0x00000f48:    4901        .I      LDR      r1,[pc,#4] ; [0xf50] = 0x5000c000
        0x00000f4a:    6008        .`      STR      r0,[r1,#0]
        0x00000f4c:    4770        pG      BX       lr
    $d
        0x00000f4e:    0000        ..      DCW    0
        0x00000f50:    5000c000    ...P    DCD    1342226432
    $t
    i.FMC_DisableLDUpdate
    FMC_DisableLDUpdate
        0x00000f54:    4803        .H      LDR      r0,[pc,#12] ; [0xf64] = 0x5000c000
        0x00000f56:    6800        .h      LDR      r0,[r0,#0]
        0x00000f58:    2120         !      MOVS     r1,#0x20
        0x00000f5a:    4388        .C      BICS     r0,r0,r1
        0x00000f5c:    4901        .I      LDR      r1,[pc,#4] ; [0xf64] = 0x5000c000
        0x00000f5e:    6008        .`      STR      r0,[r1,#0]
        0x00000f60:    4770        pG      BX       lr
    $d
        0x00000f62:    0000        ..      DCW    0
        0x00000f64:    5000c000    ...P    DCD    1342226432
    $t
    i.FMC_EnableLDUpdate
    FMC_EnableLDUpdate
        0x00000f68:    4803        .H      LDR      r0,[pc,#12] ; [0xf78] = 0x5000c000
        0x00000f6a:    6800        .h      LDR      r0,[r0,#0]
        0x00000f6c:    2120         !      MOVS     r1,#0x20
        0x00000f6e:    4308        .C      ORRS     r0,r0,r1
        0x00000f70:    4901        .I      LDR      r1,[pc,#4] ; [0xf78] = 0x5000c000
        0x00000f72:    6008        .`      STR      r0,[r1,#0]
        0x00000f74:    4770        pG      BX       lr
    $d
        0x00000f76:    0000        ..      DCW    0
        0x00000f78:    5000c000    ...P    DCD    1342226432
    $t
    i.FMC_Erase
    FMC_Erase
        0x00000f7c:    4601        .F      MOV      r1,r0
        0x00000f7e:    2022        "       MOVS     r0,#0x22
        0x00000f80:    4a0f        .J      LDR      r2,[pc,#60] ; [0xfc0] = 0x5000c000
        0x00000f82:    60d0        .`      STR      r0,[r2,#0xc]
        0x00000f84:    4610        .F      MOV      r0,r2
        0x00000f86:    6041        A`      STR      r1,[r0,#4]
        0x00000f88:    b672        r.      CPSID    i
        0x00000f8a:    480d        .H      LDR      r0,[pc,#52] ; [0xfc0] = 0x5000c000
        0x00000f8c:    6900        .i      LDR      r0,[r0,#0x10]
        0x00000f8e:    0840        @.      LSRS     r0,r0,#1
        0x00000f90:    0040        @.      LSLS     r0,r0,#1
        0x00000f92:    1c40        @.      ADDS     r0,r0,#1
        0x00000f94:    4a0a        .J      LDR      r2,[pc,#40] ; [0xfc0] = 0x5000c000
        0x00000f96:    6110        .a      STR      r0,[r2,#0x10]
        0x00000f98:    f3bf8f6f    ..o.    ISB      
        0x00000f9c:    b662        b.      CPSIE    i
        0x00000f9e:    4808        .H      LDR      r0,[pc,#32] ; [0xfc0] = 0x5000c000
        0x00000fa0:    6800        .h      LDR      r0,[r0,#0]
        0x00000fa2:    2240        @"      MOVS     r2,#0x40
        0x00000fa4:    4010        .@      ANDS     r0,r0,r2
        0x00000fa6:    2800        .(      CMP      r0,#0
        0x00000fa8:    d008        ..      BEQ      0xfbc ; FMC_Erase + 64
        0x00000faa:    4805        .H      LDR      r0,[pc,#20] ; [0xfc0] = 0x5000c000
        0x00000fac:    6800        .h      LDR      r0,[r0,#0]
        0x00000fae:    4390        .C      BICS     r0,r0,r2
        0x00000fb0:    3040        @0      ADDS     r0,r0,#0x40
        0x00000fb2:    4a03        .J      LDR      r2,[pc,#12] ; [0xfc0] = 0x5000c000
        0x00000fb4:    6010        .`      STR      r0,[r2,#0]
        0x00000fb6:    2000        .       MOVS     r0,#0
        0x00000fb8:    43c0        .C      MVNS     r0,r0
        0x00000fba:    4770        pG      BX       lr
        0x00000fbc:    2000        .       MOVS     r0,#0
        0x00000fbe:    e7fc        ..      B        0xfba ; FMC_Erase + 62
    $d
        0x00000fc0:    5000c000    ...P    DCD    1342226432
    $t
    i.FMC_Open
    FMC_Open
        0x00000fc4:    4803        .H      LDR      r0,[pc,#12] ; [0xfd4] = 0x5000c000
        0x00000fc6:    6800        .h      LDR      r0,[r0,#0]
        0x00000fc8:    2101        .!      MOVS     r1,#1
        0x00000fca:    4308        .C      ORRS     r0,r0,r1
        0x00000fcc:    4901        .I      LDR      r1,[pc,#4] ; [0xfd4] = 0x5000c000
        0x00000fce:    6008        .`      STR      r0,[r1,#0]
        0x00000fd0:    4770        pG      BX       lr
    $d
        0x00000fd2:    0000        ..      DCW    0
        0x00000fd4:    5000c000    ...P    DCD    1342226432
    $t
    i.FMC_Read
    FMC_Read
        0x00000fd8:    4601        .F      MOV      r1,r0
        0x00000fda:    2000        .       MOVS     r0,#0
        0x00000fdc:    4a06        .J      LDR      r2,[pc,#24] ; [0xff8] = 0x5000c000
        0x00000fde:    60d0        .`      STR      r0,[r2,#0xc]
        0x00000fe0:    4610        .F      MOV      r0,r2
        0x00000fe2:    6041        A`      STR      r1,[r0,#4]
        0x00000fe4:    6900        .i      LDR      r0,[r0,#0x10]
        0x00000fe6:    0840        @.      LSRS     r0,r0,#1
        0x00000fe8:    0040        @.      LSLS     r0,r0,#1
        0x00000fea:    1c40        @.      ADDS     r0,r0,#1
        0x00000fec:    6110        .a      STR      r0,[r2,#0x10]
        0x00000fee:    f3bf8f6f    ..o.    ISB      
        0x00000ff2:    4610        .F      MOV      r0,r2
        0x00000ff4:    6880        .h      LDR      r0,[r0,#8]
        0x00000ff6:    4770        pG      BX       lr
    $d
        0x00000ff8:    5000c000    ...P    DCD    1342226432
    $t
    i.FMC_Write
    FMC_Write
        0x00000ffc:    2221        !"      MOVS     r2,#0x21
        0x00000ffe:    4b08        .K      LDR      r3,[pc,#32] ; [0x1020] = 0x5000c000
        0x00001000:    60da        .`      STR      r2,[r3,#0xc]
        0x00001002:    461a        .F      MOV      r2,r3
        0x00001004:    6050        P`      STR      r0,[r2,#4]
        0x00001006:    6091        .`      STR      r1,[r2,#8]
        0x00001008:    b672        r.      CPSID    i
        0x0000100a:    4a05        .J      LDR      r2,[pc,#20] ; [0x1020] = 0x5000c000
        0x0000100c:    6912        .i      LDR      r2,[r2,#0x10]
        0x0000100e:    0852        R.      LSRS     r2,r2,#1
        0x00001010:    0052        R.      LSLS     r2,r2,#1
        0x00001012:    1c52        R.      ADDS     r2,r2,#1
        0x00001014:    4b02        .K      LDR      r3,[pc,#8] ; [0x1020] = 0x5000c000
        0x00001016:    611a        .a      STR      r2,[r3,#0x10]
        0x00001018:    f3bf8f6f    ..o.    ISB      
        0x0000101c:    b662        b.      CPSIE    i
        0x0000101e:    4770        pG      BX       lr
    $d
        0x00001020:    5000c000    ...P    DCD    1342226432
    $t
    i.Flash_Erase
    Flash_Erase
        0x00001024:    b570        p.      PUSH     {r4-r6,lr}
        0x00001026:    4605        .F      MOV      r5,r0
        0x00001028:    460e        .F      MOV      r6,r1
        0x0000102a:    462c        ,F      MOV      r4,r5
        0x0000102c:    e005        ..      B        0x103a ; Flash_Erase + 22
        0x0000102e:    4620         F      MOV      r0,r4
        0x00001030:    f7ffffa4    ....    BL       FMC_Erase ; 0xf7c
        0x00001034:    2001        .       MOVS     r0,#1
        0x00001036:    0280        ..      LSLS     r0,r0,#10
        0x00001038:    1824        $.      ADDS     r4,r4,r0
        0x0000103a:    42b4        .B      CMP      r4,r6
        0x0000103c:    d3f7        ..      BCC      0x102e ; Flash_Erase + 10
        0x0000103e:    bd70        p.      POP      {r4-r6,pc}
    i.Flash_Read
    Flash_Read
        0x00001040:    b570        p.      PUSH     {r4-r6,lr}
        0x00001042:    4604        .F      MOV      r4,r0
        0x00001044:    4620         F      MOV      r0,r4
        0x00001046:    f7ffffc7    ....    BL       FMC_Read ; 0xfd8
        0x0000104a:    4605        .F      MOV      r5,r0
        0x0000104c:    4628        (F      MOV      r0,r5
        0x0000104e:    bd70        p.      POP      {r4-r6,pc}
    i.Flash_Write
    Flash_Write
        0x00001050:    b5ff        ..      PUSH     {r0-r7,lr}
        0x00001052:    b081        ..      SUB      sp,sp,#4
        0x00001054:    4606        .F      MOV      r6,r0
        0x00001056:    460f        .F      MOV      r7,r1
        0x00001058:    2400        .$      MOVS     r4,#0
        0x0000105a:    e011        ..      B        0x1080 ; Flash_Write + 48
        0x0000105c:    00a0        ..      LSLS     r0,r4,#2
        0x0000105e:    1985        ..      ADDS     r5,r0,r6
        0x00001060:    42bd        .B      CMP      r5,r7
        0x00001062:    d208        ..      BCS      0x1076 ; Flash_Write + 38
        0x00001064:    0061        a.      LSLS     r1,r4,#1
        0x00001066:    9803        ..      LDR      r0,[sp,#0xc]
        0x00001068:    5e40        @^      LDRSH    r0,[r0,r1]
        0x0000106a:    9000        ..      STR      r0,[sp,#0]
        0x0000106c:    4628        (F      MOV      r0,r5
        0x0000106e:    9900        ..      LDR      r1,[sp,#0]
        0x00001070:    f7ffffc4    ....    BL       FMC_Write ; 0xffc
        0x00001074:    e003        ..      B        0x107e ; Flash_Write + 46
        0x00001076:    2101        .!      MOVS     r1,#1
        0x00001078:    980a        ..      LDR      r0,[sp,#0x28]
        0x0000107a:    8001        ..      STRH     r1,[r0,#0]
        0x0000107c:    e003        ..      B        0x1086 ; Flash_Write + 54
        0x0000107e:    1c64        d.      ADDS     r4,r4,#1
        0x00001080:    9804        ..      LDR      r0,[sp,#0x10]
        0x00001082:    4284        .B      CMP      r4,r0
        0x00001084:    d3ea        ..      BCC      0x105c ; Flash_Write + 12
        0x00001086:    bf00        ..      NOP      
        0x00001088:    4620         F      MOV      r0,r4
        0x0000108a:    b005        ..      ADD      sp,sp,#0x14
        0x0000108c:    bdf0        ..      POP      {r4-r7,pc}
    i.Flash_Write4B
    Flash_Write4B
        0x0000108e:    b570        p.      PUSH     {r4-r6,lr}
        0x00001090:    4604        .F      MOV      r4,r0
        0x00001092:    460d        .F      MOV      r5,r1
        0x00001094:    4629        )F      MOV      r1,r5
        0x00001096:    4620         F      MOV      r0,r4
        0x00001098:    f7ffffb0    ....    BL       FMC_Write ; 0xffc
        0x0000109c:    bd70        p.      POP      {r4-r6,pc}
    i.GPIO_SetMode
    GPIO_SetMode
        0x0000109e:    b570        p.      PUSH     {r4-r6,lr}
        0x000010a0:    4603        .F      MOV      r3,r0
        0x000010a2:    2000        .       MOVS     r0,#0
        0x000010a4:    e00f        ..      B        0x10c6 ; GPIO_SetMode + 40
        0x000010a6:    2401        .$      MOVS     r4,#1
        0x000010a8:    4084        .@      LSLS     r4,r4,r0
        0x000010aa:    400c        .@      ANDS     r4,r4,r1
        0x000010ac:    2c00        .,      CMP      r4,#0
        0x000010ae:    d009        ..      BEQ      0x10c4 ; GPIO_SetMode + 38
        0x000010b0:    681c        .h      LDR      r4,[r3,#0]
        0x000010b2:    0046        F.      LSLS     r6,r0,#1
        0x000010b4:    2503        .%      MOVS     r5,#3
        0x000010b6:    40b5        .@      LSLS     r5,r5,r6
        0x000010b8:    43ac        .C      BICS     r4,r4,r5
        0x000010ba:    0046        F.      LSLS     r6,r0,#1
        0x000010bc:    4615        .F      MOV      r5,r2
        0x000010be:    40b5        .@      LSLS     r5,r5,r6
        0x000010c0:    432c        ,C      ORRS     r4,r4,r5
        0x000010c2:    601c        .`      STR      r4,[r3,#0]
        0x000010c4:    1c40        @.      ADDS     r0,r0,#1
        0x000010c6:    2810        .(      CMP      r0,#0x10
        0x000010c8:    d3ed        ..      BCC      0x10a6 ; GPIO_SetMode + 8
        0x000010ca:    bd70        p.      POP      {r4-r6,pc}
    i.Init_InKey
    Init_InKey
        0x000010cc:    b5f0        ..      PUSH     {r4-r7,lr}
        0x000010ce:    b087        ..      SUB      sp,sp,#0x1c
        0x000010d0:    2203        ."      MOVS     r2,#3
        0x000010d2:    2100        .!      MOVS     r1,#0
        0x000010d4:    4843        CH      LDR      r0,[pc,#268] ; [0x11e4] = 0x50004000
        0x000010d6:    f7ffffe2    ....    BL       GPIO_SetMode ; 0x109e
        0x000010da:    2203        ."      MOVS     r2,#3
        0x000010dc:    21cf        .!      MOVS     r1,#0xcf
        0x000010de:    4841        AH      LDR      r0,[pc,#260] ; [0x11e4] = 0x50004000
        0x000010e0:    3040        @0      ADDS     r0,r0,#0x40
        0x000010e2:    f7ffffdc    ....    BL       GPIO_SetMode ; 0x109e
        0x000010e6:    2201        ."      MOVS     r2,#1
        0x000010e8:    2100        .!      MOVS     r1,#0
        0x000010ea:    483e        >H      LDR      r0,[pc,#248] ; [0x11e4] = 0x50004000
        0x000010ec:    f7ffffd7    ....    BL       GPIO_SetMode ; 0x109e
        0x000010f0:    2201        ."      MOVS     r2,#1
        0x000010f2:    2100        .!      MOVS     r1,#0
        0x000010f4:    483b        ;H      LDR      r0,[pc,#236] ; [0x11e4] = 0x50004000
        0x000010f6:    f7ffffd2    ....    BL       GPIO_SetMode ; 0x109e
        0x000010fa:    483b        ;H      LDR      r0,[pc,#236] ; [0x11e8] = 0x5ec00007
        0x000010fc:    f7fffe92    ....    BL       CLK_EnableModuleClock ; 0xe24
        0x00001100:    483a        :H      LDR      r0,[pc,#232] ; [0x11ec] = 0x4000007
        0x00001102:    f000fe89    ....    BL       SYS_ResetModule ; 0x1e18
        0x00001106:    2200        ."      MOVS     r2,#0
        0x00001108:    4611        .F      MOV      r1,r2
        0x0000110a:    4837        7H      LDR      r0,[pc,#220] ; [0x11e8] = 0x5ec00007
        0x0000110c:    f7fffee6    ....    BL       CLK_SetModuleClock ; 0xedc
        0x00001110:    22c8        ."      MOVS     r2,#0xc8
        0x00001112:    2101        .!      MOVS     r1,#1
        0x00001114:    06c9        ..      LSLS     r1,r1,#27
        0x00001116:    4836        6H      LDR      r0,[pc,#216] ; [0x11f0] = 0x40010020
        0x00001118:    f000ff86    ....    BL       TIMER_Open ; 0x2028
        0x0000111c:    bf00        ..      NOP      
        0x0000111e:    4834        4H      LDR      r0,[pc,#208] ; [0x11f0] = 0x40010020
        0x00001120:    6800        .h      LDR      r0,[r0,#0]
        0x00001122:    2101        .!      MOVS     r1,#1
        0x00001124:    0749        I.      LSLS     r1,r1,#29
        0x00001126:    4308        .C      ORRS     r0,r0,r1
        0x00001128:    4931        1I      LDR      r1,[pc,#196] ; [0x11f0] = 0x40010020
        0x0000112a:    6008        .`      STR      r0,[r1,#0]
        0x0000112c:    bf00        ..      NOP      
        0x0000112e:    2009        .       MOVS     r0,#9
        0x00001130:    f000fc66    ..f.    BL       NVIC_EnableIRQ ; 0x1a00
        0x00001134:    bf00        ..      NOP      
        0x00001136:    482e        .H      LDR      r0,[pc,#184] ; [0x11f0] = 0x40010020
        0x00001138:    6800        .h      LDR      r0,[r0,#0]
        0x0000113a:    2101        .!      MOVS     r1,#1
        0x0000113c:    0789        ..      LSLS     r1,r1,#30
        0x0000113e:    4308        .C      ORRS     r0,r0,r1
        0x00001140:    492b        +I      LDR      r1,[pc,#172] ; [0x11f0] = 0x40010020
        0x00001142:    6008        .`      STR      r0,[r1,#0]
        0x00001144:    bf00        ..      NOP      
        0x00001146:    4608        .F      MOV      r0,r1
        0x00001148:    f000ff5e    ..^.    BL       TIMER_GetWorkingFreq ; 0x2008
        0x0000114c:    9001        ..      STR      r0,[sp,#4]
        0x0000114e:    f7fffa3b    ..;.    BL       __aeabi_ui2d ; 0x5c8
        0x00001152:    4a28        (J      LDR      r2,[pc,#160] ; [0x11f4] = 0x9999999a
        0x00001154:    4b28        (K      LDR      r3,[pc,#160] ; [0x11f8] = 0x3fb99999
        0x00001156:    9103        ..      STR      r1,[sp,#0xc]
        0x00001158:    9002        ..      STR      r0,[sp,#8]
        0x0000115a:    f7fff9bb    ....    BL       __aeabi_dmul ; 0x4d4
        0x0000115e:    9105        ..      STR      r1,[sp,#0x14]
        0x00001160:    9004        ..      STR      r0,[sp,#0x10]
        0x00001162:    f7fffa6d    ..m.    BL       __aeabi_d2uiz ; 0x640
        0x00001166:    b287        ..      UXTH     r7,r0
        0x00001168:    4821        !H      LDR      r0,[pc,#132] ; [0x11f0] = 0x40010020
        0x0000116a:    f000ff4d    ..M.    BL       TIMER_GetWorkingFreq ; 0x2008
        0x0000116e:    9001        ..      STR      r0,[sp,#4]
        0x00001170:    f7fffa2a    ..*.    BL       __aeabi_ui2d ; 0x5c8
        0x00001174:    4a1f        .J      LDR      r2,[pc,#124] ; [0x11f4] = 0x9999999a
        0x00001176:    4b20         K      LDR      r3,[pc,#128] ; [0x11f8] = 0x3fb99999
        0x00001178:    9103        ..      STR      r1,[sp,#0xc]
        0x0000117a:    9002        ..      STR      r0,[sp,#8]
        0x0000117c:    f7fff9aa    ....    BL       __aeabi_dmul ; 0x4d4
        0x00001180:    9105        ..      STR      r1,[sp,#0x14]
        0x00001182:    9004        ..      STR      r0,[sp,#0x10]
        0x00001184:    f7fffa5c    ..\.    BL       __aeabi_d2uiz ; 0x640
        0x00001188:    b280        ..      UXTH     r0,r0
        0x0000118a:    4639        9F      MOV      r1,r7
        0x0000118c:    9006        ..      STR      r0,[sp,#0x18]
        0x0000118e:    f000f839    ..9.    BL       Keypad_InitKeypad ; 0x1204
        0x00001192:    4a1a        .J      LDR      r2,[pc,#104] ; [0x11fc] = 0x20000030
        0x00001194:    21cf        .!      MOVS     r1,#0xcf
        0x00001196:    2000        .       MOVS     r0,#0
        0x00001198:    f000f83a    ..:.    BL       Keypad_InitTgr ; 0x1210
        0x0000119c:    2006        .       MOVS     r0,#6
        0x0000119e:    4918        .I      LDR      r1,[pc,#96] ; [0x1200] = 0x200001b4
        0x000011a0:    8008        ..      STRH     r0,[r1,#0]
        0x000011a2:    200f        .       MOVS     r0,#0xf
        0x000011a4:    02c0        ..      LSLS     r0,r0,#11
        0x000011a6:    6048        H`      STR      r0,[r1,#4]
        0x000011a8:    2071        q       MOVS     r0,#0x71
        0x000011aa:    0280        ..      LSLS     r0,r0,#10
        0x000011ac:    6088        .`      STR      r0,[r1,#8]
        0x000011ae:    200f        .       MOVS     r0,#0xf
        0x000011b0:    02c0        ..      LSLS     r0,r0,#11
        0x000011b2:    60c8        .`      STR      r0,[r1,#0xc]
        0x000011b4:    2000        .       MOVS     r0,#0
        0x000011b6:    8048        H.      STRH     r0,[r1,#2]
        0x000011b8:    2400        .$      MOVS     r4,#0
        0x000011ba:    e00e        ..      B        0x11da ; Init_InKey + 270
        0x000011bc:    0320         .      LSLS     r0,r4,#12
        0x000011be:    2171        q!      MOVS     r1,#0x71
        0x000011c0:    0289        ..      LSLS     r1,r1,#10
        0x000011c2:    1846        F.      ADDS     r6,r0,r1
        0x000011c4:    4630        0F      MOV      r0,r6
        0x000011c6:    f7ffff3b    ..;.    BL       Flash_Read ; 0x1040
        0x000011ca:    4605        .F      MOV      r5,r0
        0x000011cc:    2d00        .-      CMP      r5,#0
        0x000011ce:    da03        ..      BGE      0x11d8 ; Init_InKey + 268
        0x000011d0:    1c60        `.      ADDS     r0,r4,#1
        0x000011d2:    490b        .I      LDR      r1,[pc,#44] ; [0x1200] = 0x200001b4
        0x000011d4:    8048        H.      STRH     r0,[r1,#2]
        0x000011d6:    e002        ..      B        0x11de ; Init_InKey + 274
        0x000011d8:    1c64        d.      ADDS     r4,r4,#1
        0x000011da:    2c06        .,      CMP      r4,#6
        0x000011dc:    d3ee        ..      BCC      0x11bc ; Init_InKey + 240
        0x000011de:    bf00        ..      NOP      
        0x000011e0:    b007        ..      ADD      sp,sp,#0x1c
        0x000011e2:    bdf0        ..      POP      {r4-r7,pc}
    $d
        0x000011e4:    50004000    .@.P    DCD    1342193664
        0x000011e8:    5ec00007    ...^    DCD    1589641223
        0x000011ec:    04000007    ....    DCD    67108871
        0x000011f0:    40010020     ..@    DCD    1073807392
        0x000011f4:    9999999a    ....    DCD    2576980378
        0x000011f8:    3fb99999    ...?    DCD    1069128089
        0x000011fc:    20000030    0..     DCD    536870960
        0x00001200:    200001b4    ...     DCD    536871348
    $t
    i.Keypad_InitKeypad
    Keypad_InitKeypad
        0x00001204:    4a01        .J      LDR      r2,[pc,#4] ; [0x120c] = 0x20000026
        0x00001206:    80d0        ..      STRH     r0,[r2,#6]
        0x00001208:    8111        ..      STRH     r1,[r2,#8]
        0x0000120a:    4770        pG      BX       lr
    $d
        0x0000120c:    20000026    &..     DCD    536870950
    $t
    i.Keypad_InitTgr
    Keypad_InitTgr
        0x00001210:    b510        ..      PUSH     {r4,lr}
        0x00001212:    4b07        .K      LDR      r3,[pc,#28] ; [0x1230] = 0x2000015c
        0x00001214:    4c07        .L      LDR      r4,[pc,#28] ; [0x1234] = 0x50004000
        0x00001216:    8118        ..      STRH     r0,[r3,#8]
        0x00001218:    8159        Y.      STRH     r1,[r3,#0xa]
        0x0000121a:    6924        $i      LDR      r4,[r4,#0x10]
        0x0000121c:    4004        .@      ANDS     r4,r4,r0
        0x0000121e:    4805        .H      LDR      r0,[pc,#20] ; [0x1234] = 0x50004000
        0x00001220:    819c        ..      STRH     r4,[r3,#0xc]
        0x00001222:    3040        @0      ADDS     r0,r0,#0x40
        0x00001224:    6900        .i      LDR      r0,[r0,#0x10]
        0x00001226:    4008        .@      ANDS     r0,r0,r1
        0x00001228:    81d8        ..      STRH     r0,[r3,#0xe]
        0x0000122a:    605a        Z`      STR      r2,[r3,#4]
        0x0000122c:    bd10        ..      POP      {r4,pc}
    $d
        0x0000122e:    0000        ..      DCW    0
        0x00001230:    2000015c    \..     DCD    536871260
        0x00001234:    50004000    .@.P    DCD    1342193664
    $t
    i.Keypad_ScanTgr
    Keypad_ScanTgr
        0x00001238:    b570        p.      PUSH     {r4-r6,lr}
        0x0000123a:    4d14        .M      LDR      r5,[pc,#80] ; [0x128c] = 0x2000015c
        0x0000123c:    4814        .H      LDR      r0,[pc,#80] ; [0x1290] = 0x50004000
        0x0000123e:    462a        *F      MOV      r2,r5
        0x00001240:    8929        ).      LDRH     r1,[r5,#8]
        0x00001242:    320c        .2      ADDS     r2,r2,#0xc
        0x00001244:    f000f828    ..(.    BL       Keypad_ScanTgrPort ; 0x1298
        0x00001248:    4811        .H      LDR      r0,[pc,#68] ; [0x1290] = 0x50004000
        0x0000124a:    462a        *F      MOV      r2,r5
        0x0000124c:    8969        i.      LDRH     r1,[r5,#0xa]
        0x0000124e:    320e        .2      ADDS     r2,r2,#0xe
        0x00001250:    3040        @0      ADDS     r0,r0,#0x40
        0x00001252:    f000f821    ..!.    BL       Keypad_ScanTgrPort ; 0x1298
        0x00001256:    6828        (h      LDR      r0,[r5,#0]
        0x00001258:    2800        .(      CMP      r0,#0
        0x0000125a:    d003        ..      BEQ      0x1264 ; Keypad_ScanTgr + 44
        0x0000125c:    4c0d        .L      LDR      r4,[pc,#52] ; [0x1294] = 0x20000026
        0x0000125e:    8820         .      LDRH     r0,[r4,#0]
        0x00001260:    2800        .(      CMP      r0,#0
        0x00001262:    d001        ..      BEQ      0x1268 ; Keypad_ScanTgr + 48
        0x00001264:    2001        .       MOVS     r0,#1
        0x00001266:    bd70        p.      POP      {r4-r6,pc}
        0x00001268:    f000f854    ..T.    BL       Keypad_TgrMapHandler ; 0x1314
        0x0000126c:    7ca9        .|      LDRB     r1,[r5,#0x12]
        0x0000126e:    2900        .)      CMP      r1,#0
        0x00001270:    d004        ..      BEQ      0x127c ; Keypad_ScanTgr + 68
        0x00001272:    2901        .)      CMP      r1,#1
        0x00001274:    d007        ..      BEQ      0x1286 ; Keypad_ScanTgr + 78
        0x00001276:    2902        .)      CMP      r1,#2
        0x00001278:    d1f5        ..      BNE      0x1266 ; Keypad_ScanTgr + 46
        0x0000127a:    e001        ..      B        0x1280 ; Keypad_ScanTgr + 72
        0x0000127c:    2102        .!      MOVS     r1,#2
        0x0000127e:    74a9        .t      STRB     r1,[r5,#0x12]
        0x00001280:    8921        !.      LDRH     r1,[r4,#8]
        0x00001282:    8021        !.      STRH     r1,[r4,#0]
        0x00001284:    bd70        p.      POP      {r4-r6,pc}
        0x00001286:    2100        .!      MOVS     r1,#0
        0x00001288:    6029        )`      STR      r1,[r5,#0]
        0x0000128a:    bd70        p.      POP      {r4-r6,pc}
    $d
        0x0000128c:    2000015c    \..     DCD    536871260
        0x00001290:    50004000    .@.P    DCD    1342193664
        0x00001294:    20000026    &..     DCD    536870950
    $t
    i.Keypad_ScanTgrPort
    Keypad_ScanTgrPort
        0x00001298:    b530        0.      PUSH     {r4,r5,lr}
        0x0000129a:    2900        .)      CMP      r1,#0
        0x0000129c:    d013        ..      BEQ      0x12c6 ; Keypad_ScanTgrPort + 46
        0x0000129e:    2800        .(      CMP      r0,#0
        0x000012a0:    d011        ..      BEQ      0x12c6 ; Keypad_ScanTgrPort + 46
        0x000012a2:    6903        .i      LDR      r3,[r0,#0x10]
        0x000012a4:    400b        .@      ANDS     r3,r3,r1
        0x000012a6:    8811        ..      LDRH     r1,[r2,#0]
        0x000012a8:    4059        Y@      EORS     r1,r1,r3
        0x000012aa:    d00c        ..      BEQ      0x12c6 ; Keypad_ScanTgrPort + 46
        0x000012ac:    4c0d        .L      LDR      r4,[pc,#52] ; [0x12e4] = 0x2000015c
        0x000012ae:    6825        %h      LDR      r5,[r4,#0]
        0x000012b0:    4285        .B      CMP      r5,r0
        0x000012b2:    d109        ..      BNE      0x12c8 ; Keypad_ScanTgrPort + 48
        0x000012b4:    7ca5        .|      LDRB     r5,[r4,#0x12]
        0x000012b6:    2d02        .-      CMP      r5,#2
        0x000012b8:    d006        ..      BEQ      0x12c8 ; Keypad_ScanTgrPort + 48
        0x000012ba:    8a25        %.      LDRH     r5,[r4,#0x10]
        0x000012bc:    428d        .B      CMP      r5,r1
        0x000012be:    d103        ..      BNE      0x12c8 ; Keypad_ScanTgrPort + 48
        0x000012c0:    2000        .       MOVS     r0,#0
        0x000012c2:    6020         `      STR      r0,[r4,#0]
        0x000012c4:    8013        ..      STRH     r3,[r2,#0]
        0x000012c6:    bd30        0.      POP      {r4,r5,pc}
        0x000012c8:    6020         `      STR      r0,[r4,#0]
        0x000012ca:    8013        ..      STRH     r3,[r2,#0]
        0x000012cc:    4806        .H      LDR      r0,[pc,#24] ; [0x12e8] = 0x20000026
        0x000012ce:    8221        !.      STRH     r1,[r4,#0x10]
        0x000012d0:    88c3        ..      LDRH     r3,[r0,#6]
        0x000012d2:    8003        ..      STRH     r3,[r0,#0]
        0x000012d4:    8810        ..      LDRH     r0,[r2,#0]
        0x000012d6:    4201        .B      TST      r1,r0
        0x000012d8:    d001        ..      BEQ      0x12de ; Keypad_ScanTgrPort + 70
        0x000012da:    2001        .       MOVS     r0,#1
        0x000012dc:    e000        ..      B        0x12e0 ; Keypad_ScanTgrPort + 72
        0x000012de:    2000        .       MOVS     r0,#0
        0x000012e0:    74a0        .t      STRB     r0,[r4,#0x12]
        0x000012e2:    bd30        0.      POP      {r4,r5,pc}
    $d
        0x000012e4:    2000015c    \..     DCD    536871260
        0x000012e8:    20000026    &..     DCD    536870950
    $t
    i.Keypad_TgrDecDebounceCounter
    Keypad_TgrDecDebounceCounter
        0x000012ec:    4807        .H      LDR      r0,[pc,#28] ; [0x130c] = 0x2000015c
        0x000012ee:    6800        .h      LDR      r0,[r0,#0]
        0x000012f0:    2800        .(      CMP      r0,#0
        0x000012f2:    d008        ..      BEQ      0x1306 ; Keypad_TgrDecDebounceCounter + 26
        0x000012f4:    4806        .H      LDR      r0,[pc,#24] ; [0x1310] = 0x20000026
        0x000012f6:    8801        ..      LDRH     r1,[r0,#0]
        0x000012f8:    2900        .)      CMP      r1,#0
        0x000012fa:    d004        ..      BEQ      0x1306 ; Keypad_TgrDecDebounceCounter + 26
        0x000012fc:    8801        ..      LDRH     r1,[r0,#0]
        0x000012fe:    1e49        I.      SUBS     r1,r1,#1
        0x00001300:    8001        ..      STRH     r1,[r0,#0]
        0x00001302:    2001        .       MOVS     r0,#1
        0x00001304:    4770        pG      BX       lr
        0x00001306:    2000        .       MOVS     r0,#0
        0x00001308:    4770        pG      BX       lr
    $d
        0x0000130a:    0000        ..      DCW    0
        0x0000130c:    2000015c    \..     DCD    536871260
        0x00001310:    20000026    &..     DCD    536870950
    $t
    i.Keypad_TgrMapHandler
    Keypad_TgrMapHandler
        0x00001314:    b570        p.      PUSH     {r4-r6,lr}
        0x00001316:    4a17        .J      LDR      r2,[pc,#92] ; [0x1374] = 0x2000015c
        0x00001318:    4917        .I      LDR      r1,[pc,#92] ; [0x1378] = 0x50004000
        0x0000131a:    6810        .h      LDR      r0,[r2,#0]
        0x0000131c:    4288        .B      CMP      r0,r1
        0x0000131e:    d001        ..      BEQ      0x1324 ; Keypad_TgrMapHandler + 16
        0x00001320:    2501        .%      MOVS     r5,#1
        0x00001322:    e000        ..      B        0x1326 ; Keypad_TgrMapHandler + 18
        0x00001324:    2500        .%      MOVS     r5,#0
        0x00001326:    4913        .I      LDR      r1,[pc,#76] ; [0x1374] = 0x2000015c
        0x00001328:    2000        .       MOVS     r0,#0
        0x0000132a:    6849        Ih      LDR      r1,[r1,#4]
        0x0000132c:    8a14        ..      LDRH     r4,[r2,#0x10]
        0x0000132e:    7c93        .|      LDRB     r3,[r2,#0x12]
        0x00001330:    e018        ..      B        0x1364 ; Keypad_TgrMapHandler + 80
        0x00001332:    4616        .F      MOV      r6,r2
        0x00001334:    360a        .6      ADDS     r6,r6,#0xa
        0x00001336:    5d8e        .]      LDRB     r6,[r1,r6]
        0x00001338:    42ae        .B      CMP      r6,r5
        0x0000133a:    d111        ..      BNE      0x1360 ; Keypad_TgrMapHandler + 76
        0x0000133c:    4616        .F      MOV      r6,r2
        0x0000133e:    3608        .6      ADDS     r6,r6,#8
        0x00001340:    5b8e        .[      LDRH     r6,[r1,r6]
        0x00001342:    42a6        .B      CMP      r6,r4
        0x00001344:    d10c        ..      BNE      0x1360 ; Keypad_TgrMapHandler + 76
        0x00001346:    4616        .F      MOV      r6,r2
        0x00001348:    360b        .6      ADDS     r6,r6,#0xb
        0x0000134a:    5d8e        .]      LDRB     r6,[r1,r6]
        0x0000134c:    429e        .B      CMP      r6,r3
        0x0000134e:    d107        ..      BNE      0x1360 ; Keypad_TgrMapHandler + 76
        0x00001350:    230c        .#      MOVS     r3,#0xc
        0x00001352:    4358        XC      MULS     r0,r3,r0
        0x00001354:    1d00        ..      ADDS     r0,r0,#4
        0x00001356:    5808        .X      LDR      r0,[r1,r0]
        0x00001358:    5889        .X      LDR      r1,[r1,r2]
        0x0000135a:    4788        .G      BLX      r1
        0x0000135c:    2001        .       MOVS     r0,#1
        0x0000135e:    bd70        p.      POP      {r4-r6,pc}
        0x00001360:    1c40        @.      ADDS     r0,r0,#1
        0x00001362:    b2c0        ..      UXTB     r0,r0
        0x00001364:    220c        ."      MOVS     r2,#0xc
        0x00001366:    4342        BC      MULS     r2,r0,r2
        0x00001368:    588e        .X      LDR      r6,[r1,r2]
        0x0000136a:    2e00        ..      CMP      r6,#0
        0x0000136c:    d1e1        ..      BNE      0x1332 ; Keypad_TgrMapHandler + 30
        0x0000136e:    2000        .       MOVS     r0,#0
        0x00001370:    bd70        p.      POP      {r4-r6,pc}
    $d
        0x00001372:    0000        ..      DCW    0
        0x00001374:    2000015c    \..     DCD    536871260
        0x00001378:    50004000    .@.P    DCD    1342193664
    $t
    i.KpHandler
    KpHandler
        0x0000137c:    b570        p.      PUSH     {r4-r6,lr}
        0x0000137e:    4605        .F      MOV      r5,r0
        0x00001380:    462e        .F      MOV      r6,r5
        0x00001382:    48cf        .H      LDR      r0,[pc,#828] ; [0x16c0] = 0x40000001
        0x00001384:    4286        .B      CMP      r6,r0
        0x00001386:    d108        ..      BNE      0x139a ; KpHandler + 30
        0x00001388:    48ce        .H      LDR      r0,[pc,#824] ; [0x16c4] = 0x2000011c
        0x0000138a:    8800        ..      LDRH     r0,[r0,#0]
        0x0000138c:    2800        .(      CMP      r0,#0
        0x0000138e:    d003        ..      BEQ      0x1398 ; KpHandler + 28
        0x00001390:    48cd        .H      LDR      r0,[pc,#820] ; [0x16c8] = 0x200001b4
        0x00001392:    8a80        ..      LDRH     r0,[r0,#0x14]
        0x00001394:    2800        .(      CMP      r0,#0
        0x00001396:    dd00        ..      BLE      0x139a ; KpHandler + 30
        0x00001398:    4ecc        .N      LDR      r6,[pc,#816] ; [0x16cc] = 0x20000001
        0x0000139a:    49cc        .I      LDR      r1,[pc,#816] ; [0x16cc] = 0x20000001
        0x0000139c:    1cc9        ..      ADDS     r1,r1,#3
        0x0000139e:    1a70        p.      SUBS     r0,r6,r1
        0x000013a0:    428e        .B      CMP      r6,r1
        0x000013a2:    d07d        }.      BEQ      0x14a0 ; KpHandler + 292
        0x000013a4:    dc1b        ..      BGT      0x13de ; KpHandler + 98
        0x000013a6:    49ca        .I      LDR      r1,[pc,#808] ; [0x16d0] = 0x10000005
        0x000013a8:    1a70        p.      SUBS     r0,r6,r1
        0x000013aa:    428e        .B      CMP      r6,r1
        0x000013ac:    d079        y.      BEQ      0x14a2 ; KpHandler + 294
        0x000013ae:    dc0a        ..      BGT      0x13c6 ; KpHandler + 74
        0x000013b0:    48c8        .H      LDR      r0,[pc,#800] ; [0x16d4] = 0xefffffff
        0x000013b2:    1830        0.      ADDS     r0,r6,r0
        0x000013b4:    2800        .(      CMP      r0,#0
        0x000013b6:    d02a        *.      BEQ      0x140e ; KpHandler + 146
        0x000013b8:    2801        .(      CMP      r0,#1
        0x000013ba:    d073        s.      BEQ      0x14a4 ; KpHandler + 296
        0x000013bc:    2802        .(      CMP      r0,#2
        0x000013be:    d072        r.      BEQ      0x14a6 ; KpHandler + 298
        0x000013c0:    2803        .(      CMP      r0,#3
        0x000013c2:    d171        q.      BNE      0x14a8 ; KpHandler + 300
        0x000013c4:    e136        6.      B        0x1634 ; KpHandler + 696
        0x000013c6:    2801        .(      CMP      r0,#1
        0x000013c8:    d06f        o.      BEQ      0x14aa ; KpHandler + 302
        0x000013ca:    49c2        .I      LDR      r1,[pc,#776] ; [0x16d4] = 0xefffffff
        0x000013cc:    1d49        I.      ADDS     r1,r1,#5
        0x000013ce:    1840        @.      ADDS     r0,r0,r1
        0x000013d0:    2800        .(      CMP      r0,#0
        0x000013d2:    d047        G.      BEQ      0x1464 ; KpHandler + 232
        0x000013d4:    2801        .(      CMP      r0,#1
        0x000013d6:    d069        i.      BEQ      0x14ac ; KpHandler + 304
        0x000013d8:    2802        .(      CMP      r0,#2
        0x000013da:    d1f2        ..      BNE      0x13c2 ; KpHandler + 70
        0x000013dc:    e0d6        ..      B        0x158c ; KpHandler + 528
        0x000013de:    4abb        .J      LDR      r2,[pc,#748] ; [0x16cc] = 0x20000001
        0x000013e0:    1e92        ..      SUBS     r2,r2,#2
        0x000013e2:    1a81        ..      SUBS     r1,r0,r2
        0x000013e4:    4290        .B      CMP      r0,r2
        0x000013e6:    d07d        }.      BEQ      0x14e4 ; KpHandler + 360
        0x000013e8:    dc0a        ..      BGT      0x1400 ; KpHandler + 132
        0x000013ea:    2801        .(      CMP      r0,#1
        0x000013ec:    d07b        {.      BEQ      0x14e6 ; KpHandler + 362
        0x000013ee:    2802        .(      CMP      r0,#2
        0x000013f0:    d07a        z.      BEQ      0x14e8 ; KpHandler + 364
        0x000013f2:    49b9        .I      LDR      r1,[pc,#740] ; [0x16d8] = 0xe0000003
        0x000013f4:    1840        @.      ADDS     r0,r0,r1
        0x000013f6:    2800        .(      CMP      r0,#0
        0x000013f8:    d077        w.      BEQ      0x14ea ; KpHandler + 366
        0x000013fa:    2801        .(      CMP      r0,#1
        0x000013fc:    d1e1        ..      BNE      0x13c2 ; KpHandler + 70
        0x000013fe:    e0a0        ..      B        0x1542 ; KpHandler + 454
        0x00001400:    2901        .)      CMP      r1,#1
        0x00001402:    d073        s.      BEQ      0x14ec ; KpHandler + 368
        0x00001404:    2902        .)      CMP      r1,#2
        0x00001406:    d072        r.      BEQ      0x14ee ; KpHandler + 370
        0x00001408:    2903        .)      CMP      r1,#3
        0x0000140a:    d1da        ..      BNE      0x13c2 ; KpHandler + 70
        0x0000140c:    e13d        =.      B        0x168a ; KpHandler + 782
        0x0000140e:    a0b3        ..      ADR      r0,{pc}+0x2ce ; 0x16dc
        0x00001410:    f000fea8    ....    BL       __0printf ; 0x2164
        0x00001414:    48ac        .H      LDR      r0,[pc,#688] ; [0x16c8] = 0x200001b4
        0x00001416:    8800        ..      LDRH     r0,[r0,#0]
        0x00001418:    49ab        .I      LDR      r1,[pc,#684] ; [0x16c8] = 0x200001b4
        0x0000141a:    8849        I.      LDRH     r1,[r1,#2]
        0x0000141c:    4288        .B      CMP      r0,r1
        0x0000141e:    dc03        ..      BGT      0x1428 ; KpHandler + 172
        0x00001420:    a0b7        ..      ADR      r0,{pc}+0x2e0 ; 0x1700
        0x00001422:    f000fe9f    ....    BL       __0printf ; 0x2164
        0x00001426:    bd70        p.      POP      {r4-r6,pc}
        0x00001428:    f7fffc22    ..".    BL       ADC_Init ; 0xc70
        0x0000142c:    f000fb78    ..x.    BL       PDMA_Init ; 0x1b20
        0x00001430:    f002fb3d    ..=.    BL       open_Flash ; 0x3aae
        0x00001434:    2000        .       MOVS     r0,#0
        0x00001436:    49c1        .I      LDR      r1,[pc,#772] ; [0x173c] = 0x20000114
        0x00001438:    8008        ..      STRH     r0,[r1,#0]
        0x0000143a:    49c1        .I      LDR      r1,[pc,#772] ; [0x1740] = 0x20000118
        0x0000143c:    8008        ..      STRH     r0,[r1,#0]
        0x0000143e:    207d        }       MOVS     r0,#0x7d
        0x00001440:    00c0        ..      LSLS     r0,r0,#3
        0x00001442:    49a0        .I      LDR      r1,[pc,#640] ; [0x16c4] = 0x2000011c
        0x00001444:    8008        ..      STRH     r0,[r1,#0]
        0x00001446:    48a0        .H      LDR      r0,[pc,#640] ; [0x16c8] = 0x200001b4
        0x00001448:    6840        @h      LDR      r0,[r0,#4]
        0x0000144a:    499f        .I      LDR      r1,[pc,#636] ; [0x16c8] = 0x200001b4
        0x0000144c:    60c8        .`      STR      r0,[r1,#0xc]
        0x0000144e:    2000        .       MOVS     r0,#0
        0x00001450:    6108        .a      STR      r0,[r1,#0x10]
        0x00001452:    8288        ..      STRH     r0,[r1,#0x14]
        0x00001454:    82c8        ..      STRH     r0,[r1,#0x16]
        0x00001456:    8308        ..      STRH     r0,[r1,#0x18]
        0x00001458:    460a        .F      MOV      r2,r1
        0x0000145a:    6891        .h      LDR      r1,[r2,#8]
        0x0000145c:    6850        Ph      LDR      r0,[r2,#4]
        0x0000145e:    f7fffde1    ....    BL       Flash_Erase ; 0x1024
        0x00001462:    e129        ).      B        0x16b8 ; KpHandler + 828
        0x00001464:    4898        .H      LDR      r0,[pc,#608] ; [0x16c8] = 0x200001b4
        0x00001466:    8ac0        ..      LDRH     r0,[r0,#0x16]
        0x00001468:    2800        .(      CMP      r0,#0
        0x0000146a:    dd00        ..      BLE      0x146e ; KpHandler + 242
        0x0000146c:    e124        $.      B        0x16b8 ; KpHandler + 828
        0x0000146e:    2001        .       MOVS     r0,#1
        0x00001470:    4995        .I      LDR      r1,[pc,#596] ; [0x16c8] = 0x200001b4
        0x00001472:    82c8        ..      STRH     r0,[r1,#0x16]
        0x00001474:    a0b3        ..      ADR      r0,{pc}+0x2d0 ; 0x1744
        0x00001476:    f000fe75    ..u.    BL       __0printf ; 0x2164
        0x0000147a:    2004        .       MOVS     r0,#4
        0x0000147c:    49ba        .I      LDR      r1,[pc,#744] ; [0x1768] = 0x50008000
        0x0000147e:    6208        .b      STR      r0,[r1,#0x20]
        0x00001480:    48ba        .H      LDR      r0,[pc,#744] ; [0x176c] = 0x400e0000
        0x00001482:    6940        @i      LDR      r0,[r0,#0x14]
        0x00001484:    0840        @.      LSRS     r0,r0,#1
        0x00001486:    0040        @.      LSLS     r0,r0,#1
        0x00001488:    49b8        .I      LDR      r1,[pc,#736] ; [0x176c] = 0x400e0000
        0x0000148a:    6148        Ha      STR      r0,[r1,#0x14]
        0x0000148c:    2001        .       MOVS     r0,#1
        0x0000148e:    43c0        .C      MVNS     r0,r0
        0x00001490:    6048        H`      STR      r0,[r1,#4]
        0x00001492:    201a        .       MOVS     r0,#0x1a
        0x00001494:    f000faa0    ....    BL       NVIC_ClearPendingIRQ ; 0x19d8
        0x00001498:    201a        .       MOVS     r0,#0x1a
        0x0000149a:    f000faa7    ....    BL       NVIC_DisableIRQ ; 0x19ec
        0x0000149e:    e006        ..      B        0x14ae ; KpHandler + 306
        0x000014a0:    e0e4        ..      B        0x166c ; KpHandler + 752
        0x000014a2:    e0eb        ..      B        0x167c ; KpHandler + 768
        0x000014a4:    e03c        <.      B        0x1520 ; KpHandler + 420
        0x000014a6:    e050        P.      B        0x154a ; KpHandler + 462
        0x000014a8:    e0f0        ..      B        0x168c ; KpHandler + 784
        0x000014aa:    e0ea        ..      B        0x1682 ; KpHandler + 774
        0x000014ac:    e045        E.      B        0x153a ; KpHandler + 446
        0x000014ae:    4885        .H      LDR      r0,[pc,#532] ; [0x16c4] = 0x2000011c
        0x000014b0:    8800        ..      LDRH     r0,[r0,#0]
        0x000014b2:    217d        }!      MOVS     r1,#0x7d
        0x000014b4:    00c9        ..      LSLS     r1,r1,#3
        0x000014b6:    1a08        ..      SUBS     r0,r1,r0
        0x000014b8:    4983        .I      LDR      r1,[pc,#524] ; [0x16c8] = 0x200001b4
        0x000014ba:    8308        ..      STRH     r0,[r1,#0x18]
        0x000014bc:    489f        .H      LDR      r0,[pc,#636] ; [0x173c] = 0x20000114
        0x000014be:    2100        .!      MOVS     r1,#0
        0x000014c0:    5e41        A^      LDRSH    r1,[r0,r1]
        0x000014c2:    2900        .)      CMP      r1,#0
        0x000014c4:    dd1c        ..      BLE      0x1500 ; KpHandler + 388
        0x000014c6:    4880        .H      LDR      r0,[pc,#512] ; [0x16c8] = 0x200001b4
        0x000014c8:    6900        .i      LDR      r0,[r0,#0x10]
        0x000014ca:    217d        }!      MOVS     r1,#0x7d
        0x000014cc:    0149        I.      LSLS     r1,r1,#5
        0x000014ce:    4288        .B      CMP      r0,r1
        0x000014d0:    d916        ..      BLS      0x1500 ; KpHandler + 388
        0x000014d2:    4b7d        }K      LDR      r3,[pc,#500] ; [0x16c8] = 0x200001b4
        0x000014d4:    885a        Z.      LDRH     r2,[r3,#2]
        0x000014d6:    691b        .i      LDR      r3,[r3,#0x10]
        0x000014d8:    b299        ..      UXTH     r1,r3
        0x000014da:    4b7b        {K      LDR      r3,[pc,#492] ; [0x16c8] = 0x200001b4
        0x000014dc:    6858        Xh      LDR      r0,[r3,#4]
        0x000014de:    f000fbfb    ....    BL       Record_Process ; 0x1cd8
        0x000014e2:    e005        ..      B        0x14f0 ; KpHandler + 372
        0x000014e4:    e099        ..      B        0x161a ; KpHandler + 670
        0x000014e6:    e0ca        ..      B        0x167e ; KpHandler + 770
        0x000014e8:    e0ce        ..      B        0x1688 ; KpHandler + 780
        0x000014ea:    e00c        ..      B        0x1506 ; KpHandler + 394
        0x000014ec:    e0c2        ..      B        0x1674 ; KpHandler + 760
        0x000014ee:    e0c7        ..      B        0x1680 ; KpHandler + 772
        0x000014f0:    4604        .F      MOV      r4,r0
        0x000014f2:    2c00        .,      CMP      r4,#0
        0x000014f4:    d104        ..      BNE      0x1500 ; KpHandler + 388
        0x000014f6:    4874        tH      LDR      r0,[pc,#464] ; [0x16c8] = 0x200001b4
        0x000014f8:    8840        @.      LDRH     r0,[r0,#2]
        0x000014fa:    1c40        @.      ADDS     r0,r0,#1
        0x000014fc:    4972        rI      LDR      r1,[pc,#456] ; [0x16c8] = 0x200001b4
        0x000014fe:    8048        H.      STRH     r0,[r1,#2]
        0x00001500:    f003f86a    ..j.    BL       stop_Flash ; 0x45d8
        0x00001504:    e0d8        ..      B        0x16b8 ; KpHandler + 828
        0x00001506:    488d        .H      LDR      r0,[pc,#564] ; [0x173c] = 0x20000114
        0x00001508:    8800        ..      LDRH     r0,[r0,#0]
        0x0000150a:    2800        .(      CMP      r0,#0
        0x0000150c:    d107        ..      BNE      0x151e ; KpHandler + 418
        0x0000150e:    a098        ..      ADR      r0,{pc}+0x262 ; 0x1770
        0x00001510:    f000fe28    ..(.    BL       __0printf ; 0x2164
        0x00001514:    2001        .       MOVS     r0,#1
        0x00001516:    4995        .I      LDR      r1,[pc,#596] ; [0x176c] = 0x400e0000
        0x00001518:    6048        H`      STR      r0,[r1,#4]
        0x0000151a:    4988        .I      LDR      r1,[pc,#544] ; [0x173c] = 0x20000114
        0x0000151c:    8008        ..      STRH     r0,[r1,#0]
        0x0000151e:    e0cb        ..      B        0x16b8 ; KpHandler + 828
        0x00001520:    a09d        ..      ADR      r0,{pc}+0x278 ; 0x1798
        0x00001522:    f000fe1f    ....    BL       __0printf ; 0x2164
        0x00001526:    4868        hH      LDR      r0,[pc,#416] ; [0x16c8] = 0x200001b4
        0x00001528:    8840        @.      LDRH     r0,[r0,#2]
        0x0000152a:    2800        .(      CMP      r0,#0
        0x0000152c:    dd04        ..      BLE      0x1538 ; KpHandler + 444
        0x0000152e:    4866        fH      LDR      r0,[pc,#408] ; [0x16c8] = 0x200001b4
        0x00001530:    8840        @.      LDRH     r0,[r0,#2]
        0x00001532:    1e40        @.      SUBS     r0,r0,#1
        0x00001534:    4964        dI      LDR      r1,[pc,#400] ; [0x16c8] = 0x200001b4
        0x00001536:    8048        H.      STRH     r0,[r1,#2]
        0x00001538:    e0be        ..      B        0x16b8 ; KpHandler + 828
        0x0000153a:    a09f        ..      ADR      r0,{pc}+0x27e ; 0x17b8
        0x0000153c:    f000fe12    ....    BL       __0printf ; 0x2164
        0x00001540:    e0ba        ..      B        0x16b8 ; KpHandler + 828
        0x00001542:    a0a4        ..      ADR      r0,{pc}+0x292 ; 0x17d4
        0x00001544:    f000fe0e    ....    BL       __0printf ; 0x2164
        0x00001548:    e0b6        ..      B        0x16b8 ; KpHandler + 828
        0x0000154a:    a0aa        ..      ADR      r0,{pc}+0x2aa ; 0x17f4
        0x0000154c:    f000fe0a    ....    BL       __0printf ; 0x2164
        0x00001550:    f7fffb8e    ....    BL       ADC_Init ; 0xc70
        0x00001554:    f000fae4    ....    BL       PDMA_Init ; 0x1b20
        0x00001558:    f002faa9    ....    BL       open_Flash ; 0x3aae
        0x0000155c:    2000        .       MOVS     r0,#0
        0x0000155e:    4977        wI      LDR      r1,[pc,#476] ; [0x173c] = 0x20000114
        0x00001560:    8008        ..      STRH     r0,[r1,#0]
        0x00001562:    4977        wI      LDR      r1,[pc,#476] ; [0x1740] = 0x20000118
        0x00001564:    8008        ..      STRH     r0,[r1,#0]
        0x00001566:    207d        }       MOVS     r0,#0x7d
        0x00001568:    00c0        ..      LSLS     r0,r0,#3
        0x0000156a:    4956        VI      LDR      r1,[pc,#344] ; [0x16c4] = 0x2000011c
        0x0000156c:    8008        ..      STRH     r0,[r1,#0]
        0x0000156e:    4856        VH      LDR      r0,[pc,#344] ; [0x16c8] = 0x200001b4
        0x00001570:    6840        @h      LDR      r0,[r0,#4]
        0x00001572:    4955        UI      LDR      r1,[pc,#340] ; [0x16c8] = 0x200001b4
        0x00001574:    60c8        .`      STR      r0,[r1,#0xc]
        0x00001576:    2000        .       MOVS     r0,#0
        0x00001578:    6108        .a      STR      r0,[r1,#0x10]
        0x0000157a:    8288        ..      STRH     r0,[r1,#0x14]
        0x0000157c:    82c8        ..      STRH     r0,[r1,#0x16]
        0x0000157e:    8308        ..      STRH     r0,[r1,#0x18]
        0x00001580:    460a        .F      MOV      r2,r1
        0x00001582:    6891        .h      LDR      r1,[r2,#8]
        0x00001584:    6850        Ph      LDR      r0,[r2,#4]
        0x00001586:    f7fffd4d    ..M.    BL       Flash_Erase ; 0x1024
        0x0000158a:    e095        ..      B        0x16b8 ; KpHandler + 828
        0x0000158c:    484e        NH      LDR      r0,[pc,#312] ; [0x16c8] = 0x200001b4
        0x0000158e:    8ac0        ..      LDRH     r0,[r0,#0x16]
        0x00001590:    2800        .(      CMP      r0,#0
        0x00001592:    dd00        ..      BLE      0x1596 ; KpHandler + 538
        0x00001594:    e090        ..      B        0x16b8 ; KpHandler + 828
        0x00001596:    a0a0        ..      ADR      r0,{pc}+0x282 ; 0x1818
        0x00001598:    f000fde4    ....    BL       __0printf ; 0x2164
        0x0000159c:    2004        .       MOVS     r0,#4
        0x0000159e:    4972        rI      LDR      r1,[pc,#456] ; [0x1768] = 0x50008000
        0x000015a0:    6208        .b      STR      r0,[r1,#0x20]
        0x000015a2:    4872        rH      LDR      r0,[pc,#456] ; [0x176c] = 0x400e0000
        0x000015a4:    6940        @i      LDR      r0,[r0,#0x14]
        0x000015a6:    0840        @.      LSRS     r0,r0,#1
        0x000015a8:    0040        @.      LSLS     r0,r0,#1
        0x000015aa:    4970        pI      LDR      r1,[pc,#448] ; [0x176c] = 0x400e0000
        0x000015ac:    6148        Ha      STR      r0,[r1,#0x14]
        0x000015ae:    2001        .       MOVS     r0,#1
        0x000015b0:    43c0        .C      MVNS     r0,r0
        0x000015b2:    6048        H`      STR      r0,[r1,#4]
        0x000015b4:    201a        .       MOVS     r0,#0x1a
        0x000015b6:    f000fa0f    ....    BL       NVIC_ClearPendingIRQ ; 0x19d8
        0x000015ba:    201a        .       MOVS     r0,#0x1a
        0x000015bc:    f000fa16    ....    BL       NVIC_DisableIRQ ; 0x19ec
        0x000015c0:    4840        @H      LDR      r0,[pc,#256] ; [0x16c4] = 0x2000011c
        0x000015c2:    8800        ..      LDRH     r0,[r0,#0]
        0x000015c4:    217d        }!      MOVS     r1,#0x7d
        0x000015c6:    00c9        ..      LSLS     r1,r1,#3
        0x000015c8:    1a08        ..      SUBS     r0,r1,r0
        0x000015ca:    493f        ?I      LDR      r1,[pc,#252] ; [0x16c8] = 0x200001b4
        0x000015cc:    8308        ..      STRH     r0,[r1,#0x18]
        0x000015ce:    485b        [H      LDR      r0,[pc,#364] ; [0x173c] = 0x20000114
        0x000015d0:    2100        .!      MOVS     r1,#0
        0x000015d2:    5e41        A^      LDRSH    r1,[r0,r1]
        0x000015d4:    2900        .)      CMP      r1,#0
        0x000015d6:    dd1d        ..      BLE      0x1614 ; KpHandler + 664
        0x000015d8:    483b        ;H      LDR      r0,[pc,#236] ; [0x16c8] = 0x200001b4
        0x000015da:    8ac0        ..      LDRH     r0,[r0,#0x16]
        0x000015dc:    1c40        @.      ADDS     r0,r0,#1
        0x000015de:    493a        :I      LDR      r1,[pc,#232] ; [0x16c8] = 0x200001b4
        0x000015e0:    82c8        ..      STRH     r0,[r1,#0x16]
        0x000015e2:    4608        .F      MOV      r0,r1
        0x000015e4:    6900        .i      LDR      r0,[r0,#0x10]
        0x000015e6:    217d        }!      MOVS     r1,#0x7d
        0x000015e8:    0149        I.      LSLS     r1,r1,#5
        0x000015ea:    4288        .B      CMP      r0,r1
        0x000015ec:    d912        ..      BLS      0x1614 ; KpHandler + 664
        0x000015ee:    4a36        6J      LDR      r2,[pc,#216] ; [0x16c8] = 0x200001b4
        0x000015f0:    6912        .i      LDR      r2,[r2,#0x10]
        0x000015f2:    b291        ..      UXTH     r1,r2
        0x000015f4:    4a34        4J      LDR      r2,[pc,#208] ; [0x16c8] = 0x200001b4
        0x000015f6:    6850        Ph      LDR      r0,[r2,#4]
        0x000015f8:    2206        ."      MOVS     r2,#6
        0x000015fa:    f000fb05    ....    BL       Recognize_Process ; 0x1c08
        0x000015fe:    4604        .F      MOV      r4,r0
        0x00001600:    2c00        .,      CMP      r4,#0
        0x00001602:    dd04        ..      BLE      0x160e ; KpHandler + 658
        0x00001604:    4621        !F      MOV      r1,r4
        0x00001606:    a08d        ..      ADR      r0,{pc}+0x236 ; 0x183c
        0x00001608:    f000fdac    ....    BL       __0printf ; 0x2164
        0x0000160c:    e002        ..      B        0x1614 ; KpHandler + 664
        0x0000160e:    a08f        ..      ADR      r0,{pc}+0x23e ; 0x184c
        0x00001610:    f000fda8    ....    BL       __0printf ; 0x2164
        0x00001614:    f002ffe0    ....    BL       stop_Flash ; 0x45d8
        0x00001618:    e04e        N.      B        0x16b8 ; KpHandler + 828
        0x0000161a:    4848        HH      LDR      r0,[pc,#288] ; [0x173c] = 0x20000114
        0x0000161c:    8800        ..      LDRH     r0,[r0,#0]
        0x0000161e:    2800        .(      CMP      r0,#0
        0x00001620:    d107        ..      BNE      0x1632 ; KpHandler + 694
        0x00001622:    a08f        ..      ADR      r0,{pc}+0x23e ; 0x1860
        0x00001624:    f000fd9e    ....    BL       __0printf ; 0x2164
        0x00001628:    2001        .       MOVS     r0,#1
        0x0000162a:    4950        PI      LDR      r1,[pc,#320] ; [0x176c] = 0x400e0000
        0x0000162c:    6048        H`      STR      r0,[r1,#4]
        0x0000162e:    4943        CI      LDR      r1,[pc,#268] ; [0x173c] = 0x20000114
        0x00001630:    8008        ..      STRH     r0,[r1,#0]
        0x00001632:    e041        A.      B        0x16b8 ; KpHandler + 828
        0x00001634:    a094        ..      ADR      r0,{pc}+0x254 ; 0x1888
        0x00001636:    f000fd95    ....    BL       __0printf ; 0x2164
        0x0000163a:    2006        .       MOVS     r0,#6
        0x0000163c:    4922        "I      LDR      r1,[pc,#136] ; [0x16c8] = 0x200001b4
        0x0000163e:    8008        ..      STRH     r0,[r1,#0]
        0x00001640:    200f        .       MOVS     r0,#0xf
        0x00001642:    02c0        ..      LSLS     r0,r0,#11
        0x00001644:    6048        H`      STR      r0,[r1,#4]
        0x00001646:    2071        q       MOVS     r0,#0x71
        0x00001648:    0280        ..      LSLS     r0,r0,#10
        0x0000164a:    6088        .`      STR      r0,[r1,#8]
        0x0000164c:    200f        .       MOVS     r0,#0xf
        0x0000164e:    02c0        ..      LSLS     r0,r0,#11
        0x00001650:    60c8        .`      STR      r0,[r1,#0xc]
        0x00001652:    2000        .       MOVS     r0,#0
        0x00001654:    8048        H.      STRH     r0,[r1,#2]
        0x00001656:    6108        .a      STR      r0,[r1,#0x10]
        0x00001658:    8288        ..      STRH     r0,[r1,#0x14]
        0x0000165a:    82c8        ..      STRH     r0,[r1,#0x16]
        0x0000165c:    8308        ..      STRH     r0,[r1,#0x18]
        0x0000165e:    218d        .!      MOVS     r1,#0x8d
        0x00001660:    0289        ..      LSLS     r1,r1,#10
        0x00001662:    200f        .       MOVS     r0,#0xf
        0x00001664:    02c0        ..      LSLS     r0,r0,#11
        0x00001666:    f7fffcdd    ....    BL       Flash_Erase ; 0x1024
        0x0000166a:    e025        %.      B        0x16b8 ; KpHandler + 828
        0x0000166c:    a08f        ..      ADR      r0,{pc}+0x240 ; 0x18ac
        0x0000166e:    f000fd79    ..y.    BL       __0printf ; 0x2164
        0x00001672:    e021        !.      B        0x16b8 ; KpHandler + 828
        0x00001674:    a096        ..      ADR      r0,{pc}+0x25c ; 0x18d0
        0x00001676:    f000fd75    ..u.    BL       __0printf ; 0x2164
        0x0000167a:    e01d        ..      B        0x16b8 ; KpHandler + 828
        0x0000167c:    e01c        ..      B        0x16b8 ; KpHandler + 828
        0x0000167e:    e01b        ..      B        0x16b8 ; KpHandler + 828
        0x00001680:    e01a        ..      B        0x16b8 ; KpHandler + 828
        0x00001682:    f000f995    ....    BL       Led_Disable ; 0x19b0
        0x00001686:    e017        ..      B        0x16b8 ; KpHandler + 828
        0x00001688:    e016        ..      B        0x16b8 ; KpHandler + 828
        0x0000168a:    e015        ..      B        0x16b8 ; KpHandler + 828
        0x0000168c:    a099        ..      ADR      r0,{pc}+0x268 ; 0x18f4
        0x0000168e:    f000fd69    ..i.    BL       __0printf ; 0x2164
        0x00001692:    a09d        ..      ADR      r0,{pc}+0x276 ; 0x1908
        0x00001694:    f000fd66    ..f.    BL       __0printf ; 0x2164
        0x00001698:    a0a2        ..      ADR      r0,{pc}+0x28c ; 0x1924
        0x0000169a:    f000fd63    ..c.    BL       __0printf ; 0x2164
        0x0000169e:    a0a8        ..      ADR      r0,{pc}+0x2a2 ; 0x1940
        0x000016a0:    f000fd60    ..`.    BL       __0printf ; 0x2164
        0x000016a4:    a0ad        ..      ADR      r0,{pc}+0x2b8 ; 0x195c
        0x000016a6:    f000fd5d    ..].    BL       __0printf ; 0x2164
        0x000016aa:    a0b3        ..      ADR      r0,{pc}+0x2ce ; 0x1978
        0x000016ac:    f000fd5a    ..Z.    BL       __0printf ; 0x2164
        0x000016b0:    a0b8        ..      ADR      r0,{pc}+0x2e4 ; 0x1994
        0x000016b2:    f000fd57    ..W.    BL       __0printf ; 0x2164
        0x000016b6:    bf00        ..      NOP      
        0x000016b8:    bf00        ..      NOP      
        0x000016ba:    bf00        ..      NOP      
        0x000016bc:    e6b3        ..      B        0x1426 ; KpHandler + 170
    $d
        0x000016be:    0000        ..      DCW    0
        0x000016c0:    40000001    ...@    DCD    1073741825
        0x000016c4:    2000011c    ...     DCD    536871196
        0x000016c8:    200001b4    ...     DCD    536871348
        0x000016cc:    20000001    ...     DCD    536870913
        0x000016d0:    10000005    ....    DCD    268435461
        0x000016d4:    efffffff    ....    DCD    4026531839
        0x000016d8:    e0000003    ....    DCD    3758096387
        0x000016dc:    4257535b    [SWB    DCD    1113019227
        0x000016e0:    52205d30    0] R    DCD    1377852720
        0x000016e4:    726f6365    ecor    DCD    1919902565
        0x000016e8:    20726564    der     DCD    544367972
        0x000016ec:    74696e69    init    DCD    1953066601
        0x000016f0:    61732020      sa    DCD    1634934816
        0x000016f4:    696c706d    mpli    DCD    1768714349
        0x000016f8:    2e2e676e    ng..    DCD    774793070
        0x000016fc:    000a2e2e    ....    DCD    667182
        0x00001700:    20646d43    Cmd     DCD    543452483
        0x00001704:    20667542    Buf     DCD    543585602
        0x00001708:    65766168    have    DCD    1702257000
        0x0000170c:    65656220     bee    DCD    1701143072
        0x00001710:    7546206e    n Fu    DCD    1967530094
        0x00001714:    202c6c6c    ll,     DCD    539782252
        0x00001718:    276e6143    Can'    DCD    661545283
        0x0000171c:    6c412074    t Al    DCD    1816207476
        0x00001720:    20776f6c    low     DCD    544698220
        0x00001724:    63206f74    to c    DCD    1663070068
        0x00001728:    69746e6f    onti    DCD    1769238127
        0x0000172c:    2065756e    nue     DCD    543520110
        0x00001730:    6f636552    Reco    DCD    1868784978
        0x00001734:    0a206472    rd .    DCD    169895026
        0x00001738:    00000000    ....    DCD    0
        0x0000173c:    20000114    ...     DCD    536871188
        0x00001740:    20000118    ...     DCD    536871192
        0x00001744:    4257535b    [SWB    DCD    1113019227
        0x00001748:    52205d30    0] R    DCD    1377852720
        0x0000174c:    726f6365    ecor    DCD    1919902565
        0x00001750:    20726564    der     DCD    544367972
        0x00001754:    706f7473    stop    DCD    1886352499
        0x00001758:    61732020      sa    DCD    1634934816
        0x0000175c:    696c706d    mpli    DCD    1768714349
        0x00001760:    2e2e676e    ng..    DCD    774793070
        0x00001764:    000a2e2e    ....    DCD    667182
        0x00001768:    50008000    ...P    DCD    1342210048
        0x0000176c:    400e0000    ...@    DCD    1074659328
        0x00001770:    4257535b    [SWB    DCD    1113019227
        0x00001774:    52205d30    0] R    DCD    1377852720
        0x00001778:    726f6365    ecor    DCD    1919902565
        0x0000177c:    20726564    der     DCD    544367972
        0x00001780:    20636441    Adc     DCD    543384641
        0x00001784:    74696e69    init    DCD    1953066601
        0x00001788:    6d617320     sam    DCD    1835103008
        0x0000178c:    6e696c70    plin    DCD    1852402800
        0x00001790:    2e2e2e67    g...    DCD    774778471
        0x00001794:    00000a2e    ....    DCD    2606
        0x00001798:    28304250    PB0(    DCD    674251344
        0x0000179c:    31425753    SWB1    DCD    826431315
        0x000017a0:    73692029    ) is    DCD    1936269353
        0x000017a4:    6c616620     fal    DCD    1818322464
        0x000017a8:    676e696c    ling    DCD    1735289196
        0x000017ac:    61747320     sta    DCD    1635021600
        0x000017b0:    0a2e6574    te..    DCD    170812788
        0x000017b4:    00000000    ....    DCD    0
        0x000017b8:    28304250    PB0(    DCD    674251344
        0x000017bc:    31425753    SWB1    DCD    826431315
        0x000017c0:    73692029    ) is    DCD    1936269353
        0x000017c4:    73697220     ris    DCD    1936290336
        0x000017c8:    20676e69    ing     DCD    543649385
        0x000017cc:    74617473    stat    DCD    1952543859
        0x000017d0:    000a2e65    e...    DCD    667237
        0x000017d4:    28304250    PB0(    DCD    674251344
        0x000017d8:    31425753    SWB1    DCD    826431315
        0x000017dc:    73692029    ) is    DCD    1936269353
        0x000017e0:    65727020     pre    DCD    1701998624
        0x000017e4:    6e697373    ssin    DCD    1852404595
        0x000017e8:    74732067    g st    DCD    1953701991
        0x000017ec:    2e657461    ate.    DCD    778400865
        0x000017f0:    0000000a    ....    DCD    10
        0x000017f4:    4257535b    [SWB    DCD    1113019227
        0x000017f8:    52205d32    2] R    DCD    1377852722
        0x000017fc:    726f6365    ecor    DCD    1919902565
        0x00001800:    20726564    der     DCD    544367972
        0x00001804:    74696e69    init    DCD    1953066601
        0x00001808:    61732020      sa    DCD    1634934816
        0x0000180c:    696c706d    mpli    DCD    1768714349
        0x00001810:    2e2e676e    ng..    DCD    774793070
        0x00001814:    000a2e2e    ....    DCD    667182
        0x00001818:    4257535b    [SWB    DCD    1113019227
        0x0000181c:    52205d32    2] R    DCD    1377852722
        0x00001820:    726f6365    ecor    DCD    1919902565
        0x00001824:    20726564    der     DCD    544367972
        0x00001828:    706f7473    stop    DCD    1886352499
        0x0000182c:    61732020      sa    DCD    1634934816
        0x00001830:    696c706d    mpli    DCD    1768714349
        0x00001834:    2e2e676e    ng..    DCD    774793070
        0x00001838:    000a2e2e    ....    DCD    667182
        0x0000183c:    75736552    Resu    DCD    1970496850
        0x00001840:    4320746c    lt C    DCD    1126200428
        0x00001844:    255b646d    md[%    DCD    626746477
        0x00001848:    000a5d64    d]..    DCD    679268
        0x0000184c:    75736552    Resu    DCD    1970496850
        0x00001850:    4320746c    lt C    DCD    1126200428
        0x00001854:    6620646d    md f    DCD    1713398893
        0x00001858:    0a6c6961    ail.    DCD    174877025
        0x0000185c:    00000000    ....    DCD    0
        0x00001860:    4257535b    [SWB    DCD    1113019227
        0x00001864:    52205d32    2] R    DCD    1377852722
        0x00001868:    726f6365    ecor    DCD    1919902565
        0x0000186c:    20726564    der     DCD    544367972
        0x00001870:    20636441    Adc     DCD    543384641
        0x00001874:    74696e69    init    DCD    1953066601
        0x00001878:    6d617320     sam    DCD    1835103008
        0x0000187c:    6e696c70    plin    DCD    1852402800
        0x00001880:    2e2e2e67    g...    DCD    774778471
        0x00001884:    00000a2e    ....    DCD    2606
        0x00001888:    4257535b    [SWB    DCD    1113019227
        0x0000188c:    52205d33    3] R    DCD    1377852723
        0x00001890:    74657365    eset    DCD    1952805733
        0x00001894:    73795320     Sys    DCD    1937330976
        0x00001898:    3a6d6574    tem:    DCD    980247924
        0x0000189c:    61747320     sta    DCD    1635021600
        0x000018a0:    6e697472    rtin    DCD    1852404850
        0x000018a4:    2e2e2e67    g...    DCD    774778471
        0x000018a8:    0000000a    ....    DCD    10
        0x000018ac:    4257535b    [SWB    DCD    1113019227
        0x000018b0:    52205d33    3] R    DCD    1377852723
        0x000018b4:    74657365    eset    DCD    1952805733
        0x000018b8:    73795320     Sys    DCD    1937330976
        0x000018bc:    3a6d6574    tem:    DCD    980247924
        0x000018c0:    6d6f6320     com    DCD    1836016416
        0x000018c4:    74656c70    plet    DCD    1952803952
        0x000018c8:    2e2e2e65    e...    DCD    774778469
        0x000018cc:    0000000a    ....    DCD    10
        0x000018d0:    4257535b    [SWB    DCD    1113019227
        0x000018d4:    52205d33    3] R    DCD    1377852723
        0x000018d8:    74657365    eset    DCD    1952805733
        0x000018dc:    73795320     Sys    DCD    1937330976
        0x000018e0:    3a6d6574    tem:    DCD    980247924
        0x000018e4:    6f727020     pro    DCD    1869770784
        0x000018e8:    73736563    cess    DCD    1936942435
        0x000018ec:    2e676e69    ing.    DCD    778530409
        0x000018f0:    000a2e2e    ....    DCD    667182
        0x000018f4:    61656c50    Plea    DCD    1634036816
        0x000018f8:    70206573    se p    DCD    1881171315
        0x000018fc:    73736572    ress    DCD    1936942450
        0x00001900:    79656b20     key    DCD    2036689696
        0x00001904:    000a203a    : ..    DCD    663610
        0x00001908:    6f636552    Reco    DCD    1868784978
        0x0000190c:    20206472    rd      DCD    538993778
        0x00001910:    20202020            DCD    538976288
        0x00001914:    2d202020       -    DCD    757080096
        0x00001918:    53203e2d    -> S    DCD    1394621997
        0x0000191c:    20304257    WB0     DCD    540033623
        0x00001920:    0000000a    ....    DCD    10
        0x00001924:    6b636142    Back    DCD    1801675074
        0x00001928:    70657453    Step    DCD    1885697107
        0x0000192c:    20202020            DCD    538976288
        0x00001930:    2d202020       -    DCD    757080096
        0x00001934:    53203e2d    -> S    DCD    1394621997
        0x00001938:    20314257    WB1     DCD    540099159
        0x0000193c:    0000000a    ....    DCD    10
        0x00001940:    65657053    Spee    DCD    1701146707
        0x00001944:    65526863    chRe    DCD    1699899491
        0x00001948:    20206f63    co      DCD    538996579
        0x0000194c:    2d202020       -    DCD    757080096
        0x00001950:    53203e2d    -> S    DCD    1394621997
        0x00001954:    20324257    WB2     DCD    540164695
        0x00001958:    0000000a    ....    DCD    10
        0x0000195c:    65736552    Rese    DCD    1702061394
        0x00001960:    79532074    t Sy    DCD    2035490932
        0x00001964:    6d657473    stem    DCD    1835365491
        0x00001968:    2d202020       -    DCD    757080096
        0x0000196c:    53203e2d    -> S    DCD    1394621997
        0x00001970:    20334257    WB3     DCD    540230231
        0x00001974:    0000000a    ....    DCD    10
        0x00001978:    62616e45    Enab    DCD    1650552389
        0x0000197c:    2020656c    le      DCD    538994028
        0x00001980:    4c636552    RecL    DCD    1281582418
        0x00001984:    2d206465    ed -    DCD    757097573
        0x00001988:    53203e2d    -> S    DCD    1394621997
        0x0000198c:    20344257    WB4     DCD    540295767
        0x00001990:    0000000a    ....    DCD    10
        0x00001994:    61736944    Disa    DCD    1634953540
        0x00001998:    20656c62    ble     DCD    543517794
        0x0000199c:    4c636552    RecL    DCD    1281582418
        0x000019a0:    2d206465    ed -    DCD    757097573
        0x000019a4:    53203e2d    -> S    DCD    1394621997
        0x000019a8:    20354257    WB5     DCD    540361303
        0x000019ac:    0000000a    ....    DCD    10
    $t
    i.Led_Disable
    Led_Disable
        0x000019b0:    2001        .       MOVS     r0,#1
        0x000019b2:    0300        ..      LSLS     r0,r0,#12
        0x000019b4:    4907        .I      LDR      r1,[pc,#28] ; [0x19d4] = 0x50004000
        0x000019b6:    6088        .`      STR      r0,[r1,#8]
        0x000019b8:    0040        @.      LSLS     r0,r0,#1
        0x000019ba:    6088        .`      STR      r0,[r1,#8]
        0x000019bc:    0040        @.      LSLS     r0,r0,#1
        0x000019be:    6088        .`      STR      r0,[r1,#8]
        0x000019c0:    0040        @.      LSLS     r0,r0,#1
        0x000019c2:    6088        .`      STR      r0,[r1,#8]
        0x000019c4:    2010        .       MOVS     r0,#0x10
        0x000019c6:    4903        .I      LDR      r1,[pc,#12] ; [0x19d4] = 0x50004000
        0x000019c8:    3140        @1      ADDS     r1,r1,#0x40
        0x000019ca:    6088        .`      STR      r0,[r1,#8]
        0x000019cc:    2020                MOVS     r0,#0x20
        0x000019ce:    6088        .`      STR      r0,[r1,#8]
        0x000019d0:    4770        pG      BX       lr
    $d
        0x000019d2:    0000        ..      DCW    0
        0x000019d4:    50004000    .@.P    DCD    1342193664
    $t
    i.NVIC_ClearPendingIRQ
    NVIC_ClearPendingIRQ
        0x000019d8:    06c2        ..      LSLS     r2,r0,#27
        0x000019da:    0ed2        ..      LSRS     r2,r2,#27
        0x000019dc:    2101        .!      MOVS     r1,#1
        0x000019de:    4091        .@      LSLS     r1,r1,r2
        0x000019e0:    4a01        .J      LDR      r2,[pc,#4] ; [0x19e8] = 0xe000e280
        0x000019e2:    6011        .`      STR      r1,[r2,#0]
        0x000019e4:    4770        pG      BX       lr
    $d
        0x000019e6:    0000        ..      DCW    0
        0x000019e8:    e000e280    ....    DCD    3758154368
    $t
    i.NVIC_DisableIRQ
    NVIC_DisableIRQ
        0x000019ec:    06c2        ..      LSLS     r2,r0,#27
        0x000019ee:    0ed2        ..      LSRS     r2,r2,#27
        0x000019f0:    2101        .!      MOVS     r1,#1
        0x000019f2:    4091        .@      LSLS     r1,r1,r2
        0x000019f4:    4a01        .J      LDR      r2,[pc,#4] ; [0x19fc] = 0xe000e180
        0x000019f6:    6011        .`      STR      r1,[r2,#0]
        0x000019f8:    4770        pG      BX       lr
    $d
        0x000019fa:    0000        ..      DCW    0
        0x000019fc:    e000e180    ....    DCD    3758154112
    $t
    i.NVIC_EnableIRQ
    NVIC_EnableIRQ
        0x00001a00:    06c2        ..      LSLS     r2,r0,#27
        0x00001a02:    0ed2        ..      LSRS     r2,r2,#27
        0x00001a04:    2101        .!      MOVS     r1,#1
        0x00001a06:    4091        .@      LSLS     r1,r1,r2
        0x00001a08:    4a01        .J      LDR      r2,[pc,#4] ; [0x1a10] = 0xe000e100
        0x00001a0a:    6011        .`      STR      r1,[r2,#0]
        0x00001a0c:    4770        pG      BX       lr
    $d
        0x00001a0e:    0000        ..      DCW    0
        0x00001a10:    e000e100    ....    DCD    3758153984
    $t
    i.PDMA_IRQHandler
    PDMA_IRQHandler
        0x00001a14:    b538        8.      PUSH     {r3-r5,lr}
        0x00001a16:    2400        .$      MOVS     r4,#0
        0x00001a18:    4835        5H      LDR      r0,[pc,#212] ; [0x1af0] = 0x50008f00
        0x00001a1a:    68c0        .h      LDR      r0,[r0,#0xc]
        0x00001a1c:    07c0        ..      LSLS     r0,r0,#31
        0x00001a1e:    0fc0        ..      LSRS     r0,r0,#31
        0x00001a20:    2800        .(      CMP      r0,#0
        0x00001a22:    d064        d.      BEQ      0x1aee ; PDMA_IRQHandler + 218
        0x00001a24:    4833        3H      LDR      r0,[pc,#204] ; [0x1af4] = 0x20000118
        0x00001a26:    8800        ..      LDRH     r0,[r0,#0]
        0x00001a28:    2800        .(      CMP      r0,#0
        0x00001a2a:    d10b        ..      BNE      0x1a44 ; PDMA_IRQHandler + 48
        0x00001a2c:    4832        2H      LDR      r0,[pc,#200] ; [0x1af8] = 0x200001b4
        0x00001a2e:    6900        .i      LDR      r0,[r0,#0x10]
        0x00001a30:    214b        K!      MOVS     r1,#0x4b
        0x00001a32:    0109        ..      LSLS     r1,r1,#4
        0x00001a34:    4288        .B      CMP      r0,r1
        0x00001a36:    d905        ..      BLS      0x1a44 ; PDMA_IRQHandler + 48
        0x00001a38:    a030        0.      ADR      r0,{pc}+0xc4 ; 0x1afc
        0x00001a3a:    f000fb93    ....    BL       __0printf ; 0x2164
        0x00001a3e:    2001        .       MOVS     r0,#1
        0x00001a40:    492c        ,I      LDR      r1,[pc,#176] ; [0x1af4] = 0x20000118
        0x00001a42:    8008        ..      STRH     r0,[r1,#0]
        0x00001a44:    4833        3H      LDR      r0,[pc,#204] ; [0x1b14] = 0x50008000
        0x00001a46:    6a40        @j      LDR      r0,[r0,#0x24]
        0x00001a48:    2101        .!      MOVS     r1,#1
        0x00001a4a:    0289        ..      LSLS     r1,r1,#10
        0x00001a4c:    4008        .@      ANDS     r0,r0,r1
        0x00001a4e:    2800        .(      CMP      r0,#0
        0x00001a50:    d026        &.      BEQ      0x1aa0 ; PDMA_IRQHandler + 140
        0x00001a52:    4829        )H      LDR      r0,[pc,#164] ; [0x1af8] = 0x200001b4
        0x00001a54:    8a80        ..      LDRH     r0,[r0,#0x14]
        0x00001a56:    2800        .(      CMP      r0,#0
        0x00001a58:    d11d        ..      BNE      0x1a96 ; PDMA_IRQHandler + 130
        0x00001a5a:    4827        'H      LDR      r0,[pc,#156] ; [0x1af8] = 0x200001b4
        0x00001a5c:    8ac0        ..      LDRH     r0,[r0,#0x16]
        0x00001a5e:    2800        .(      CMP      r0,#0
        0x00001a60:    d119        ..      BNE      0x1a96 ; PDMA_IRQHandler + 130
        0x00001a62:    482d        -H      LDR      r0,[pc,#180] ; [0x1b18] = 0x20000114
        0x00001a64:    8800        ..      LDRH     r0,[r0,#0]
        0x00001a66:    2801        .(      CMP      r0,#1
        0x00001a68:    d115        ..      BNE      0x1a96 ; PDMA_IRQHandler + 130
        0x00001a6a:    4823        #H      LDR      r0,[pc,#140] ; [0x1af8] = 0x200001b4
        0x00001a6c:    3014        .0      ADDS     r0,r0,#0x14
        0x00001a6e:    4a22        "J      LDR      r2,[pc,#136] ; [0x1af8] = 0x200001b4
        0x00001a70:    9000        ..      STR      r0,[sp,#0]
        0x00001a72:    6891        .h      LDR      r1,[r2,#8]
        0x00001a74:    68d0        .h      LDR      r0,[r2,#0xc]
        0x00001a76:    2308        .#      MOVS     r3,#8
        0x00001a78:    4a28        (J      LDR      r2,[pc,#160] ; [0x1b1c] = 0x200001d0
        0x00001a7a:    f7fffae9    ....    BL       Flash_Write ; 0x1050
        0x00001a7e:    4604        .F      MOV      r4,r0
        0x00001a80:    481d        .H      LDR      r0,[pc,#116] ; [0x1af8] = 0x200001b4
        0x00001a82:    6900        .i      LDR      r0,[r0,#0x10]
        0x00001a84:    1900        ..      ADDS     r0,r0,r4
        0x00001a86:    491c        .I      LDR      r1,[pc,#112] ; [0x1af8] = 0x200001b4
        0x00001a88:    6108        .a      STR      r0,[r1,#0x10]
        0x00001a8a:    4608        .F      MOV      r0,r1
        0x00001a8c:    68c0        .h      LDR      r0,[r0,#0xc]
        0x00001a8e:    00a1        ..      LSLS     r1,r4,#2
        0x00001a90:    1840        @.      ADDS     r0,r0,r1
        0x00001a92:    4919        .I      LDR      r1,[pc,#100] ; [0x1af8] = 0x200001b4
        0x00001a94:    60c8        .`      STR      r0,[r1,#0xc]
        0x00001a96:    2001        .       MOVS     r0,#1
        0x00001a98:    0280        ..      LSLS     r0,r0,#10
        0x00001a9a:    491e        .I      LDR      r1,[pc,#120] ; [0x1b14] = 0x50008000
        0x00001a9c:    6248        Hb      STR      r0,[r1,#0x24]
        0x00001a9e:    e026        &.      B        0x1aee ; PDMA_IRQHandler + 218
        0x00001aa0:    4815        .H      LDR      r0,[pc,#84] ; [0x1af8] = 0x200001b4
        0x00001aa2:    8a80        ..      LDRH     r0,[r0,#0x14]
        0x00001aa4:    2800        .(      CMP      r0,#0
        0x00001aa6:    d11e        ..      BNE      0x1ae6 ; PDMA_IRQHandler + 210
        0x00001aa8:    4813        .H      LDR      r0,[pc,#76] ; [0x1af8] = 0x200001b4
        0x00001aaa:    8ac0        ..      LDRH     r0,[r0,#0x16]
        0x00001aac:    2800        .(      CMP      r0,#0
        0x00001aae:    d11a        ..      BNE      0x1ae6 ; PDMA_IRQHandler + 210
        0x00001ab0:    4819        .H      LDR      r0,[pc,#100] ; [0x1b18] = 0x20000114
        0x00001ab2:    8800        ..      LDRH     r0,[r0,#0]
        0x00001ab4:    2801        .(      CMP      r0,#1
        0x00001ab6:    d116        ..      BNE      0x1ae6 ; PDMA_IRQHandler + 210
        0x00001ab8:    480f        .H      LDR      r0,[pc,#60] ; [0x1af8] = 0x200001b4
        0x00001aba:    3014        .0      ADDS     r0,r0,#0x14
        0x00001abc:    4a0e        .J      LDR      r2,[pc,#56] ; [0x1af8] = 0x200001b4
        0x00001abe:    9000        ..      STR      r0,[sp,#0]
        0x00001ac0:    6891        .h      LDR      r1,[r2,#8]
        0x00001ac2:    68d0        .h      LDR      r0,[r2,#0xc]
        0x00001ac4:    2308        .#      MOVS     r3,#8
        0x00001ac6:    4a15        .J      LDR      r2,[pc,#84] ; [0x1b1c] = 0x200001d0
        0x00001ac8:    3210        .2      ADDS     r2,r2,#0x10
        0x00001aca:    f7fffac1    ....    BL       Flash_Write ; 0x1050
        0x00001ace:    4604        .F      MOV      r4,r0
        0x00001ad0:    4809        .H      LDR      r0,[pc,#36] ; [0x1af8] = 0x200001b4
        0x00001ad2:    6900        .i      LDR      r0,[r0,#0x10]
        0x00001ad4:    1900        ..      ADDS     r0,r0,r4
        0x00001ad6:    4908        .I      LDR      r1,[pc,#32] ; [0x1af8] = 0x200001b4
        0x00001ad8:    6108        .a      STR      r0,[r1,#0x10]
        0x00001ada:    4608        .F      MOV      r0,r1
        0x00001adc:    68c0        .h      LDR      r0,[r0,#0xc]
        0x00001ade:    00a1        ..      LSLS     r1,r4,#2
        0x00001ae0:    1840        @.      ADDS     r0,r0,r1
        0x00001ae2:    4905        .I      LDR      r1,[pc,#20] ; [0x1af8] = 0x200001b4
        0x00001ae4:    60c8        .`      STR      r0,[r1,#0xc]
        0x00001ae6:    20ff        .       MOVS     r0,#0xff
        0x00001ae8:    3001        .0      ADDS     r0,#1
        0x00001aea:    490a        .I      LDR      r1,[pc,#40] ; [0x1b14] = 0x50008000
        0x00001aec:    6248        Hb      STR      r0,[r1,#0x24]
        0x00001aee:    bd38        8.      POP      {r3-r5,pc}
    $d
        0x00001af0:    50008f00    ...P    DCD    1342213888
        0x00001af4:    20000118    ...     DCD    536871192
        0x00001af8:    200001b4    ...     DCD    536871348
        0x00001afc:    61656c50    Plea    DCD    1634036816
        0x00001b00:    53206573    se S    DCD    1394632051
        0x00001b04:    74726174    tart    DCD    1953653108
        0x00001b08:    65705320     Spe    DCD    1701860128
        0x00001b0c:    0a686365    ech.    DCD    174613349
        0x00001b10:    00000000    ....    DCD    0
        0x00001b14:    50008000    ...P    DCD    1342210048
        0x00001b18:    20000114    ...     DCD    536871188
        0x00001b1c:    200001d0    ...     DCD    536871376
    $t
    i.PDMA_Init
    PDMA_Init
        0x00001b20:    b508        ..      PUSH     {r3,lr}
        0x00001b22:    200a        .       MOVS     r0,#0xa
        0x00001b24:    9000        ..      STR      r0,[sp,#0]
        0x00001b26:    2001        .       MOVS     r0,#1
        0x00001b28:    f7fff97c    ..|.    BL       CLK_EnableModuleClock ; 0xe24
        0x00001b2c:    2002        .       MOVS     r0,#2
        0x00001b2e:    f000f973    ..s.    BL       SYS_ResetModule ; 0x1e18
        0x00001b32:    4831        1H      LDR      r0,[pc,#196] ; [0x1bf8] = 0x50008f00
        0x00001b34:    6800        .h      LDR      r0,[r0,#0]
        0x00001b36:    21ff        .!      MOVS     r1,#0xff
        0x00001b38:    3101        .1      ADDS     r1,#1
        0x00001b3a:    4308        .C      ORRS     r0,r0,r1
        0x00001b3c:    492e        .I      LDR      r1,[pc,#184] ; [0x1bf8] = 0x50008f00
        0x00001b3e:    6008        .`      STR      r0,[r1,#0]
        0x00001b40:    482e        .H      LDR      r0,[pc,#184] ; [0x1bfc] = 0x50008000
        0x00001b42:    6800        .h      LDR      r0,[r0,#0]
        0x00001b44:    2102        .!      MOVS     r1,#2
        0x00001b46:    4308        .C      ORRS     r0,r0,r1
        0x00001b48:    492c        ,I      LDR      r1,[pc,#176] ; [0x1bfc] = 0x50008000
        0x00001b4a:    6008        .`      STR      r0,[r1,#0]
        0x00001b4c:    4608        .F      MOV      r0,r1
        0x00001b4e:    6800        .h      LDR      r0,[r0,#0]
        0x00001b50:    2101        .!      MOVS     r1,#1
        0x00001b52:    4308        .C      ORRS     r0,r0,r1
        0x00001b54:    4929        )I      LDR      r1,[pc,#164] ; [0x1bfc] = 0x50008000
        0x00001b56:    6008        .`      STR      r0,[r1,#0]
        0x00001b58:    bf00        ..      NOP      
        0x00001b5a:    9800        ..      LDR      r0,[sp,#0]
        0x00001b5c:    1e41        A.      SUBS     r1,r0,#1
        0x00001b5e:    9100        ..      STR      r1,[sp,#0]
        0x00001b60:    2800        .(      CMP      r0,#0
        0x00001b62:    d1fa        ..      BNE      0x1b5a ; PDMA_Init + 58
        0x00001b64:    4824        $H      LDR      r0,[pc,#144] ; [0x1bf8] = 0x50008f00
        0x00001b66:    6840        @h      LDR      r0,[r0,#4]
        0x00001b68:    210f        .!      MOVS     r1,#0xf
        0x00001b6a:    0209        ..      LSLS     r1,r1,#8
        0x00001b6c:    4388        .C      BICS     r0,r0,r1
        0x00001b6e:    4922        "I      LDR      r1,[pc,#136] ; [0x1bf8] = 0x50008f00
        0x00001b70:    6048        H`      STR      r0,[r1,#4]
        0x00001b72:    4608        .F      MOV      r0,r1
        0x00001b74:    6840        @h      LDR      r0,[r0,#4]
        0x00001b76:    6048        H`      STR      r0,[r1,#4]
        0x00001b78:    4821        !H      LDR      r0,[pc,#132] ; [0x1c00] = 0x400e0000
        0x00001b7a:    4920         I      LDR      r1,[pc,#128] ; [0x1bfc] = 0x50008000
        0x00001b7c:    6048        H`      STR      r0,[r1,#4]
        0x00001b7e:    4821        !H      LDR      r0,[pc,#132] ; [0x1c04] = 0x200001d0
        0x00001b80:    6088        .`      STR      r0,[r1,#8]
        0x00001b82:    4608        .F      MOV      r0,r1
        0x00001b84:    6800        .h      LDR      r0,[r0,#0]
        0x00001b86:    2120         !      MOVS     r1,#0x20
        0x00001b88:    4308        .C      ORRS     r0,r0,r1
        0x00001b8a:    491c        .I      LDR      r1,[pc,#112] ; [0x1bfc] = 0x50008000
        0x00001b8c:    6008        .`      STR      r0,[r1,#0]
        0x00001b8e:    4608        .F      MOV      r0,r1
        0x00001b90:    6800        .h      LDR      r0,[r0,#0]
        0x00001b92:    21c0        .!      MOVS     r1,#0xc0
        0x00001b94:    4308        .C      ORRS     r0,r0,r1
        0x00001b96:    4919        .I      LDR      r1,[pc,#100] ; [0x1bfc] = 0x50008000
        0x00001b98:    6008        .`      STR      r0,[r1,#0]
        0x00001b9a:    4608        .F      MOV      r0,r1
        0x00001b9c:    6800        .h      LDR      r0,[r0,#0]
        0x00001b9e:    0149        I.      LSLS     r1,r1,#5
        0x00001ba0:    4308        .C      ORRS     r0,r0,r1
        0x00001ba2:    4916        .I      LDR      r1,[pc,#88] ; [0x1bfc] = 0x50008000
        0x00001ba4:    6008        .`      STR      r0,[r1,#0]
        0x00001ba6:    4608        .F      MOV      r0,r1
        0x00001ba8:    6800        .h      LDR      r0,[r0,#0]
        0x00001baa:    2104        .!      MOVS     r1,#4
        0x00001bac:    4308        .C      ORRS     r0,r0,r1
        0x00001bae:    4913        .I      LDR      r1,[pc,#76] ; [0x1bfc] = 0x50008000
        0x00001bb0:    6008        .`      STR      r0,[r1,#0]
        0x00001bb2:    4608        .F      MOV      r0,r1
        0x00001bb4:    6800        .h      LDR      r0,[r0,#0]
        0x00001bb6:    1409        ..      ASRS     r1,r1,#16
        0x00001bb8:    4308        .C      ORRS     r0,r0,r1
        0x00001bba:    4910        .I      LDR      r1,[pc,#64] ; [0x1bfc] = 0x50008000
        0x00001bbc:    6008        .`      STR      r0,[r1,#0]
        0x00001bbe:    2020                MOVS     r0,#0x20
        0x00001bc0:    60c8        .`      STR      r0,[r1,#0xc]
        0x00001bc2:    2004        .       MOVS     r0,#4
        0x00001bc4:    6208        .b      STR      r0,[r1,#0x20]
        0x00001bc6:    480e        .H      LDR      r0,[pc,#56] ; [0x1c00] = 0x400e0000
        0x00001bc8:    6940        @i      LDR      r0,[r0,#0x14]
        0x00001bca:    2101        .!      MOVS     r1,#1
        0x00001bcc:    4308        .C      ORRS     r0,r0,r1
        0x00001bce:    490c        .I      LDR      r1,[pc,#48] ; [0x1c00] = 0x400e0000
        0x00001bd0:    6148        Ha      STR      r0,[r1,#0x14]
        0x00001bd2:    4608        .F      MOV      r0,r1
        0x00001bd4:    6900        .i      LDR      r0,[r0,#0x10]
        0x00001bd6:    0040        @.      LSLS     r0,r0,#1
        0x00001bd8:    0840        @.      LSRS     r0,r0,#1
        0x00001bda:    6108        .a      STR      r0,[r1,#0x10]
        0x00001bdc:    201a        .       MOVS     r0,#0x1a
        0x00001bde:    f7fffefb    ....    BL       NVIC_ClearPendingIRQ ; 0x19d8
        0x00001be2:    201a        .       MOVS     r0,#0x1a
        0x00001be4:    f7ffff0c    ....    BL       NVIC_EnableIRQ ; 0x1a00
        0x00001be8:    4804        .H      LDR      r0,[pc,#16] ; [0x1bfc] = 0x50008000
        0x00001bea:    6800        .h      LDR      r0,[r0,#0]
        0x00001bec:    2101        .!      MOVS     r1,#1
        0x00001bee:    05c9        ..      LSLS     r1,r1,#23
        0x00001bf0:    4308        .C      ORRS     r0,r0,r1
        0x00001bf2:    4902        .I      LDR      r1,[pc,#8] ; [0x1bfc] = 0x50008000
        0x00001bf4:    6008        .`      STR      r0,[r1,#0]
        0x00001bf6:    bd08        ..      POP      {r3,pc}
    $d
        0x00001bf8:    50008f00    ...P    DCD    1342213888
        0x00001bfc:    50008000    ...P    DCD    1342210048
        0x00001c00:    400e0000    ...@    DCD    1074659328
        0x00001c04:    200001d0    ...     DCD    536871376
    $t
    i.Recognize_Process
    Recognize_Process
        0x00001c08:    b5f7        ..      PUSH     {r0-r2,r4-r7,lr}
        0x00001c0a:    b082        ..      SUB      sp,sp,#8
        0x00001c0c:    4617        .F      MOV      r7,r2
        0x00001c0e:    2400        .$      MOVS     r4,#0
        0x00001c10:    2000        .       MOVS     r0,#0
        0x00001c12:    9001        ..      STR      r0,[sp,#4]
        0x00001c14:    9903        ..      LDR      r1,[sp,#0xc]
        0x00001c16:    9802        ..      LDR      r0,[sp,#8]
        0x00001c18:    f002fc12    ....    BL       procNoise ; 0x4440
        0x00001c1c:    f002fcfa    ....    BL       vad ; 0x4614
        0x00001c20:    4604        .F      MOV      r4,r0
        0x00001c22:    2c00        .,      CMP      r4,#0
        0x00001c24:    da07        ..      BGE      0x1c36 ; Recognize_Process + 46
        0x00001c26:    4639        9F      MOV      r1,r7
        0x00001c28:    a013        ..      ADR      r0,{pc}+0x50 ; 0x1c78
        0x00001c2a:    f000fa9b    ....    BL       __0printf ; 0x2164
        0x00001c2e:    2000        .       MOVS     r0,#0
        0x00001c30:    43c0        .C      MVNS     r0,r0
        0x00001c32:    b005        ..      ADD      sp,sp,#0x14
        0x00001c34:    bdf0        ..      POP      {r4-r7,pc}
        0x00001c36:    4638        8F      MOV      r0,r7
        0x00001c38:    f001fda4    ....    BL       mfcc ; 0x3784
        0x00001c3c:    4604        .F      MOV      r4,r0
        0x00001c3e:    2c00        .,      CMP      r4,#0
        0x00001c40:    da06        ..      BGE      0x1c50 ; Recognize_Process + 72
        0x00001c42:    4639        9F      MOV      r1,r7
        0x00001c44:    a015        ..      ADR      r0,{pc}+0x58 ; 0x1c9c
        0x00001c46:    f000fa8d    ....    BL       __0printf ; 0x2164
        0x00001c4a:    2000        .       MOVS     r0,#0
        0x00001c4c:    43c0        .C      MVNS     r0,r0
        0x00001c4e:    e7f0        ..      B        0x1c32 ; Recognize_Process + 42
        0x00001c50:    a801        ..      ADD      r0,sp,#4
        0x00001c52:    f001f95d    ..].    BL       dtw ; 0x2f10
        0x00001c56:    4604        .F      MOV      r4,r0
        0x00001c58:    4621        !F      MOV      r1,r4
        0x00001c5a:    a019        ..      ADR      r0,{pc}+0x66 ; 0x1cc0
        0x00001c5c:    f000fa82    ....    BL       __0printf ; 0x2164
        0x00001c60:    9801        ..      LDR      r0,[sp,#4]
        0x00001c62:    f7fefd0b    ....    BL       __aeabi_f2d ; 0x67c
        0x00001c66:    4605        .F      MOV      r5,r0
        0x00001c68:    462a        *F      MOV      r2,r5
        0x00001c6a:    460b        .F      MOV      r3,r1
        0x00001c6c:    a017        ..      ADR      r0,{pc}+0x60 ; 0x1ccc
        0x00001c6e:    f000fa79    ..y.    BL       __0printf ; 0x2164
        0x00001c72:    4620         F      MOV      r0,r4
        0x00001c74:    e7dd        ..      B        0x1c32 ; Recognize_Process + 42
    $d
        0x00001c76:    0000        ..      DCW    0
        0x00001c78:    5b646d43    Cmd[    DCD    1533308227
        0x00001c7c:    205d6425    %d]     DCD    542991397
        0x00001c80:    6f636552    Reco    DCD    1868784978
        0x00001c84:    50206472    rd P    DCD    1344300146
        0x00001c88:    65636f72    roce    DCD    1701015410
        0x00001c8c:    76207373    ss v    DCD    1981838195
        0x00001c90:    66206461    ad f    DCD    1713398881
        0x00001c94:    0a6c6961    ail.    DCD    174877025
        0x00001c98:    00000000    ....    DCD    0
        0x00001c9c:    5b646d43    Cmd[    DCD    1533308227
        0x00001ca0:    205d6425    %d]     DCD    542991397
        0x00001ca4:    6f636552    Reco    DCD    1868784978
        0x00001ca8:    50206472    rd P    DCD    1344300146
        0x00001cac:    65636f72    roce    DCD    1701015410
        0x00001cb0:    6d207373    ss m    DCD    1830843251
        0x00001cb4:    20636366    fcc     DCD    543384422
        0x00001cb8:    6c696166    fail    DCD    1818845542
        0x00001cbc:    0000000a    ....    DCD    10
        0x00001cc0:    5b646d43    Cmd[    DCD    1533308227
        0x00001cc4:    205d6425    %d]     DCD    542991397
        0x00001cc8:    00000020     ...    DCD    32
        0x00001ccc:    5b777444    Dtw[    DCD    1534555204
        0x00001cd0:    0a5d6625    %f].    DCD    173893157
        0x00001cd4:    00000000    ....    DCD    0
    $t
    i.Record_Process
    Record_Process
        0x00001cd8:    b5f8        ..      PUSH     {r3-r7,lr}
        0x00001cda:    4606        .F      MOV      r6,r0
        0x00001cdc:    460f        .F      MOV      r7,r1
        0x00001cde:    4614        .F      MOV      r4,r2
        0x00001ce0:    2500        .%      MOVS     r5,#0
        0x00001ce2:    4639        9F      MOV      r1,r7
        0x00001ce4:    4630        0F      MOV      r0,r6
        0x00001ce6:    f002fbab    ....    BL       procNoise ; 0x4440
        0x00001cea:    f002fc93    ....    BL       vad ; 0x4614
        0x00001cee:    4605        .F      MOV      r5,r0
        0x00001cf0:    2d00        .-      CMP      r5,#0
        0x00001cf2:    da06        ..      BGE      0x1d02 ; Record_Process + 42
        0x00001cf4:    4621        !F      MOV      r1,r4
        0x00001cf6:    a00a        ..      ADR      r0,{pc}+0x2a ; 0x1d20
        0x00001cf8:    f000fa34    ..4.    BL       __0printf ; 0x2164
        0x00001cfc:    2000        .       MOVS     r0,#0
        0x00001cfe:    43c0        .C      MVNS     r0,r0
        0x00001d00:    bdf8        ..      POP      {r3-r7,pc}
        0x00001d02:    4620         F      MOV      r0,r4
        0x00001d04:    f001fd3e    ..>.    BL       mfcc ; 0x3784
        0x00001d08:    4605        .F      MOV      r5,r0
        0x00001d0a:    2d00        .-      CMP      r5,#0
        0x00001d0c:    da06        ..      BGE      0x1d1c ; Record_Process + 68
        0x00001d0e:    4621        !F      MOV      r1,r4
        0x00001d10:    a00c        ..      ADR      r0,{pc}+0x34 ; 0x1d44
        0x00001d12:    f000fa27    ..'.    BL       __0printf ; 0x2164
        0x00001d16:    2000        .       MOVS     r0,#0
        0x00001d18:    43c0        .C      MVNS     r0,r0
        0x00001d1a:    e7f1        ..      B        0x1d00 ; Record_Process + 40
        0x00001d1c:    4628        (F      MOV      r0,r5
        0x00001d1e:    e7ef        ..      B        0x1d00 ; Record_Process + 40
    $d
        0x00001d20:    5b646d43    Cmd[    DCD    1533308227
        0x00001d24:    205d6425    %d]     DCD    542991397
        0x00001d28:    6f636552    Reco    DCD    1868784978
        0x00001d2c:    50206472    rd P    DCD    1344300146
        0x00001d30:    65636f72    roce    DCD    1701015410
        0x00001d34:    76207373    ss v    DCD    1981838195
        0x00001d38:    66206461    ad f    DCD    1713398881
        0x00001d3c:    0a6c6961    ail.    DCD    174877025
        0x00001d40:    00000000    ....    DCD    0
        0x00001d44:    5b646d43    Cmd[    DCD    1533308227
        0x00001d48:    205d6425    %d]     DCD    542991397
        0x00001d4c:    6f636552    Reco    DCD    1868784978
        0x00001d50:    50206472    rd P    DCD    1344300146
        0x00001d54:    65636f72    roce    DCD    1701015410
        0x00001d58:    6d207373    ss m    DCD    1830843251
        0x00001d5c:    20636366    fcc     DCD    543384422
        0x00001d60:    6c696166    fail    DCD    1818845542
        0x00001d64:    00000000    ....    DCD    0
    $t
    i.Reverse
    Reverse
        0x00001d68:    b510        ..      PUSH     {r4,lr}
        0x00001d6a:    4602        .F      MOV      r2,r0
        0x00001d6c:    2000        .       MOVS     r0,#0
        0x00001d6e:    e00f        ..      B        0x1d90 ; Reverse + 40
        0x00001d70:    0043        C.      LSLS     r3,r0,#1
        0x00001d72:    4c0a        .L      LDR      r4,[pc,#40] ; [0x1d9c] = 0x4944
        0x00001d74:    5ee3        .^      LDRSH    r3,[r4,r3]
        0x00001d76:    2401        .$      MOVS     r4,#1
        0x00001d78:    02a4        ..      LSLS     r4,r4,#10
        0x00001d7a:    42a3        .B      CMP      r3,r4
        0x00001d7c:    da06        ..      BGE      0x1d8c ; Reverse + 36
        0x00001d7e:    0043        C.      LSLS     r3,r0,#1
        0x00001d80:    4c06        .L      LDR      r4,[pc,#24] ; [0x1d9c] = 0x4944
        0x00001d82:    5ee3        .^      LDRSH    r3,[r4,r3]
        0x00001d84:    009b        ..      LSLS     r3,r3,#2
        0x00001d86:    58cb        .X      LDR      r3,[r1,r3]
        0x00001d88:    00c4        ..      LSLS     r4,r0,#3
        0x00001d8a:    5113        .Q      STR      r3,[r2,r4]
        0x00001d8c:    1c43        C.      ADDS     r3,r0,#1
        0x00001d8e:    b298        ..      UXTH     r0,r3
        0x00001d90:    2301        .#      MOVS     r3,#1
        0x00001d92:    029b        ..      LSLS     r3,r3,#10
        0x00001d94:    4298        .B      CMP      r0,r3
        0x00001d96:    dbeb        ..      BLT      0x1d70 ; Reverse + 8
        0x00001d98:    bd10        ..      POP      {r4,pc}
    $d
        0x00001d9a:    0000        ..      DCW    0
        0x00001d9c:    00004944    DI..    DCD    18756
    $t
    i.SYS_Init
    SYS_Init
        0x00001da0:    b510        ..      PUSH     {r4,lr}
        0x00001da2:    f000f869    ..i.    BL       SYS_UnlockReg ; 0x1e78
        0x00001da6:    200e        .       MOVS     r0,#0xe
        0x00001da8:    f7fff84e    ..N.    BL       CLK_EnableXtalRC ; 0xe48
        0x00001dac:    2200        ."      MOVS     r2,#0
        0x00001dae:    4611        .F      MOV      r1,r2
        0x00001db0:    4610        .F      MOV      r0,r2
        0x00001db2:    f7fff86f    ..o.    BL       CLK_SetHCLK ; 0xe94
        0x00001db6:    2200        ."      MOVS     r2,#0
        0x00001db8:    4611        .F      MOV      r1,r2
        0x00001dba:    480f        .H      LDR      r0,[pc,#60] ; [0x1df8] = 0x4003fe1c
        0x00001dbc:    f7fff88e    ....    BL       CLK_SetModuleClock ; 0xedc
        0x00001dc0:    f000f8bc    ....    BL       SystemCoreClockUpdate ; 0x1f3c
        0x00001dc4:    2005        .       MOVS     r0,#5
        0x00001dc6:    0700        ..      LSLS     r0,r0,#28
        0x00001dc8:    6b80        .k      LDR      r0,[r0,#0x38]
        0x00001dca:    2103        .!      MOVS     r1,#3
        0x00001dcc:    0409        ..      LSLS     r1,r1,#16
        0x00001dce:    4388        .C      BICS     r0,r0,r1
        0x00001dd0:    2101        .!      MOVS     r1,#1
        0x00001dd2:    0409        ..      LSLS     r1,r1,#16
        0x00001dd4:    1840        @.      ADDS     r0,r0,r1
        0x00001dd6:    2105        .!      MOVS     r1,#5
        0x00001dd8:    0709        ..      LSLS     r1,r1,#28
        0x00001dda:    6388        .c      STR      r0,[r1,#0x38]
        0x00001ddc:    4608        .F      MOV      r0,r1
        0x00001dde:    6b80        .k      LDR      r0,[r0,#0x38]
        0x00001de0:    2103        .!      MOVS     r1,#3
        0x00001de2:    0489        ..      LSLS     r1,r1,#18
        0x00001de4:    4388        .C      BICS     r0,r0,r1
        0x00001de6:    2101        .!      MOVS     r1,#1
        0x00001de8:    0489        ..      LSLS     r1,r1,#18
        0x00001dea:    1840        @.      ADDS     r0,r0,r1
        0x00001dec:    2105        .!      MOVS     r1,#5
        0x00001dee:    0709        ..      LSLS     r1,r1,#28
        0x00001df0:    6388        .c      STR      r0,[r1,#0x38]
        0x00001df2:    f000f80b    ....    BL       SYS_LockReg ; 0x1e0c
        0x00001df6:    bd10        ..      POP      {r4,pc}
    $d
        0x00001df8:    4003fe1c    ...@    DCD    1074003484
    $t
    i.SYS_Lock
    SYS_Lock
        0x00001dfc:    2800        .(      CMP      r0,#0
        0x00001dfe:    d002        ..      BEQ      0x1e06 ; SYS_Lock + 10
        0x00001e00:    2100        .!      MOVS     r1,#0
        0x00001e02:    4a01        .J      LDR      r2,[pc,#4] ; [0x1e08] = 0x50000100
        0x00001e04:    6011        .`      STR      r1,[r2,#0]
        0x00001e06:    4770        pG      BX       lr
    $d
        0x00001e08:    50000100    ...P    DCD    1342177536
    $t
    i.SYS_LockReg
    SYS_LockReg
        0x00001e0c:    2000        .       MOVS     r0,#0
        0x00001e0e:    4901        .I      LDR      r1,[pc,#4] ; [0x1e14] = 0x50000100
        0x00001e10:    6008        .`      STR      r0,[r1,#0]
        0x00001e12:    4770        pG      BX       lr
    $d
        0x00001e14:    50000100    ...P    DCD    1342177536
    $t
    i.SYS_ResetModule
    SYS_ResetModule
        0x00001e18:    0e01        ..      LSRS     r1,r0,#24
        0x00001e1a:    2205        ."      MOVS     r2,#5
        0x00001e1c:    0712        ..      LSLS     r2,r2,#28
        0x00001e1e:    1889        ..      ADDS     r1,r1,r2
        0x00001e20:    6889        .h      LDR      r1,[r1,#8]
        0x00001e22:    2201        ."      MOVS     r2,#1
        0x00001e24:    4082        .@      LSLS     r2,r2,r0
        0x00001e26:    4311        .C      ORRS     r1,r1,r2
        0x00001e28:    0e02        ..      LSRS     r2,r0,#24
        0x00001e2a:    2305        .#      MOVS     r3,#5
        0x00001e2c:    071b        ..      LSLS     r3,r3,#28
        0x00001e2e:    18d2        ..      ADDS     r2,r2,r3
        0x00001e30:    6091        .`      STR      r1,[r2,#8]
        0x00001e32:    0e01        ..      LSRS     r1,r0,#24
        0x00001e34:    461a        .F      MOV      r2,r3
        0x00001e36:    1889        ..      ADDS     r1,r1,r2
        0x00001e38:    688a        .h      LDR      r2,[r1,#8]
        0x00001e3a:    2101        .!      MOVS     r1,#1
        0x00001e3c:    4081        .@      LSLS     r1,r1,r0
        0x00001e3e:    438a        .C      BICS     r2,r2,r1
        0x00001e40:    0e01        ..      LSRS     r1,r0,#24
        0x00001e42:    18c9        ..      ADDS     r1,r1,r3
        0x00001e44:    608a        .`      STR      r2,[r1,#8]
        0x00001e46:    4770        pG      BX       lr
    i.SYS_Unlock
    SYS_Unlock
        0x00001e48:    480a        .H      LDR      r0,[pc,#40] ; [0x1e74] = 0x50000100
        0x00001e4a:    6800        .h      LDR      r0,[r0,#0]
        0x00001e4c:    07c0        ..      LSLS     r0,r0,#31
        0x00001e4e:    0fc0        ..      LSRS     r0,r0,#31
        0x00001e50:    2800        .(      CMP      r0,#0
        0x00001e52:    d001        ..      BEQ      0x1e58 ; SYS_Unlock + 16
        0x00001e54:    2000        .       MOVS     r0,#0
        0x00001e56:    4770        pG      BX       lr
        0x00001e58:    e006        ..      B        0x1e68 ; SYS_Unlock + 32
        0x00001e5a:    2059        Y       MOVS     r0,#0x59
        0x00001e5c:    4905        .I      LDR      r1,[pc,#20] ; [0x1e74] = 0x50000100
        0x00001e5e:    6008        .`      STR      r0,[r1,#0]
        0x00001e60:    2016        .       MOVS     r0,#0x16
        0x00001e62:    6008        .`      STR      r0,[r1,#0]
        0x00001e64:    2088        .       MOVS     r0,#0x88
        0x00001e66:    6008        .`      STR      r0,[r1,#0]
        0x00001e68:    4802        .H      LDR      r0,[pc,#8] ; [0x1e74] = 0x50000100
        0x00001e6a:    6800        .h      LDR      r0,[r0,#0]
        0x00001e6c:    2801        .(      CMP      r0,#1
        0x00001e6e:    d1f4        ..      BNE      0x1e5a ; SYS_Unlock + 18
        0x00001e70:    bf00        ..      NOP      
        0x00001e72:    e7f0        ..      B        0x1e56 ; SYS_Unlock + 14
    $d
        0x00001e74:    50000100    ...P    DCD    1342177536
    $t
    i.SYS_UnlockReg
    SYS_UnlockReg
        0x00001e78:    e006        ..      B        0x1e88 ; SYS_UnlockReg + 16
        0x00001e7a:    2059        Y       MOVS     r0,#0x59
        0x00001e7c:    4905        .I      LDR      r1,[pc,#20] ; [0x1e94] = 0x50000100
        0x00001e7e:    6008        .`      STR      r0,[r1,#0]
        0x00001e80:    2016        .       MOVS     r0,#0x16
        0x00001e82:    6008        .`      STR      r0,[r1,#0]
        0x00001e84:    2088        .       MOVS     r0,#0x88
        0x00001e86:    6008        .`      STR      r0,[r1,#0]
        0x00001e88:    4802        .H      LDR      r0,[pc,#8] ; [0x1e94] = 0x50000100
        0x00001e8a:    6800        .h      LDR      r0,[r0,#0]
        0x00001e8c:    2801        .(      CMP      r0,#1
        0x00001e8e:    d1f4        ..      BNE      0x1e7a ; SYS_UnlockReg + 2
        0x00001e90:    4770        pG      BX       lr
    $d
        0x00001e92:    0000        ..      DCW    0
        0x00001e94:    50000100    ...P    DCD    1342177536
    $t
    i.SendChar
    SendChar
        0x00001e98:    b510        ..      PUSH     {r4,lr}
        0x00001e9a:    4604        .F      MOV      r4,r0
        0x00001e9c:    4818        .H      LDR      r0,[pc,#96] ; [0x1f00] = 0x20000024
        0x00001e9e:    7802        .x      LDRB     r2,[r0,#0]
        0x00001ea0:    7800        .x      LDRB     r0,[r0,#0]
        0x00001ea2:    1c40        @.      ADDS     r0,r0,#1
        0x00001ea4:    4b16        .K      LDR      r3,[pc,#88] ; [0x1f00] = 0x20000024
        0x00001ea6:    7018        .p      STRB     r0,[r3,#0]
        0x00001ea8:    4816        .H      LDR      r0,[pc,#88] ; [0x1f04] = 0x2000012c
        0x00001eaa:    5484        .T      STRB     r4,[r0,r2]
        0x00001eac:    2100        .!      MOVS     r1,#0
        0x00001eae:    461a        .F      MOV      r2,r3
        0x00001eb0:    7812        .x      LDRB     r2,[r2,#0]
        0x00001eb2:    5481        .T      STRB     r1,[r0,r2]
        0x00001eb4:    4618        .F      MOV      r0,r3
        0x00001eb6:    7800        .x      LDRB     r0,[r0,#0]
        0x00001eb8:    1c40        @.      ADDS     r0,r0,#1
        0x00001eba:    2810        .(      CMP      r0,#0x10
        0x00001ebc:    d203        ..      BCS      0x1ec6 ; SendChar + 46
        0x00001ebe:    2c0a        .,      CMP      r4,#0xa
        0x00001ec0:    d001        ..      BEQ      0x1ec6 ; SendChar + 46
        0x00001ec2:    2c00        .,      CMP      r4,#0
        0x00001ec4:    d119        ..      BNE      0x1efa ; SendChar + 98
        0x00001ec6:    2200        ."      MOVS     r2,#0
        0x00001ec8:    490e        .I      LDR      r1,[pc,#56] ; [0x1f04] = 0x2000012c
        0x00001eca:    2004        .       MOVS     r0,#4
        0x00001ecc:    f7fef902    ....    BL       SH_DoCommand ; 0xd4
        0x00001ed0:    2800        .(      CMP      r0,#0
        0x00001ed2:    d003        ..      BEQ      0x1edc ; SendChar + 68
        0x00001ed4:    2000        .       MOVS     r0,#0
        0x00001ed6:    490a        .I      LDR      r1,[pc,#40] ; [0x1f00] = 0x20000024
        0x00001ed8:    7008        .p      STRB     r0,[r1,#0]
        0x00001eda:    bd10        ..      POP      {r4,pc}
        0x00001edc:    2300        .#      MOVS     r3,#0
        0x00001ede:    e004        ..      B        0x1eea ; SendChar + 82
        0x00001ee0:    4908        .I      LDR      r1,[pc,#32] ; [0x1f04] = 0x2000012c
        0x00001ee2:    5cc8        .\      LDRB     r0,[r1,r3]
        0x00001ee4:    f000f810    ....    BL       SendChar_ToUART ; 0x1f08
        0x00001ee8:    1c5b        [.      ADDS     r3,r3,#1
        0x00001eea:    4805        .H      LDR      r0,[pc,#20] ; [0x1f00] = 0x20000024
        0x00001eec:    7800        .x      LDRB     r0,[r0,#0]
        0x00001eee:    4283        .B      CMP      r3,r0
        0x00001ef0:    dbf6        ..      BLT      0x1ee0 ; SendChar + 72
        0x00001ef2:    2000        .       MOVS     r0,#0
        0x00001ef4:    4902        .I      LDR      r1,[pc,#8] ; [0x1f00] = 0x20000024
        0x00001ef6:    7008        .p      STRB     r0,[r1,#0]
        0x00001ef8:    bf00        ..      NOP      
        0x00001efa:    bf00        ..      NOP      
        0x00001efc:    e7ed        ..      B        0x1eda ; SendChar + 66
    $d
        0x00001efe:    0000        ..      DCW    0
        0x00001f00:    20000024    $..     DCD    536870948
        0x00001f04:    2000012c    ,..     DCD    536871212
    $t
    i.SendChar_ToUART
    SendChar_ToUART
        0x00001f08:    bf00        ..      NOP      
        0x00001f0a:    490b        .I      LDR      r1,[pc,#44] ; [0x1f38] = 0x40050000
        0x00001f0c:    6989        .i      LDR      r1,[r1,#0x18]
        0x00001f0e:    2201        ."      MOVS     r2,#1
        0x00001f10:    05d2        ..      LSLS     r2,r2,#23
        0x00001f12:    4011        .@      ANDS     r1,r1,r2
        0x00001f14:    2900        .)      CMP      r1,#0
        0x00001f16:    d1f8        ..      BNE      0x1f0a ; SendChar_ToUART + 2
        0x00001f18:    4907        .I      LDR      r1,[pc,#28] ; [0x1f38] = 0x40050000
        0x00001f1a:    6008        .`      STR      r0,[r1,#0]
        0x00001f1c:    280a        .(      CMP      r0,#0xa
        0x00001f1e:    d10a        ..      BNE      0x1f36 ; SendChar_ToUART + 46
        0x00001f20:    bf00        ..      NOP      
        0x00001f22:    4905        .I      LDR      r1,[pc,#20] ; [0x1f38] = 0x40050000
        0x00001f24:    6989        .i      LDR      r1,[r1,#0x18]
        0x00001f26:    2201        ."      MOVS     r2,#1
        0x00001f28:    05d2        ..      LSLS     r2,r2,#23
        0x00001f2a:    4011        .@      ANDS     r1,r1,r2
        0x00001f2c:    2900        .)      CMP      r1,#0
        0x00001f2e:    d1f8        ..      BNE      0x1f22 ; SendChar_ToUART + 26
        0x00001f30:    210d        .!      MOVS     r1,#0xd
        0x00001f32:    4a01        .J      LDR      r2,[pc,#4] ; [0x1f38] = 0x40050000
        0x00001f34:    6011        .`      STR      r1,[r2,#0]
        0x00001f36:    4770        pG      BX       lr
    $d
        0x00001f38:    40050000    ...@    DCD    1074069504
    $t
    i.SystemCoreClockUpdate
    SystemCoreClockUpdate
        0x00001f3c:    b570        p.      PUSH     {r4-r6,lr}
        0x00001f3e:    4812        .H      LDR      r0,[pc,#72] ; [0x1f88] = 0x50000200
        0x00001f40:    6900        .i      LDR      r0,[r0,#0x10]
        0x00001f42:    0740        @.      LSLS     r0,r0,#29
        0x00001f44:    0ec0        ..      LSRS     r0,r0,#27
        0x00001f46:    4911        .I      LDR      r1,[pc,#68] ; [0x1f8c] = 0x20000008
        0x00001f48:    580c        .X      LDR      r4,[r1,r0]
        0x00001f4a:    4811        .H      LDR      r0,[pc,#68] ; [0x1f90] = 0x2ee0000
        0x00001f4c:    4284        .B      CMP      r4,r0
        0x00001f4e:    d107        ..      BNE      0x1f60 ; SystemCoreClockUpdate + 36
        0x00001f50:    480d        .H      LDR      r0,[pc,#52] ; [0x1f88] = 0x50000200
        0x00001f52:    6900        .i      LDR      r0,[r0,#0x10]
        0x00001f54:    2140        @!      MOVS     r1,#0x40
        0x00001f56:    4008        .@      ANDS     r0,r0,r1
        0x00001f58:    0980        ..      LSRS     r0,r0,#6
        0x00001f5a:    0080        ..      LSLS     r0,r0,#2
        0x00001f5c:    490d        .I      LDR      r1,[pc,#52] ; [0x1f94] = 0x20000014
        0x00001f5e:    580c        .X      LDR      r4,[r1,r0]
        0x00001f60:    4809        .H      LDR      r0,[pc,#36] ; [0x1f88] = 0x50000200
        0x00001f62:    6980        .i      LDR      r0,[r0,#0x18]
        0x00001f64:    0700        ..      LSLS     r0,r0,#28
        0x00001f66:    0f00        ..      LSRS     r0,r0,#28
        0x00001f68:    1c45        E.      ADDS     r5,r0,#1
        0x00001f6a:    4629        )F      MOV      r1,r5
        0x00001f6c:    4620         F      MOV      r0,r4
        0x00001f6e:    f7fef8dd    ....    BL       __aeabi_uidiv ; 0x12c
        0x00001f72:    4909        .I      LDR      r1,[pc,#36] ; [0x1f98] = 0x20000000
        0x00001f74:    6008        .`      STR      r0,[r1,#0]
        0x00001f76:    4909        .I      LDR      r1,[pc,#36] ; [0x1f9c] = 0xf4240
        0x00001f78:    4807        .H      LDR      r0,[pc,#28] ; [0x1f98] = 0x20000000
        0x00001f7a:    6800        .h      LDR      r0,[r0,#0]
        0x00001f7c:    f7fef8d6    ....    BL       __aeabi_uidiv ; 0x12c
        0x00001f80:    4907        .I      LDR      r1,[pc,#28] ; [0x1fa0] = 0x20000004
        0x00001f82:    6008        .`      STR      r0,[r1,#0]
        0x00001f84:    bd70        p.      POP      {r4-r6,pc}
    $d
        0x00001f86:    0000        ..      DCW    0
        0x00001f88:    50000200    ...P    DCD    1342177792
        0x00001f8c:    20000008    ...     DCD    536870920
        0x00001f90:    02ee0000    ....    DCD    49152000
        0x00001f94:    20000014    ...     DCD    536870932
        0x00001f98:    20000000    ...     DCD    536870912
        0x00001f9c:    000f4240    @B..    DCD    1000000
        0x00001fa0:    20000004    ...     DCD    536870916
    $t
    i.TIMER_GetModuleClock
    TIMER_GetModuleClock
        0x00001fa4:    b530        0.      PUSH     {r4,r5,lr}
        0x00001fa6:    b085        ..      SUB      sp,sp,#0x14
        0x00001fa8:    4605        .F      MOV      r5,r0
        0x00001faa:    2214        ."      MOVS     r2,#0x14
        0x00001fac:    4912        .I      LDR      r1,[pc,#72] ; [0x1ff8] = 0x4750
        0x00001fae:    4668        hF      MOV      r0,sp
        0x00001fb0:    f7fef8e6    ....    BL       __aeabi_memcpy ; 0x180
        0x00001fb4:    4811        .H      LDR      r0,[pc,#68] ; [0x1ffc] = 0x40010000
        0x00001fb6:    4285        .B      CMP      r5,r0
        0x00001fb8:    d106        ..      BNE      0x1fc8 ; TIMER_GetModuleClock + 36
        0x00001fba:    4811        .H      LDR      r0,[pc,#68] ; [0x2000] = 0x50000200
        0x00001fbc:    6940        @i      LDR      r0,[r0,#0x14]
        0x00001fbe:    2107        .!      MOVS     r1,#7
        0x00001fc0:    0209        ..      LSLS     r1,r1,#8
        0x00001fc2:    4008        .@      ANDS     r0,r0,r1
        0x00001fc4:    0a04        ..      LSRS     r4,r0,#8
        0x00001fc6:    e00d        ..      B        0x1fe4 ; TIMER_GetModuleClock + 64
        0x00001fc8:    480c        .H      LDR      r0,[pc,#48] ; [0x1ffc] = 0x40010000
        0x00001fca:    3020         0      ADDS     r0,r0,#0x20
        0x00001fcc:    4285        .B      CMP      r5,r0
        0x00001fce:    d106        ..      BNE      0x1fde ; TIMER_GetModuleClock + 58
        0x00001fd0:    480b        .H      LDR      r0,[pc,#44] ; [0x2000] = 0x50000200
        0x00001fd2:    6940        @i      LDR      r0,[r0,#0x14]
        0x00001fd4:    2107        .!      MOVS     r1,#7
        0x00001fd6:    0309        ..      LSLS     r1,r1,#12
        0x00001fd8:    4008        .@      ANDS     r0,r0,r1
        0x00001fda:    0b04        ..      LSRS     r4,r0,#12
        0x00001fdc:    e002        ..      B        0x1fe4 ; TIMER_GetModuleClock + 64
        0x00001fde:    2000        .       MOVS     r0,#0
        0x00001fe0:    b005        ..      ADD      sp,sp,#0x14
        0x00001fe2:    bd30        0.      POP      {r4,r5,pc}
        0x00001fe4:    2c02        .,      CMP      r4,#2
        0x00001fe6:    d102        ..      BNE      0x1fee ; TIMER_GetModuleClock + 74
        0x00001fe8:    4806        .H      LDR      r0,[pc,#24] ; [0x2004] = 0x20000000
        0x00001fea:    6800        .h      LDR      r0,[r0,#0]
        0x00001fec:    e7f8        ..      B        0x1fe0 ; TIMER_GetModuleClock + 60
        0x00001fee:    00a0        ..      LSLS     r0,r4,#2
        0x00001ff0:    4669        iF      MOV      r1,sp
        0x00001ff2:    5808        .X      LDR      r0,[r1,r0]
        0x00001ff4:    e7f4        ..      B        0x1fe0 ; TIMER_GetModuleClock + 60
    $d
        0x00001ff6:    0000        ..      DCW    0
        0x00001ff8:    00004750    PG..    DCD    18256
        0x00001ffc:    40010000    ...@    DCD    1073807360
        0x00002000:    50000200    ...P    DCD    1342177792
        0x00002004:    20000000    ...     DCD    536870912
    $t
    i.TIMER_GetWorkingFreq
    TIMER_GetWorkingFreq
        0x00002008:    b570        p.      PUSH     {r4-r6,lr}
        0x0000200a:    4604        .F      MOV      r4,r0
        0x0000200c:    4620         F      MOV      r0,r4
        0x0000200e:    f7ffffc9    ....    BL       TIMER_GetModuleClock ; 0x1fa4
        0x00002012:    4605        .F      MOV      r5,r0
        0x00002014:    6860        `h      LDR      r0,[r4,#4]
        0x00002016:    6822        "h      LDR      r2,[r4,#0]
        0x00002018:    b2d2        ..      UXTB     r2,r2
        0x0000201a:    1c52        R.      ADDS     r2,r2,#1
        0x0000201c:    4350        PC      MULS     r0,r2,r0
        0x0000201e:    4601        .F      MOV      r1,r0
        0x00002020:    4628        (F      MOV      r0,r5
        0x00002022:    f7fef883    ....    BL       __aeabi_uidiv ; 0x12c
        0x00002026:    bd70        p.      POP      {r4-r6,pc}
    i.TIMER_Open
    TIMER_Open
        0x00002028:    b5fe        ..      PUSH     {r1-r7,lr}
        0x0000202a:    4605        .F      MOV      r5,r0
        0x0000202c:    460f        .F      MOV      r7,r1
        0x0000202e:    4616        .F      MOV      r6,r2
        0x00002030:    4628        (F      MOV      r0,r5
        0x00002032:    f7ffffb7    ....    BL       TIMER_GetModuleClock ; 0x1fa4
        0x00002036:    4604        .F      MOV      r4,r0
        0x00002038:    2000        .       MOVS     r0,#0
        0x0000203a:    9001        ..      STR      r0,[sp,#4]
        0x0000203c:    9000        ..      STR      r0,[sp,#0]
        0x0000203e:    0860        `.      LSRS     r0,r4,#1
        0x00002040:    42b0        .B      CMP      r0,r6
        0x00002042:    d202        ..      BCS      0x204a ; TIMER_Open + 34
        0x00002044:    2002        .       MOVS     r0,#2
        0x00002046:    9001        ..      STR      r0,[sp,#4]
        0x00002048:    e01b        ..      B        0x2082 ; TIMER_Open + 90
        0x0000204a:    2001        .       MOVS     r0,#1
        0x0000204c:    0680        ..      LSLS     r0,r0,#26
        0x0000204e:    4284        .B      CMP      r4,r0
        0x00002050:    d303        ..      BCC      0x205a ; TIMER_Open + 50
        0x00002052:    2007        .       MOVS     r0,#7
        0x00002054:    9000        ..      STR      r0,[sp,#0]
        0x00002056:    08e4        ..      LSRS     r4,r4,#3
        0x00002058:    e00e        ..      B        0x2078 ; TIMER_Open + 80
        0x0000205a:    2001        .       MOVS     r0,#1
        0x0000205c:    0640        @.      LSLS     r0,r0,#25
        0x0000205e:    4284        .B      CMP      r4,r0
        0x00002060:    d303        ..      BCC      0x206a ; TIMER_Open + 66
        0x00002062:    2003        .       MOVS     r0,#3
        0x00002064:    9000        ..      STR      r0,[sp,#0]
        0x00002066:    08a4        ..      LSRS     r4,r4,#2
        0x00002068:    e006        ..      B        0x2078 ; TIMER_Open + 80
        0x0000206a:    2001        .       MOVS     r0,#1
        0x0000206c:    0600        ..      LSLS     r0,r0,#24
        0x0000206e:    4284        .B      CMP      r4,r0
        0x00002070:    d302        ..      BCC      0x2078 ; TIMER_Open + 80
        0x00002072:    2001        .       MOVS     r0,#1
        0x00002074:    9000        ..      STR      r0,[sp,#0]
        0x00002076:    0864        d.      LSRS     r4,r4,#1
        0x00002078:    4631        1F      MOV      r1,r6
        0x0000207a:    4620         F      MOV      r0,r4
        0x0000207c:    f7fef856    ..V.    BL       __aeabi_uidiv ; 0x12c
        0x00002080:    9001        ..      STR      r0,[sp,#4]
        0x00002082:    9800        ..      LDR      r0,[sp,#0]
        0x00002084:    4338        8C      ORRS     r0,r0,r7
        0x00002086:    6028        (`      STR      r0,[r5,#0]
        0x00002088:    9801        ..      LDR      r0,[sp,#4]
        0x0000208a:    6068        h`      STR      r0,[r5,#4]
        0x0000208c:    9a00        ..      LDR      r2,[sp,#0]
        0x0000208e:    1c52        R.      ADDS     r2,r2,#1
        0x00002090:    9801        ..      LDR      r0,[sp,#4]
        0x00002092:    4350        PC      MULS     r0,r2,r0
        0x00002094:    4601        .F      MOV      r1,r0
        0x00002096:    4620         F      MOV      r0,r4
        0x00002098:    f7fef848    ..H.    BL       __aeabi_uidiv ; 0x12c
        0x0000209c:    bdfe        ..      POP      {r1-r7,pc}
        0x0000209e:    0000        ..      MOVS     r0,r0
    i.TMR1_IRQHandler
    TMR1_IRQHandler
        0x000020a0:    b510        ..      PUSH     {r4,lr}
        0x000020a2:    480a        .H      LDR      r0,[pc,#40] ; [0x20cc] = 0x2000011c
        0x000020a4:    2100        .!      MOVS     r1,#0
        0x000020a6:    5e41        A^      LDRSH    r1,[r0,r1]
        0x000020a8:    2900        .)      CMP      r1,#0
        0x000020aa:    dd04        ..      BLE      0x20b6 ; TMR1_IRQHandler + 22
        0x000020ac:    8800        ..      LDRH     r0,[r0,#0]
        0x000020ae:    1e40        @.      SUBS     r0,r0,#1
        0x000020b0:    b200        ..      SXTH     r0,r0
        0x000020b2:    4906        .I      LDR      r1,[pc,#24] ; [0x20cc] = 0x2000011c
        0x000020b4:    8008        ..      STRH     r0,[r1,#0]
        0x000020b6:    f7fff8bf    ....    BL       Keypad_ScanTgr ; 0x1238
        0x000020ba:    bf00        ..      NOP      
        0x000020bc:    2001        .       MOVS     r0,#1
        0x000020be:    4904        .I      LDR      r1,[pc,#16] ; [0x20d0] = 0x40010020
        0x000020c0:    6088        .`      STR      r0,[r1,#8]
        0x000020c2:    bf00        ..      NOP      
        0x000020c4:    f7fff912    ....    BL       Keypad_TgrDecDebounceCounter ; 0x12ec
        0x000020c8:    bd10        ..      POP      {r4,pc}
    $d
        0x000020ca:    0000        ..      DCW    0
        0x000020cc:    2000011c    ...     DCD    536871196
        0x000020d0:    40010020     ..@    DCD    1073807392
    $t
    i.UART_Init
    UART_Init
        0x000020d4:    b510        ..      PUSH     {r4,lr}
        0x000020d6:    4806        .H      LDR      r0,[pc,#24] ; [0x20f0] = 0x40003d10
        0x000020d8:    f7fefea4    ....    BL       CLK_EnableModuleClock ; 0xe24
        0x000020dc:    4805        .H      LDR      r0,[pc,#20] ; [0x20f4] = 0x4000010
        0x000020de:    f7fffe9b    ....    BL       SYS_ResetModule ; 0x1e18
        0x000020e2:    21e1        .!      MOVS     r1,#0xe1
        0x000020e4:    0249        I.      LSLS     r1,r1,#9
        0x000020e6:    4804        .H      LDR      r0,[pc,#16] ; [0x20f8] = 0x40050000
        0x000020e8:    f000f808    ....    BL       UART_Open ; 0x20fc
        0x000020ec:    bd10        ..      POP      {r4,pc}
    $d
        0x000020ee:    0000        ..      DCW    0
        0x000020f0:    40003d10    .=.@    DCD    1073757456
        0x000020f4:    04000010    ....    DCD    67108880
        0x000020f8:    40050000    ...@    DCD    1074069504
    $t
    i.UART_Open
    UART_Open
        0x000020fc:    b5f8        ..      PUSH     {r3-r7,lr}
        0x000020fe:    4604        .F      MOV      r4,r0
        0x00002100:    460d        .F      MOV      r5,r1
        0x00002102:    2000        .       MOVS     r0,#0
        0x00002104:    6320         c      STR      r0,[r4,#0x30]
        0x00002106:    2003        .       MOVS     r0,#3
        0x00002108:    60e0        .`      STR      r0,[r4,#0xc]
        0x0000210a:    2000        .       MOVS     r0,#0
        0x0000210c:    60a0        .`      STR      r0,[r4,#8]
        0x0000210e:    f7fefeab    ....    BL       CLK_GetHCLKFreq ; 0xe68
        0x00002112:    9000        ..      STR      r0,[sp,#0]
        0x00002114:    4811        .H      LDR      r0,[pc,#68] ; [0x215c] = 0x50000200
        0x00002116:    6980        .i      LDR      r0,[r0,#0x18]
        0x00002118:    220f        ."      MOVS     r2,#0xf
        0x0000211a:    0212        ..      LSLS     r2,r2,#8
        0x0000211c:    4010        .@      ANDS     r0,r0,r2
        0x0000211e:    0a00        ..      LSRS     r0,r0,#8
        0x00002120:    1c41        A.      ADDS     r1,r0,#1
        0x00002122:    9800        ..      LDR      r0,[sp,#0]
        0x00002124:    f7fef802    ....    BL       __aeabi_uidiv ; 0x12c
        0x00002128:    4607        .F      MOV      r7,r0
        0x0000212a:    2d00        .-      CMP      r5,#0
        0x0000212c:    d015        ..      BEQ      0x215a ; UART_Open + 94
        0x0000212e:    0869        i.      LSRS     r1,r5,#1
        0x00002130:    19c8        ..      ADDS     r0,r1,r7
        0x00002132:    4629        )F      MOV      r1,r5
        0x00002134:    f7fdfffa    ....    BL       __aeabi_uidiv ; 0x12c
        0x00002138:    1e86        ..      SUBS     r6,r0,#2
        0x0000213a:    4809        .H      LDR      r0,[pc,#36] ; [0x2160] = 0xffff
        0x0000213c:    4286        .B      CMP      r6,r0
        0x0000213e:    d908        ..      BLS      0x2152 ; UART_Open + 86
        0x00002140:    00e9        ..      LSLS     r1,r5,#3
        0x00002142:    19c8        ..      ADDS     r0,r1,r7
        0x00002144:    4629        )F      MOV      r1,r5
        0x00002146:    f7fdfff1    ....    BL       __aeabi_uidiv ; 0x12c
        0x0000214a:    0900        ..      LSRS     r0,r0,#4
        0x0000214c:    1e80        ..      SUBS     r0,r0,#2
        0x0000214e:    6260        `b      STR      r0,[r4,#0x24]
        0x00002150:    e003        ..      B        0x215a ; UART_Open + 94
        0x00002152:    2003        .       MOVS     r0,#3
        0x00002154:    0700        ..      LSLS     r0,r0,#28
        0x00002156:    4330        0C      ORRS     r0,r0,r6
        0x00002158:    6260        `b      STR      r0,[r4,#0x24]
        0x0000215a:    bdf8        ..      POP      {r3-r7,pc}
    $d
        0x0000215c:    50000200    ...P    DCD    1342177792
        0x00002160:    0000ffff    ....    DCD    65535
    $t
    i.__0printf
    __0printf
    __1printf
    __2printf
    __c89printf
    printf
        0x00002164:    b40f        ..      PUSH     {r0-r3}
        0x00002166:    b510        ..      PUSH     {r4,lr}
        0x00002168:    a903        ..      ADD      r1,sp,#0xc
        0x0000216a:    4b04        .K      LDR      r3,[pc,#16] ; [0x217c] = 0x300d
        0x0000216c:    4a04        .J      LDR      r2,[pc,#16] ; [0x2180] = 0x2000001c
        0x0000216e:    9802        ..      LDR      r0,[sp,#8]
        0x00002170:    f000f97e    ..~.    BL       _printf_core ; 0x2470
        0x00002174:    bc10        ..      POP      {r4}
        0x00002176:    bc08        ..      POP      {r3}
        0x00002178:    b004        ..      ADD      sp,sp,#0x10
        0x0000217a:    4718        .G      BX       r3
    $d
        0x0000217c:    0000300d    .0..    DCD    12301
        0x00002180:    2000001c    ...     DCD    536870940
    $t
    i.__ARM_clz
    __ARM_clz
        0x00002184:    2120         !      MOVS     r1,#0x20
        0x00002186:    0c02        ..      LSRS     r2,r0,#16
        0x00002188:    d001        ..      BEQ      0x218e ; __ARM_clz + 10
        0x0000218a:    2110        .!      MOVS     r1,#0x10
        0x0000218c:    4610        .F      MOV      r0,r2
        0x0000218e:    0a02        ..      LSRS     r2,r0,#8
        0x00002190:    d001        ..      BEQ      0x2196 ; __ARM_clz + 18
        0x00002192:    4610        .F      MOV      r0,r2
        0x00002194:    3908        .9      SUBS     r1,r1,#8
        0x00002196:    0902        ..      LSRS     r2,r0,#4
        0x00002198:    d001        ..      BEQ      0x219e ; __ARM_clz + 26
        0x0000219a:    4610        .F      MOV      r0,r2
        0x0000219c:    1f09        ..      SUBS     r1,r1,#4
        0x0000219e:    0882        ..      LSRS     r2,r0,#2
        0x000021a0:    d001        ..      BEQ      0x21a6 ; __ARM_clz + 34
        0x000021a2:    4610        .F      MOV      r0,r2
        0x000021a4:    1e89        ..      SUBS     r1,r1,#2
        0x000021a6:    0842        B.      LSRS     r2,r0,#1
        0x000021a8:    d001        ..      BEQ      0x21ae ; __ARM_clz + 42
        0x000021aa:    1e88        ..      SUBS     r0,r1,#2
        0x000021ac:    4770        pG      BX       lr
        0x000021ae:    1a08        ..      SUBS     r0,r1,r0
        0x000021b0:    4770        pG      BX       lr
        0x000021b2:    0000        ..      MOVS     r0,r0
    i.__ARM_fpclassify
    __ARM_fpclassify
        0x000021b4:    0049        I.      LSLS     r1,r1,#1
        0x000021b6:    02ca        ..      LSLS     r2,r1,#11
        0x000021b8:    4302        .C      ORRS     r2,r2,r0
        0x000021ba:    0010        ..      MOVS     r0,r2
        0x000021bc:    d000        ..      BEQ      0x21c0 ; __ARM_fpclassify + 12
        0x000021be:    2004        .       MOVS     r0,#4
        0x000021c0:    0d4a        J.      LSRS     r2,r1,#21
        0x000021c2:    d001        ..      BEQ      0x21c8 ; __ARM_fpclassify + 20
        0x000021c4:    2201        ."      MOVS     r2,#1
        0x000021c6:    4310        .C      ORRS     r0,r0,r2
        0x000021c8:    4a04        .J      LDR      r2,[pc,#16] ; [0x21dc] = 0x7ff
        0x000021ca:    0d49        I.      LSRS     r1,r1,#21
        0x000021cc:    4291        .B      CMP      r1,r2
        0x000021ce:    d101        ..      BNE      0x21d4 ; __ARM_fpclassify + 32
        0x000021d0:    2102        .!      MOVS     r1,#2
        0x000021d2:    4308        .C      ORRS     r0,r0,r1
        0x000021d4:    2801        .(      CMP      r0,#1
        0x000021d6:    d100        ..      BNE      0x21da ; __ARM_fpclassify + 38
        0x000021d8:    2005        .       MOVS     r0,#5
        0x000021da:    4770        pG      BX       lr
    $d
        0x000021dc:    000007ff    ....    DCD    2047
    $t
    i.__kernel_poly
    __kernel_poly
        0x000021e0:    b5f8        ..      PUSH     {r3-r7,lr}
        0x000021e2:    4604        .F      MOV      r4,r0
        0x000021e4:    1e4f        O.      SUBS     r7,r1,#1
        0x000021e6:    00c8        ..      LSLS     r0,r1,#3
        0x000021e8:    3808        .8      SUBS     r0,r0,#8
        0x000021ea:    1821        !.      ADDS     r1,r4,r0
        0x000021ec:    4615        .F      MOV      r5,r2
        0x000021ee:    461e        .F      MOV      r6,r3
        0x000021f0:    6808        .h      LDR      r0,[r1,#0]
        0x000021f2:    6849        Ih      LDR      r1,[r1,#4]
        0x000021f4:    463a        :F      MOV      r2,r7
        0x000021f6:    2306        .#      MOVS     r3,#6
        0x000021f8:    439a        .C      BICS     r2,r2,r3
        0x000021fa:    d010        ..      BEQ      0x221e ; __kernel_poly + 62
        0x000021fc:    462a        *F      MOV      r2,r5
        0x000021fe:    4633        3F      MOV      r3,r6
        0x00002200:    f7fef968    ..h.    BL       __aeabi_dmul ; 0x4d4
        0x00002204:    463a        :F      MOV      r2,r7
        0x00002206:    00d2        ..      LSLS     r2,r2,#3
        0x00002208:    3a08        .:      SUBS     r2,r2,#8
        0x0000220a:    18a3        ..      ADDS     r3,r4,r2
        0x0000220c:    681a        .h      LDR      r2,[r3,#0]
        0x0000220e:    1e7f        ..      SUBS     r7,r7,#1
        0x00002210:    685b        [h      LDR      r3,[r3,#4]
        0x00002212:    f7fef8ad    ....    BL       __aeabi_dadd ; 0x370
        0x00002216:    2206        ."      MOVS     r2,#6
        0x00002218:    463b        ;F      MOV      r3,r7
        0x0000221a:    4393        .C      BICS     r3,r3,r2
        0x0000221c:    d1ee        ..      BNE      0x21fc ; __kernel_poly + 28
        0x0000221e:    2f02        ./      CMP      r7,#2
        0x00002220:    d023        #.      BEQ      0x226a ; __kernel_poly + 138
        0x00002222:    2f04        ./      CMP      r7,#4
        0x00002224:    d011        ..      BEQ      0x224a ; __kernel_poly + 106
        0x00002226:    2f06        ./      CMP      r7,#6
        0x00002228:    d12f        /.      BNE      0x228a ; __kernel_poly + 170
        0x0000222a:    462a        *F      MOV      r2,r5
        0x0000222c:    4633        3F      MOV      r3,r6
        0x0000222e:    f7fef951    ..Q.    BL       __aeabi_dmul ; 0x4d4
        0x00002232:    6ae3        .j      LDR      r3,[r4,#0x2c]
        0x00002234:    6aa2        .j      LDR      r2,[r4,#0x28]
        0x00002236:    f7fef89b    ....    BL       __aeabi_dadd ; 0x370
        0x0000223a:    462a        *F      MOV      r2,r5
        0x0000223c:    4633        3F      MOV      r3,r6
        0x0000223e:    f7fef949    ..I.    BL       __aeabi_dmul ; 0x4d4
        0x00002242:    6a63        cj      LDR      r3,[r4,#0x24]
        0x00002244:    6a22        "j      LDR      r2,[r4,#0x20]
        0x00002246:    f7fef893    ....    BL       __aeabi_dadd ; 0x370
        0x0000224a:    462a        *F      MOV      r2,r5
        0x0000224c:    4633        3F      MOV      r3,r6
        0x0000224e:    f7fef941    ..A.    BL       __aeabi_dmul ; 0x4d4
        0x00002252:    69e3        .i      LDR      r3,[r4,#0x1c]
        0x00002254:    69a2        .i      LDR      r2,[r4,#0x18]
        0x00002256:    f7fef88b    ....    BL       __aeabi_dadd ; 0x370
        0x0000225a:    462a        *F      MOV      r2,r5
        0x0000225c:    4633        3F      MOV      r3,r6
        0x0000225e:    f7fef939    ..9.    BL       __aeabi_dmul ; 0x4d4
        0x00002262:    6963        ci      LDR      r3,[r4,#0x14]
        0x00002264:    6922        "i      LDR      r2,[r4,#0x10]
        0x00002266:    f7fef883    ....    BL       __aeabi_dadd ; 0x370
        0x0000226a:    462a        *F      MOV      r2,r5
        0x0000226c:    4633        3F      MOV      r3,r6
        0x0000226e:    f7fef931    ..1.    BL       __aeabi_dmul ; 0x4d4
        0x00002272:    68e3        .h      LDR      r3,[r4,#0xc]
        0x00002274:    68a2        .h      LDR      r2,[r4,#8]
        0x00002276:    f7fef87b    ..{.    BL       __aeabi_dadd ; 0x370
        0x0000227a:    462a        *F      MOV      r2,r5
        0x0000227c:    4633        3F      MOV      r3,r6
        0x0000227e:    f7fef929    ..).    BL       __aeabi_dmul ; 0x4d4
        0x00002282:    6863        ch      LDR      r3,[r4,#4]
        0x00002284:    6822        "h      LDR      r2,[r4,#0]
        0x00002286:    f7fef873    ..s.    BL       __aeabi_dadd ; 0x370
        0x0000228a:    bdf8        ..      POP      {r3-r7,pc}
    i.__mathlib_dbl_divzero
    __mathlib_dbl_divzero
        0x0000228c:    2200        ."      MOVS     r2,#0
        0x0000228e:    b510        ..      PUSH     {r4,lr}
        0x00002290:    4613        .F      MOV      r3,r2
        0x00002292:    4610        .F      MOV      r0,r2
        0x00002294:    4901        .I      LDR      r1,[pc,#4] ; [0x229c] = 0x3ff00000
        0x00002296:    f7fefb39    ..9.    BL       __aeabi_ddiv ; 0x90c
        0x0000229a:    bd10        ..      POP      {r4,pc}
    $d
        0x0000229c:    3ff00000    ...?    DCD    1072693248
    $t
    i.__mathlib_dbl_infnan
    __mathlib_dbl_infnan
        0x000022a0:    b510        ..      PUSH     {r4,lr}
        0x000022a2:    2201        ."      MOVS     r2,#1
        0x000022a4:    f7fefbaa    ....    BL       __ARM_scalbn ; 0x9fc
        0x000022a8:    bd10        ..      POP      {r4,pc}
    i.__mathlib_dbl_infnan2
    __mathlib_dbl_infnan2
        0x000022aa:    b510        ..      PUSH     {r4,lr}
        0x000022ac:    f7fef860    ..`.    BL       __aeabi_dadd ; 0x370
        0x000022b0:    bd10        ..      POP      {r4,pc}
    i.__mathlib_dbl_invalid
    __mathlib_dbl_invalid
        0x000022b2:    2200        ."      MOVS     r2,#0
        0x000022b4:    b510        ..      PUSH     {r4,lr}
        0x000022b6:    4613        .F      MOV      r3,r2
        0x000022b8:    4610        .F      MOV      r0,r2
        0x000022ba:    4611        .F      MOV      r1,r2
        0x000022bc:    f7fefb26    ..&.    BL       __aeabi_ddiv ; 0x90c
        0x000022c0:    bd10        ..      POP      {r4,pc}
        0x000022c2:    0000        ..      MOVS     r0,r0
    i.__mathlib_dbl_overflow
    __mathlib_dbl_overflow
        0x000022c4:    b510        ..      PUSH     {r4,lr}
        0x000022c6:    2107        .!      MOVS     r1,#7
        0x000022c8:    4a02        .J      LDR      r2,[pc,#8] ; [0x22d4] = 0x301
        0x000022ca:    2000        .       MOVS     r0,#0
        0x000022cc:    0709        ..      LSLS     r1,r1,#28
        0x000022ce:    f7fefb95    ....    BL       __ARM_scalbn ; 0x9fc
        0x000022d2:    bd10        ..      POP      {r4,pc}
    $d
        0x000022d4:    00000301    ....    DCD    769
    $t
    i.__mathlib_dbl_underflow
    __mathlib_dbl_underflow
        0x000022d8:    4a03        .J      LDR      r2,[pc,#12] ; [0x22e8] = 0xfffffd01
        0x000022da:    b510        ..      PUSH     {r4,lr}
        0x000022dc:    2000        .       MOVS     r0,#0
        0x000022de:    0711        ..      LSLS     r1,r2,#28
        0x000022e0:    f7fefb8c    ....    BL       __ARM_scalbn ; 0x9fc
        0x000022e4:    bd10        ..      POP      {r4,pc}
    $d
        0x000022e6:    0000        ..      DCW    0
        0x000022e8:    fffffd01    ....    DCD    4294966529
    $t
    i.__scatterload_copy
    __scatterload_copy
        0x000022ec:    e002        ..      B        0x22f4 ; __scatterload_copy + 8
        0x000022ee:    c808        ..      LDM      r0!,{r3}
        0x000022f0:    1f12        ..      SUBS     r2,r2,#4
        0x000022f2:    c108        ..      STM      r1!,{r3}
        0x000022f4:    2a00        .*      CMP      r2,#0
        0x000022f6:    d1fa        ..      BNE      0x22ee ; __scatterload_copy + 2
        0x000022f8:    4770        pG      BX       lr
    i.__scatterload_null
    __scatterload_null
        0x000022fa:    4770        pG      BX       lr
    i.__scatterload_zeroinit
    __scatterload_zeroinit
        0x000022fc:    2000        .       MOVS     r0,#0
        0x000022fe:    e001        ..      B        0x2304 ; __scatterload_zeroinit + 8
        0x00002300:    c101        ..      STM      r1!,{r0}
        0x00002302:    1f12        ..      SUBS     r2,r2,#4
        0x00002304:    2a00        .*      CMP      r2,#0
        0x00002306:    d1fb        ..      BNE      0x2300 ; __scatterload_zeroinit + 4
        0x00002308:    4770        pG      BX       lr
        0x0000230a:    0000        ..      MOVS     r0,r0
    i.__set_errno
    __set_errno
        0x0000230c:    4901        .I      LDR      r1,[pc,#4] ; [0x2314] = 0x20000128
        0x0000230e:    6008        .`      STR      r0,[r1,#0]
        0x00002310:    4770        pG      BX       lr
    $d
        0x00002312:    0000        ..      DCW    0
        0x00002314:    20000128    (..     DCD    536871208
    $t
    i._fp_digits
    _fp_digits
        0x00002318:    b5f0        ..      PUSH     {r4-r7,lr}
        0x0000231a:    b41f        ..      PUSH     {r0-r4}
        0x0000231c:    b084        ..      SUB      sp,sp,#0x10
        0x0000231e:    9807        ..      LDR      r0,[sp,#0x1c]
        0x00002320:    9906        ..      LDR      r1,[sp,#0x18]
        0x00002322:    0d02        ..      LSRS     r2,r0,#20
        0x00002324:    4301        .C      ORRS     r1,r1,r0
        0x00002326:    d014        ..      BEQ      0x2352 ; _fp_digits + 58
        0x00002328:    484a        JH      LDR      r0,[pc,#296] ; [0x2454] = 0xfffffc01
        0x0000232a:    494b        KI      LDR      r1,[pc,#300] ; [0x2458] = 0x4d10
        0x0000232c:    1810        ..      ADDS     r0,r2,r0
        0x0000232e:    4348        HC      MULS     r0,r1,r0
        0x00002330:    1405        ..      ASRS     r5,r0,#16
        0x00002332:    980f        ..      LDR      r0,[sp,#0x3c]
        0x00002334:    2801        .(      CMP      r0,#1
        0x00002336:    980e        ..      LDR      r0,[sp,#0x38]
        0x00002338:    d01c        ..      BEQ      0x2374 ; _fp_digits + 92
        0x0000233a:    1a28        (.      SUBS     r0,r5,r0
        0x0000233c:    1c40        @.      ADDS     r0,r0,#1
        0x0000233e:    2400        .$      MOVS     r4,#0
        0x00002340:    4e46        FN      LDR      r6,[pc,#280] ; [0x245c] = 0x40240000
        0x00002342:    4947        GI      LDR      r1,[pc,#284] ; [0x2460] = 0x3ff00000
        0x00002344:    9400        ..      STR      r4,[sp,#0]
        0x00002346:    9101        ..      STR      r1,[sp,#4]
        0x00002348:    9002        ..      STR      r0,[sp,#8]
        0x0000234a:    2800        .(      CMP      r0,#0
        0x0000234c:    da14        ..      BGE      0x2378 ; _fp_digits + 96
        0x0000234e:    4247        GB      RSBS     r7,r0,#0
        0x00002350:    e027        '.      B        0x23a2 ; _fp_digits + 138
        0x00002352:    980f        ..      LDR      r0,[sp,#0x3c]
        0x00002354:    2401        .$      MOVS     r4,#1
        0x00002356:    a343        C.      ADR      r3,{pc}+0x10e ; 0x2464
        0x00002358:    2801        .(      CMP      r0,#1
        0x0000235a:    d008        ..      BEQ      0x236e ; _fp_digits + 86
        0x0000235c:    2100        .!      MOVS     r1,#0
        0x0000235e:    9804        ..      LDR      r0,[sp,#0x10]
        0x00002360:    9a0f        ..      LDR      r2,[sp,#0x3c]
        0x00002362:    6084        .`      STR      r4,[r0,#8]
        0x00002364:    6003        .`      STR      r3,[r0,#0]
        0x00002366:    60c2        .`      STR      r2,[r0,#0xc]
        0x00002368:    6041        A`      STR      r1,[r0,#4]
        0x0000236a:    b009        ..      ADD      sp,sp,#0x24
        0x0000236c:    bdf0        ..      POP      {r4-r7,pc}
        0x0000236e:    980e        ..      LDR      r0,[sp,#0x38]
        0x00002370:    43c1        .C      MVNS     r1,r0
        0x00002372:    e7f4        ..      B        0x235e ; _fp_digits + 70
        0x00002374:    4240        @B      RSBS     r0,r0,#0
        0x00002376:    e7e2        ..      B        0x233e ; _fp_digits + 38
        0x00002378:    4607        .F      MOV      r7,r0
        0x0000237a:    e012        ..      B        0x23a2 ; _fp_digits + 138
        0x0000237c:    07f8        ..      LSLS     r0,r7,#31
        0x0000237e:    d007        ..      BEQ      0x2390 ; _fp_digits + 120
        0x00002380:    4622        "F      MOV      r2,r4
        0x00002382:    4633        3F      MOV      r3,r6
        0x00002384:    9901        ..      LDR      r1,[sp,#4]
        0x00002386:    9800        ..      LDR      r0,[sp,#0]
        0x00002388:    f7fef8a4    ....    BL       __aeabi_dmul ; 0x4d4
        0x0000238c:    9101        ..      STR      r1,[sp,#4]
        0x0000238e:    9000        ..      STR      r0,[sp,#0]
        0x00002390:    4622        "F      MOV      r2,r4
        0x00002392:    4633        3F      MOV      r3,r6
        0x00002394:    4610        .F      MOV      r0,r2
        0x00002396:    4619        .F      MOV      r1,r3
        0x00002398:    f7fef89c    ....    BL       __aeabi_dmul ; 0x4d4
        0x0000239c:    4604        .F      MOV      r4,r0
        0x0000239e:    460e        .F      MOV      r6,r1
        0x000023a0:    107f        ..      ASRS     r7,r7,#1
        0x000023a2:    2f00        ./      CMP      r7,#0
        0x000023a4:    d1ea        ..      BNE      0x237c ; _fp_digits + 100
        0x000023a6:    9802        ..      LDR      r0,[sp,#8]
        0x000023a8:    9b01        ..      LDR      r3,[sp,#4]
        0x000023aa:    2800        .(      CMP      r0,#0
        0x000023ac:    9a00        ..      LDR      r2,[sp,#0]
        0x000023ae:    9907        ..      LDR      r1,[sp,#0x1c]
        0x000023b0:    9806        ..      LDR      r0,[sp,#0x18]
        0x000023b2:    da02        ..      BGE      0x23ba ; _fp_digits + 162
        0x000023b4:    f7fef88e    ....    BL       __aeabi_dmul ; 0x4d4
        0x000023b8:    e001        ..      B        0x23be ; _fp_digits + 166
        0x000023ba:    f7fefaa7    ....    BL       __aeabi_ddiv ; 0x90c
        0x000023be:    4604        .F      MOV      r4,r0
        0x000023c0:    460e        .F      MOV      r6,r1
        0x000023c2:    2200        ."      MOVS     r2,#0
        0x000023c4:    4b28        (K      LDR      r3,[pc,#160] ; [0x2468] = 0x43f00000
        0x000023c6:    f7fefbc9    ....    BL       __aeabi_cdrcmple ; 0xb5c
        0x000023ca:    d803        ..      BHI      0x23d4 ; _fp_digits + 188
        0x000023cc:    2000        .       MOVS     r0,#0
        0x000023ce:    43c0        .C      MVNS     r0,r0
        0x000023d0:    4601        .F      MOV      r1,r0
        0x000023d2:    e007        ..      B        0x23e4 ; _fp_digits + 204
        0x000023d4:    2200        ."      MOVS     r2,#0
        0x000023d6:    4b25        %K      LDR      r3,[pc,#148] ; [0x246c] = 0x3fe00000
        0x000023d8:    4620         F      MOV      r0,r4
        0x000023da:    4631        1F      MOV      r1,r6
        0x000023dc:    f7fdffc8    ....    BL       __aeabi_dadd ; 0x370
        0x000023e0:    f7fefb88    ....    BL       __aeabi_d2ulz ; 0xaf4
        0x000023e4:    2410        .$      MOVS     r4,#0x10
        0x000023e6:    e009        ..      B        0x23fc ; _fp_digits + 228
        0x000023e8:    2c00        .,      CMP      r4,#0
        0x000023ea:    db0a        ..      BLT      0x2402 ; _fp_digits + 234
        0x000023ec:    220a        ."      MOVS     r2,#0xa
        0x000023ee:    2300        .#      MOVS     r3,#0
        0x000023f0:    f7fef988    ....    BL       __aeabi_uldivmod ; 0x704
        0x000023f4:    9b05        ..      LDR      r3,[sp,#0x14]
        0x000023f6:    3230        02      ADDS     r2,r2,#0x30
        0x000023f8:    551a        .U      STRB     r2,[r3,r4]
        0x000023fa:    1e64        d.      SUBS     r4,r4,#1
        0x000023fc:    4602        .F      MOV      r2,r0
        0x000023fe:    430a        .C      ORRS     r2,r2,r1
        0x00002400:    d1f2        ..      BNE      0x23e8 ; _fp_digits + 208
        0x00002402:    2211        ."      MOVS     r2,#0x11
        0x00002404:    1c64        d.      ADDS     r4,r4,#1
        0x00002406:    9b05        ..      LDR      r3,[sp,#0x14]
        0x00002408:    1b12        ..      SUBS     r2,r2,r4
        0x0000240a:    191c        ..      ADDS     r4,r3,r4
        0x0000240c:    9b0f        ..      LDR      r3,[sp,#0x3c]
        0x0000240e:    2b01        .+      CMP      r3,#1
        0x00002410:    d003        ..      BEQ      0x241a ; _fp_digits + 258
        0x00002412:    2301        .#      MOVS     r3,#1
        0x00002414:    4308        .C      ORRS     r0,r0,r1
        0x00002416:    d10e        ..      BNE      0x2436 ; _fp_digits + 286
        0x00002418:    e00a        ..      B        0x2430 ; _fp_digits + 280
        0x0000241a:    4308        .C      ORRS     r0,r0,r1
        0x0000241c:    d004        ..      BEQ      0x2428 ; _fp_digits + 272
        0x0000241e:    2011        .       MOVS     r0,#0x11
        0x00002420:    900e        ..      STR      r0,[sp,#0x38]
        0x00002422:    2000        .       MOVS     r0,#0
        0x00002424:    900f        ..      STR      r0,[sp,#0x3c]
        0x00002426:    e784        ..      B        0x2332 ; _fp_digits + 26
        0x00002428:    980e        ..      LDR      r0,[sp,#0x38]
        0x0000242a:    1a15        ..      SUBS     r5,r2,r0
        0x0000242c:    1e6d        m.      SUBS     r5,r5,#1
        0x0000242e:    e00b        ..      B        0x2448 ; _fp_digits + 304
        0x00002430:    980e        ..      LDR      r0,[sp,#0x38]
        0x00002432:    4282        .B      CMP      r2,r0
        0x00002434:    dd02        ..      BLE      0x243c ; _fp_digits + 292
        0x00002436:    2300        .#      MOVS     r3,#0
        0x00002438:    1c6d        m.      ADDS     r5,r5,#1
        0x0000243a:    e003        ..      B        0x2444 ; _fp_digits + 300
        0x0000243c:    4282        .B      CMP      r2,r0
        0x0000243e:    da01        ..      BGE      0x2444 ; _fp_digits + 300
        0x00002440:    2300        .#      MOVS     r3,#0
        0x00002442:    1e6d        m.      SUBS     r5,r5,#1
        0x00002444:    2b00        .+      CMP      r3,#0
        0x00002446:    d0ee        ..      BEQ      0x2426 ; _fp_digits + 270
        0x00002448:    9804        ..      LDR      r0,[sp,#0x10]
        0x0000244a:    990f        ..      LDR      r1,[sp,#0x3c]
        0x0000244c:    6082        .`      STR      r2,[r0,#8]
        0x0000244e:    60c1        .`      STR      r1,[r0,#0xc]
        0x00002450:    c030        0.      STM      r0!,{r4,r5}
        0x00002452:    e78a        ..      B        0x236a ; _fp_digits + 82
    $d
        0x00002454:    fffffc01    ....    DCD    4294966273
        0x00002458:    00004d10    .M..    DCD    19728
        0x0000245c:    40240000    ..$@    DCD    1076101120
        0x00002460:    3ff00000    ...?    DCD    1072693248
        0x00002464:    00000030    0...    DCD    48
        0x00002468:    43f00000    ...C    DCD    1139802112
        0x0000246c:    3fe00000    ...?    DCD    1071644672
    $t
    i._printf_core
    _printf_core
        0x00002470:    b5ff        ..      PUSH     {r0-r7,lr}
        0x00002472:    b097        ..      SUB      sp,sp,#0x5c
        0x00002474:    4606        .F      MOV      r6,r0
        0x00002476:    2500        .%      MOVS     r5,#0
        0x00002478:    e218        ..      B        0x28ac ; _printf_core + 1084
        0x0000247a:    2825        %(      CMP      r0,#0x25
        0x0000247c:    d177        w.      BNE      0x256e ; _printf_core + 254
        0x0000247e:    2400        .$      MOVS     r4,#0
        0x00002480:    4627        'F      MOV      r7,r4
        0x00002482:    49fd        .I      LDR      r1,[pc,#1012] ; [0x2878] = 0x12809
        0x00002484:    9404        ..      STR      r4,[sp,#0x10]
        0x00002486:    e000        ..      B        0x248a ; _printf_core + 26
        0x00002488:    4304        .C      ORRS     r4,r4,r0
        0x0000248a:    1c76        v.      ADDS     r6,r6,#1
        0x0000248c:    7832        2x      LDRB     r2,[r6,#0]
        0x0000248e:    2001        .       MOVS     r0,#1
        0x00002490:    3a20         :      SUBS     r2,r2,#0x20
        0x00002492:    4090        .@      LSLS     r0,r0,r2
        0x00002494:    4208        .B      TST      r0,r1
        0x00002496:    d1f7        ..      BNE      0x2488 ; _printf_core + 24
        0x00002498:    7830        0x      LDRB     r0,[r6,#0]
        0x0000249a:    282a        *(      CMP      r0,#0x2a
        0x0000249c:    d00e        ..      BEQ      0x24bc ; _printf_core + 76
        0x0000249e:    2202        ."      MOVS     r2,#2
        0x000024a0:    7830        0x      LDRB     r0,[r6,#0]
        0x000024a2:    4601        .F      MOV      r1,r0
        0x000024a4:    3930        09      SUBS     r1,r1,#0x30
        0x000024a6:    2909        .)      CMP      r1,#9
        0x000024a8:    d816        ..      BHI      0x24d8 ; _printf_core + 104
        0x000024aa:    9904        ..      LDR      r1,[sp,#0x10]
        0x000024ac:    230a        .#      MOVS     r3,#0xa
        0x000024ae:    4359        YC      MULS     r1,r3,r1
        0x000024b0:    3930        09      SUBS     r1,r1,#0x30
        0x000024b2:    1840        @.      ADDS     r0,r0,r1
        0x000024b4:    4314        .C      ORRS     r4,r4,r2
        0x000024b6:    1c76        v.      ADDS     r6,r6,#1
        0x000024b8:    9004        ..      STR      r0,[sp,#0x10]
        0x000024ba:    e7f1        ..      B        0x24a0 ; _printf_core + 48
        0x000024bc:    9818        ..      LDR      r0,[sp,#0x60]
        0x000024be:    c802        ..      LDM      r0!,{r1}
        0x000024c0:    9104        ..      STR      r1,[sp,#0x10]
        0x000024c2:    9018        ..      STR      r0,[sp,#0x60]
        0x000024c4:    2900        .)      CMP      r1,#0
        0x000024c6:    da04        ..      BGE      0x24d2 ; _printf_core + 98
        0x000024c8:    2001        .       MOVS     r0,#1
        0x000024ca:    0340        @.      LSLS     r0,r0,#13
        0x000024cc:    4304        .C      ORRS     r4,r4,r0
        0x000024ce:    4248        HB      RSBS     r0,r1,#0
        0x000024d0:    9004        ..      STR      r0,[sp,#0x10]
        0x000024d2:    2002        .       MOVS     r0,#2
        0x000024d4:    4304        .C      ORRS     r4,r4,r0
        0x000024d6:    1c76        v.      ADDS     r6,r6,#1
        0x000024d8:    7830        0x      LDRB     r0,[r6,#0]
        0x000024da:    282e        .(      CMP      r0,#0x2e
        0x000024dc:    d114        ..      BNE      0x2508 ; _printf_core + 152
        0x000024de:    2004        .       MOVS     r0,#4
        0x000024e0:    4304        .C      ORRS     r4,r4,r0
        0x000024e2:    7870        px      LDRB     r0,[r6,#1]
        0x000024e4:    1c76        v.      ADDS     r6,r6,#1
        0x000024e6:    282a        *(      CMP      r0,#0x2a
        0x000024e8:    d109        ..      BNE      0x24fe ; _printf_core + 142
        0x000024ea:    9818        ..      LDR      r0,[sp,#0x60]
        0x000024ec:    1c76        v.      ADDS     r6,r6,#1
        0x000024ee:    c880        ..      LDM      r0!,{r7}
        0x000024f0:    9018        ..      STR      r0,[sp,#0x60]
        0x000024f2:    e009        ..      B        0x2508 ; _printf_core + 152
        0x000024f4:    210a        .!      MOVS     r1,#0xa
        0x000024f6:    434f        OC      MULS     r7,r1,r7
        0x000024f8:    3f30        0?      SUBS     r7,r7,#0x30
        0x000024fa:    19c7        ..      ADDS     r7,r0,r7
        0x000024fc:    1c76        v.      ADDS     r6,r6,#1
        0x000024fe:    7830        0x      LDRB     r0,[r6,#0]
        0x00002500:    4601        .F      MOV      r1,r0
        0x00002502:    3930        09      SUBS     r1,r1,#0x30
        0x00002504:    2909        .)      CMP      r1,#9
        0x00002506:    d9f5        ..      BLS      0x24f4 ; _printf_core + 132
        0x00002508:    7830        0x      LDRB     r0,[r6,#0]
        0x0000250a:    286c        l(      CMP      r0,#0x6c
        0x0000250c:    d010        ..      BEQ      0x2530 ; _printf_core + 192
        0x0000250e:    dc06        ..      BGT      0x251e ; _printf_core + 174
        0x00002510:    284c        L(      CMP      r0,#0x4c
        0x00002512:    d01a        ..      BEQ      0x254a ; _printf_core + 218
        0x00002514:    2868        h(      CMP      r0,#0x68
        0x00002516:    d00e        ..      BEQ      0x2536 ; _printf_core + 198
        0x00002518:    286a        j(      CMP      r0,#0x6a
        0x0000251a:    d117        ..      BNE      0x254c ; _printf_core + 220
        0x0000251c:    e004        ..      B        0x2528 ; _printf_core + 184
        0x0000251e:    2874        t(      CMP      r0,#0x74
        0x00002520:    d013        ..      BEQ      0x254a ; _printf_core + 218
        0x00002522:    287a        z(      CMP      r0,#0x7a
        0x00002524:    d112        ..      BNE      0x254c ; _printf_core + 220
        0x00002526:    e010        ..      B        0x254a ; _printf_core + 218
        0x00002528:    2001        .       MOVS     r0,#1
        0x0000252a:    0540        @.      LSLS     r0,r0,#21
        0x0000252c:    4304        .C      ORRS     r4,r4,r0
        0x0000252e:    e00c        ..      B        0x254a ; _printf_core + 218
        0x00002530:    2101        .!      MOVS     r1,#1
        0x00002532:    0509        ..      LSLS     r1,r1,#20
        0x00002534:    e001        ..      B        0x253a ; _printf_core + 202
        0x00002536:    2103        .!      MOVS     r1,#3
        0x00002538:    0509        ..      LSLS     r1,r1,#20
        0x0000253a:    430c        .C      ORRS     r4,r4,r1
        0x0000253c:    7871        qx      LDRB     r1,[r6,#1]
        0x0000253e:    4281        .B      CMP      r1,r0
        0x00002540:    d103        ..      BNE      0x254a ; _printf_core + 218
        0x00002542:    2001        .       MOVS     r0,#1
        0x00002544:    0500        ..      LSLS     r0,r0,#20
        0x00002546:    1824        $.      ADDS     r4,r4,r0
        0x00002548:    1c76        v.      ADDS     r6,r6,#1
        0x0000254a:    1c76        v.      ADDS     r6,r6,#1
        0x0000254c:    7830        0x      LDRB     r0,[r6,#0]
        0x0000254e:    9011        ..      STR      r0,[sp,#0x44]
        0x00002550:    2866        f(      CMP      r0,#0x66
        0x00002552:    d00b        ..      BEQ      0x256c ; _printf_core + 252
        0x00002554:    dc13        ..      BGT      0x257e ; _printf_core + 270
        0x00002556:    2858        X(      CMP      r0,#0x58
        0x00002558:    d07d        }.      BEQ      0x2656 ; _printf_core + 486
        0x0000255a:    dc09        ..      BGT      0x2570 ; _printf_core + 256
        0x0000255c:    2800        .(      CMP      r0,#0
        0x0000255e:    d07b        {.      BEQ      0x2658 ; _printf_core + 488
        0x00002560:    2845        E(      CMP      r0,#0x45
        0x00002562:    d0f6        ..      BEQ      0x2552 ; _printf_core + 226
        0x00002564:    2846        F(      CMP      r0,#0x46
        0x00002566:    d0f4        ..      BEQ      0x2552 ; _printf_core + 226
        0x00002568:    2847        G(      CMP      r0,#0x47
        0x0000256a:    d11a        ..      BNE      0x25a2 ; _printf_core + 306
        0x0000256c:    e1a5        ..      B        0x28ba ; _printf_core + 1098
        0x0000256e:    e018        ..      B        0x25a2 ; _printf_core + 306
        0x00002570:    2863        c(      CMP      r0,#0x63
        0x00002572:    d035        5.      BEQ      0x25e0 ; _printf_core + 368
        0x00002574:    2864        d(      CMP      r0,#0x64
        0x00002576:    d070        p.      BEQ      0x265a ; _printf_core + 490
        0x00002578:    2865        e(      CMP      r0,#0x65
        0x0000257a:    d112        ..      BNE      0x25a2 ; _printf_core + 306
        0x0000257c:    e19d        ..      B        0x28ba ; _printf_core + 1098
        0x0000257e:    2870        p(      CMP      r0,#0x70
        0x00002580:    d06c        l.      BEQ      0x265c ; _printf_core + 492
        0x00002582:    dc08        ..      BGT      0x2596 ; _printf_core + 294
        0x00002584:    2867        g(      CMP      r0,#0x67
        0x00002586:    d0f1        ..      BEQ      0x256c ; _printf_core + 252
        0x00002588:    2869        i(      CMP      r0,#0x69
        0x0000258a:    d07b        {.      BEQ      0x2684 ; _printf_core + 532
        0x0000258c:    286e        n(      CMP      r0,#0x6e
        0x0000258e:    d00d        ..      BEQ      0x25ac ; _printf_core + 316
        0x00002590:    286f        o(      CMP      r0,#0x6f
        0x00002592:    d106        ..      BNE      0x25a2 ; _printf_core + 306
        0x00002594:    e0ba        ..      B        0x270c ; _printf_core + 668
        0x00002596:    2873        s(      CMP      r0,#0x73
        0x00002598:    d02e        ..      BEQ      0x25f8 ; _printf_core + 392
        0x0000259a:    2875        u(      CMP      r0,#0x75
        0x0000259c:    d071        q.      BEQ      0x2682 ; _printf_core + 530
        0x0000259e:    2878        x(      CMP      r0,#0x78
        0x000025a0:    d059        Y.      BEQ      0x2656 ; _printf_core + 486
        0x000025a2:    9a1a        ..      LDR      r2,[sp,#0x68]
        0x000025a4:    9919        ..      LDR      r1,[sp,#0x64]
        0x000025a6:    4790        .G      BLX      r2
        0x000025a8:    1c6d        m.      ADDS     r5,r5,#1
        0x000025aa:    e17e        ~.      B        0x28aa ; _printf_core + 1082
        0x000025ac:    0260        `.      LSLS     r0,r4,#9
        0x000025ae:    0f40        @.      LSRS     r0,r0,#29
        0x000025b0:    2802        .(      CMP      r0,#2
        0x000025b2:    d009        ..      BEQ      0x25c8 ; _printf_core + 344
        0x000025b4:    2803        .(      CMP      r0,#3
        0x000025b6:    d00d        ..      BEQ      0x25d4 ; _printf_core + 356
        0x000025b8:    2804        .(      CMP      r0,#4
        0x000025ba:    9818        ..      LDR      r0,[sp,#0x60]
        0x000025bc:    6801        .h      LDR      r1,[r0,#0]
        0x000025be:    d00d        ..      BEQ      0x25dc ; _printf_core + 364
        0x000025c0:    600d        .`      STR      r5,[r1,#0]
        0x000025c2:    1d00        ..      ADDS     r0,r0,#4
        0x000025c4:    9018        ..      STR      r0,[sp,#0x60]
        0x000025c6:    e170        p.      B        0x28aa ; _printf_core + 1082
        0x000025c8:    9818        ..      LDR      r0,[sp,#0x60]
        0x000025ca:    17ea        ..      ASRS     r2,r5,#31
        0x000025cc:    6801        .h      LDR      r1,[r0,#0]
        0x000025ce:    600d        .`      STR      r5,[r1,#0]
        0x000025d0:    604a        J`      STR      r2,[r1,#4]
        0x000025d2:    e7f6        ..      B        0x25c2 ; _printf_core + 338
        0x000025d4:    9818        ..      LDR      r0,[sp,#0x60]
        0x000025d6:    6801        .h      LDR      r1,[r0,#0]
        0x000025d8:    800d        ..      STRH     r5,[r1,#0]
        0x000025da:    e7f2        ..      B        0x25c2 ; _printf_core + 338
        0x000025dc:    700d        .p      STRB     r5,[r1,#0]
        0x000025de:    e7f0        ..      B        0x25c2 ; _printf_core + 338
        0x000025e0:    9818        ..      LDR      r0,[sp,#0x60]
        0x000025e2:    466a        jF      MOV      r2,sp
        0x000025e4:    7801        .x      LDRB     r1,[r0,#0]
        0x000025e6:    7211        .r      STRB     r1,[r2,#8]
        0x000025e8:    1d00        ..      ADDS     r0,r0,#4
        0x000025ea:    9018        ..      STR      r0,[sp,#0x60]
        0x000025ec:    2000        .       MOVS     r0,#0
        0x000025ee:    7250        Pr      STRB     r0,[r2,#9]
        0x000025f0:    a802        ..      ADD      r0,sp,#8
        0x000025f2:    9000        ..      STR      r0,[sp,#0]
        0x000025f4:    2001        .       MOVS     r0,#1
        0x000025f6:    e005        ..      B        0x2604 ; _printf_core + 404
        0x000025f8:    9818        ..      LDR      r0,[sp,#0x60]
        0x000025fa:    c802        ..      LDM      r0!,{r1}
        0x000025fc:    9018        ..      STR      r0,[sp,#0x60]
        0x000025fe:    2000        .       MOVS     r0,#0
        0x00002600:    9100        ..      STR      r1,[sp,#0]
        0x00002602:    43c0        .C      MVNS     r0,r0
        0x00002604:    0761        a.      LSLS     r1,r4,#29
        0x00002606:    d50d        ..      BPL      0x2624 ; _printf_core + 436
        0x00002608:    2100        .!      MOVS     r1,#0
        0x0000260a:    e001        ..      B        0x2610 ; _printf_core + 416
        0x0000260c:    9901        ..      LDR      r1,[sp,#4]
        0x0000260e:    1c49        I.      ADDS     r1,r1,#1
        0x00002610:    9101        ..      STR      r1,[sp,#4]
        0x00002612:    42b9        .B      CMP      r1,r7
        0x00002614:    da12        ..      BGE      0x263c ; _printf_core + 460
        0x00002616:    4281        .B      CMP      r1,r0
        0x00002618:    dbf8        ..      BLT      0x260c ; _printf_core + 412
        0x0000261a:    9a00        ..      LDR      r2,[sp,#0]
        0x0000261c:    5c51        Q\      LDRB     r1,[r2,r1]
        0x0000261e:    2900        .)      CMP      r1,#0
        0x00002620:    d1f4        ..      BNE      0x260c ; _printf_core + 412
        0x00002622:    e00b        ..      B        0x263c ; _printf_core + 460
        0x00002624:    2100        .!      MOVS     r1,#0
        0x00002626:    e001        ..      B        0x262c ; _printf_core + 444
        0x00002628:    9901        ..      LDR      r1,[sp,#4]
        0x0000262a:    1c49        I.      ADDS     r1,r1,#1
        0x0000262c:    9101        ..      STR      r1,[sp,#4]
        0x0000262e:    4281        .B      CMP      r1,r0
        0x00002630:    dbfa        ..      BLT      0x2628 ; _printf_core + 440
        0x00002632:    9a01        ..      LDR      r2,[sp,#4]
        0x00002634:    9900        ..      LDR      r1,[sp,#0]
        0x00002636:    5c89        .\      LDRB     r1,[r1,r2]
        0x00002638:    2900        .)      CMP      r1,#0
        0x0000263a:    d1f5        ..      BNE      0x2628 ; _printf_core + 440
        0x0000263c:    9901        ..      LDR      r1,[sp,#4]
        0x0000263e:    9804        ..      LDR      r0,[sp,#0x10]
        0x00002640:    9b1a        ..      LDR      r3,[sp,#0x68]
        0x00002642:    1a47        G.      SUBS     r7,r0,r1
        0x00002644:    4621        !F      MOV      r1,r4
        0x00002646:    4638        8F      MOV      r0,r7
        0x00002648:    9a19        ..      LDR      r2,[sp,#0x64]
        0x0000264a:    f000fa97    ....    BL       _printf_pre_padding ; 0x2b7c
        0x0000264e:    9901        ..      LDR      r1,[sp,#4]
        0x00002650:    1940        @.      ADDS     r0,r0,r5
        0x00002652:    1845        E.      ADDS     r5,r0,r1
        0x00002654:    e00b        ..      B        0x266e ; _printf_core + 510
        0x00002656:    e04f        O.      B        0x26f8 ; _printf_core + 648
        0x00002658:    e12c        ,.      B        0x28b4 ; _printf_core + 1092
        0x0000265a:    e013        ..      B        0x2684 ; _printf_core + 532
        0x0000265c:    e04e        N.      B        0x26fc ; _printf_core + 652
        0x0000265e:    9800        ..      LDR      r0,[sp,#0]
        0x00002660:    9900        ..      LDR      r1,[sp,#0]
        0x00002662:    7800        .x      LDRB     r0,[r0,#0]
        0x00002664:    1c49        I.      ADDS     r1,r1,#1
        0x00002666:    9100        ..      STR      r1,[sp,#0]
        0x00002668:    9a1a        ..      LDR      r2,[sp,#0x68]
        0x0000266a:    9919        ..      LDR      r1,[sp,#0x64]
        0x0000266c:    4790        .G      BLX      r2
        0x0000266e:    9801        ..      LDR      r0,[sp,#4]
        0x00002670:    1e40        @.      SUBS     r0,r0,#1
        0x00002672:    9001        ..      STR      r0,[sp,#4]
        0x00002674:    1c40        @.      ADDS     r0,r0,#1
        0x00002676:    d1f2        ..      BNE      0x265e ; _printf_core + 494
        0x00002678:    4621        !F      MOV      r1,r4
        0x0000267a:    4638        8F      MOV      r0,r7
        0x0000267c:    9b1a        ..      LDR      r3,[sp,#0x68]
        0x0000267e:    9a19        ..      LDR      r2,[sp,#0x64]
        0x00002680:    e110        ..      B        0x28a4 ; _printf_core + 1076
        0x00002682:    e037        7.      B        0x26f4 ; _printf_core + 644
        0x00002684:    200a        .       MOVS     r0,#0xa
        0x00002686:    2100        .!      MOVS     r1,#0
        0x00002688:    9000        ..      STR      r0,[sp,#0]
        0x0000268a:    9101        ..      STR      r1,[sp,#4]
        0x0000268c:    0260        `.      LSLS     r0,r4,#9
        0x0000268e:    0f41        A.      LSRS     r1,r0,#29
        0x00002690:    2902        .)      CMP      r1,#2
        0x00002692:    d007        ..      BEQ      0x26a4 ; _printf_core + 564
        0x00002694:    9a18        ..      LDR      r2,[sp,#0x60]
        0x00002696:    ca01        ..      LDM      r2!,{r0}
        0x00002698:    9218        ..      STR      r2,[sp,#0x60]
        0x0000269a:    17c2        ..      ASRS     r2,r0,#31
        0x0000269c:    4694        .F      MOV      r12,r2
        0x0000269e:    2903        .)      CMP      r1,#3
        0x000026a0:    d008        ..      BEQ      0x26b4 ; _printf_core + 580
        0x000026a2:    e00a        ..      B        0x26ba ; _printf_core + 586
        0x000026a4:    9818        ..      LDR      r0,[sp,#0x60]
        0x000026a6:    1dc0        ..      ADDS     r0,r0,#7
        0x000026a8:    08c1        ..      LSRS     r1,r0,#3
        0x000026aa:    00c9        ..      LSLS     r1,r1,#3
        0x000026ac:    c905        ..      LDM      r1!,{r0,r2}
        0x000026ae:    9118        ..      STR      r1,[sp,#0x60]
        0x000026b0:    4694        .F      MOV      r12,r2
        0x000026b2:    e007        ..      B        0x26c4 ; _printf_core + 596
        0x000026b4:    b200        ..      SXTH     r0,r0
        0x000026b6:    17c2        ..      ASRS     r2,r0,#31
        0x000026b8:    4694        .F      MOV      r12,r2
        0x000026ba:    2904        .)      CMP      r1,#4
        0x000026bc:    d102        ..      BNE      0x26c4 ; _printf_core + 596
        0x000026be:    b240        @.      SXTB     r0,r0
        0x000026c0:    17c1        ..      ASRS     r1,r0,#31
        0x000026c2:    468c        .F      MOV      r12,r1
        0x000026c4:    2200        ."      MOVS     r2,#0
        0x000026c6:    4661        aF      MOV      r1,r12
        0x000026c8:    4594        .E      CMP      r12,r2
        0x000026ca:    da06        ..      BGE      0x26da ; _printf_core + 618
        0x000026cc:    460a        .F      MOV      r2,r1
        0x000026ce:    2100        .!      MOVS     r1,#0
        0x000026d0:    4240        @B      RSBS     r0,r0,#0
        0x000026d2:    4191        .A      SBCS     r1,r1,r2
        0x000026d4:    468c        .F      MOV      r12,r1
        0x000026d6:    212d        -!      MOVS     r1,#0x2d
        0x000026d8:    e002        ..      B        0x26e0 ; _printf_core + 624
        0x000026da:    0521        !.      LSLS     r1,r4,#20
        0x000026dc:    d504        ..      BPL      0x26e8 ; _printf_core + 632
        0x000026de:    212b        +!      MOVS     r1,#0x2b
        0x000026e0:    466a        jF      MOV      r2,sp
        0x000026e2:    7311        .s      STRB     r1,[r2,#0xc]
        0x000026e4:    2101        .!      MOVS     r1,#1
        0x000026e6:    e003        ..      B        0x26f0 ; _printf_core + 640
        0x000026e8:    07e1        ..      LSLS     r1,r4,#31
        0x000026ea:    d001        ..      BEQ      0x26f0 ; _printf_core + 640
        0x000026ec:    2120         !      MOVS     r1,#0x20
        0x000026ee:    e7f7        ..      B        0x26e0 ; _printf_core + 624
        0x000026f0:    9102        ..      STR      r1,[sp,#8]
        0x000026f2:    e055        U.      B        0x27a0 ; _printf_core + 816
        0x000026f4:    200a        .       MOVS     r0,#0xa
        0x000026f6:    e00a        ..      B        0x270e ; _printf_core + 670
        0x000026f8:    2010        .       MOVS     r0,#0x10
        0x000026fa:    e008        ..      B        0x270e ; _printf_core + 670
        0x000026fc:    2010        .       MOVS     r0,#0x10
        0x000026fe:    9000        ..      STR      r0,[sp,#0]
        0x00002700:    2100        .!      MOVS     r1,#0
        0x00002702:    2004        .       MOVS     r0,#4
        0x00002704:    4304        .C      ORRS     r4,r4,r0
        0x00002706:    9101        ..      STR      r1,[sp,#4]
        0x00002708:    2708        .'      MOVS     r7,#8
        0x0000270a:    e003        ..      B        0x2714 ; _printf_core + 676
        0x0000270c:    2008        .       MOVS     r0,#8
        0x0000270e:    2100        .!      MOVS     r1,#0
        0x00002710:    9101        ..      STR      r1,[sp,#4]
        0x00002712:    9000        ..      STR      r0,[sp,#0]
        0x00002714:    0260        `.      LSLS     r0,r4,#9
        0x00002716:    0f41        A.      LSRS     r1,r0,#29
        0x00002718:    2902        .)      CMP      r1,#2
        0x0000271a:    d007        ..      BEQ      0x272c ; _printf_core + 700
        0x0000271c:    9a18        ..      LDR      r2,[sp,#0x60]
        0x0000271e:    ca01        ..      LDM      r2!,{r0}
        0x00002720:    9218        ..      STR      r2,[sp,#0x60]
        0x00002722:    2200        ."      MOVS     r2,#0
        0x00002724:    4694        .F      MOV      r12,r2
        0x00002726:    2903        .)      CMP      r1,#3
        0x00002728:    d008        ..      BEQ      0x273c ; _printf_core + 716
        0x0000272a:    e008        ..      B        0x273e ; _printf_core + 718
        0x0000272c:    9818        ..      LDR      r0,[sp,#0x60]
        0x0000272e:    1dc0        ..      ADDS     r0,r0,#7
        0x00002730:    08c1        ..      LSRS     r1,r0,#3
        0x00002732:    00c9        ..      LSLS     r1,r1,#3
        0x00002734:    c905        ..      LDM      r1!,{r0,r2}
        0x00002736:    9118        ..      STR      r1,[sp,#0x60]
        0x00002738:    4694        .F      MOV      r12,r2
        0x0000273a:    e003        ..      B        0x2744 ; _printf_core + 724
        0x0000273c:    b280        ..      UXTH     r0,r0
        0x0000273e:    2904        .)      CMP      r1,#4
        0x00002740:    d100        ..      BNE      0x2744 ; _printf_core + 724
        0x00002742:    b2c0        ..      UXTB     r0,r0
        0x00002744:    2100        .!      MOVS     r1,#0
        0x00002746:    9102        ..      STR      r1,[sp,#8]
        0x00002748:    0721        !.      LSLS     r1,r4,#28
        0x0000274a:    d529        ).      BPL      0x27a0 ; _printf_core + 816
        0x0000274c:    9911        ..      LDR      r1,[sp,#0x44]
        0x0000274e:    2970        p)      CMP      r1,#0x70
        0x00002750:    d006        ..      BEQ      0x2760 ; _printf_core + 752
        0x00002752:    9a00        ..      LDR      r2,[sp,#0]
        0x00002754:    2110        .!      MOVS     r1,#0x10
        0x00002756:    9b01        ..      LDR      r3,[sp,#4]
        0x00002758:    404a        J@      EORS     r2,r2,r1
        0x0000275a:    431a        .C      ORRS     r2,r2,r3
        0x0000275c:    d005        ..      BEQ      0x276a ; _printf_core + 762
        0x0000275e:    e00e        ..      B        0x277e ; _printf_core + 782
        0x00002760:    2140        @!      MOVS     r1,#0x40
        0x00002762:    466a        jF      MOV      r2,sp
        0x00002764:    7311        .s      STRB     r1,[r2,#0xc]
        0x00002766:    2101        .!      MOVS     r1,#1
        0x00002768:    e008        ..      B        0x277c ; _printf_core + 780
        0x0000276a:    4661        aF      MOV      r1,r12
        0x0000276c:    4301        .C      ORRS     r1,r1,r0
        0x0000276e:    d006        ..      BEQ      0x277e ; _printf_core + 782
        0x00002770:    2130        0!      MOVS     r1,#0x30
        0x00002772:    466a        jF      MOV      r2,sp
        0x00002774:    7311        .s      STRB     r1,[r2,#0xc]
        0x00002776:    9911        ..      LDR      r1,[sp,#0x44]
        0x00002778:    7351        Qs      STRB     r1,[r2,#0xd]
        0x0000277a:    2102        .!      MOVS     r1,#2
        0x0000277c:    9102        ..      STR      r1,[sp,#8]
        0x0000277e:    9a00        ..      LDR      r2,[sp,#0]
        0x00002780:    2108        .!      MOVS     r1,#8
        0x00002782:    9b01        ..      LDR      r3,[sp,#4]
        0x00002784:    404a        J@      EORS     r2,r2,r1
        0x00002786:    431a        .C      ORRS     r2,r2,r3
        0x00002788:    d10a        ..      BNE      0x27a0 ; _printf_core + 816
        0x0000278a:    4661        aF      MOV      r1,r12
        0x0000278c:    4301        .C      ORRS     r1,r1,r0
        0x0000278e:    d101        ..      BNE      0x2794 ; _printf_core + 804
        0x00002790:    0761        a.      LSLS     r1,r4,#29
        0x00002792:    d505        ..      BPL      0x27a0 ; _printf_core + 816
        0x00002794:    2130        0!      MOVS     r1,#0x30
        0x00002796:    466a        jF      MOV      r2,sp
        0x00002798:    7311        .s      STRB     r1,[r2,#0xc]
        0x0000279a:    2101        .!      MOVS     r1,#1
        0x0000279c:    1e7f        ..      SUBS     r7,r7,#1
        0x0000279e:    9102        ..      STR      r1,[sp,#8]
        0x000027a0:    9911        ..      LDR      r1,[sp,#0x44]
        0x000027a2:    2958        X)      CMP      r1,#0x58
        0x000027a4:    d004        ..      BEQ      0x27b0 ; _printf_core + 832
        0x000027a6:    a135        5.      ADR      r1,{pc}+0xd6 ; 0x287c
        0x000027a8:    910e        ..      STR      r1,[sp,#0x38]
        0x000027aa:    a90d        ..      ADD      r1,sp,#0x34
        0x000027ac:    910d        ..      STR      r1,[sp,#0x34]
        0x000027ae:    e00d        ..      B        0x27cc ; _printf_core + 860
        0x000027b0:    a137        7.      ADR      r1,{pc}+0xe0 ; 0x2890
        0x000027b2:    e7f9        ..      B        0x27a8 ; _printf_core + 824
        0x000027b4:    4661        aF      MOV      r1,r12
        0x000027b6:    9b01        ..      LDR      r3,[sp,#4]
        0x000027b8:    9a00        ..      LDR      r2,[sp,#0]
        0x000027ba:    f7fdffa3    ....    BL       __aeabi_uldivmod ; 0x704
        0x000027be:    9b0e        ..      LDR      r3,[sp,#0x38]
        0x000027c0:    468c        .F      MOV      r12,r1
        0x000027c2:    5c9b        .\      LDRB     r3,[r3,r2]
        0x000027c4:    9a0d        ..      LDR      r2,[sp,#0x34]
        0x000027c6:    1e52        R.      SUBS     r2,r2,#1
        0x000027c8:    920d        ..      STR      r2,[sp,#0x34]
        0x000027ca:    7013        .p      STRB     r3,[r2,#0]
        0x000027cc:    4661        aF      MOV      r1,r12
        0x000027ce:    4301        .C      ORRS     r1,r1,r0
        0x000027d0:    d1f0        ..      BNE      0x27b4 ; _printf_core + 836
        0x000027d2:    980d        ..      LDR      r0,[sp,#0x34]
        0x000027d4:    a905        ..      ADD      r1,sp,#0x14
        0x000027d6:    1a08        ..      SUBS     r0,r1,r0
        0x000027d8:    3020         0      ADDS     r0,r0,#0x20
        0x000027da:    9001        ..      STR      r0,[sp,#4]
        0x000027dc:    0760        `.      LSLS     r0,r4,#29
        0x000027de:    d503        ..      BPL      0x27e8 ; _printf_core + 888
        0x000027e0:    2001        .       MOVS     r0,#1
        0x000027e2:    0400        ..      LSLS     r0,r0,#16
        0x000027e4:    4384        .C      BICS     r4,r4,r0
        0x000027e6:    e000        ..      B        0x27ea ; _printf_core + 890
        0x000027e8:    2701        .'      MOVS     r7,#1
        0x000027ea:    9801        ..      LDR      r0,[sp,#4]
        0x000027ec:    4287        .B      CMP      r7,r0
        0x000027ee:    dd01        ..      BLE      0x27f4 ; _printf_core + 900
        0x000027f0:    1a38        8.      SUBS     r0,r7,r0
        0x000027f2:    e000        ..      B        0x27f6 ; _printf_core + 902
        0x000027f4:    2000        .       MOVS     r0,#0
        0x000027f6:    9901        ..      LDR      r1,[sp,#4]
        0x000027f8:    9000        ..      STR      r0,[sp,#0]
        0x000027fa:    1841        A.      ADDS     r1,r0,r1
        0x000027fc:    9802        ..      LDR      r0,[sp,#8]
        0x000027fe:    1809        ..      ADDS     r1,r1,r0
        0x00002800:    9804        ..      LDR      r0,[sp,#0x10]
        0x00002802:    1a40        @.      SUBS     r0,r0,r1
        0x00002804:    9004        ..      STR      r0,[sp,#0x10]
        0x00002806:    03e0        ..      LSLS     r0,r4,#15
        0x00002808:    d406        ..      BMI      0x2818 ; _printf_core + 936
        0x0000280a:    4621        !F      MOV      r1,r4
        0x0000280c:    9b1a        ..      LDR      r3,[sp,#0x68]
        0x0000280e:    9a19        ..      LDR      r2,[sp,#0x64]
        0x00002810:    9804        ..      LDR      r0,[sp,#0x10]
        0x00002812:    f000f9b3    ....    BL       _printf_pre_padding ; 0x2b7c
        0x00002816:    1945        E.      ADDS     r5,r0,r5
        0x00002818:    2700        .'      MOVS     r7,#0
        0x0000281a:    e006        ..      B        0x282a ; _printf_core + 954
        0x0000281c:    a803        ..      ADD      r0,sp,#0xc
        0x0000281e:    9a1a        ..      LDR      r2,[sp,#0x68]
        0x00002820:    5dc0        .]      LDRB     r0,[r0,r7]
        0x00002822:    9919        ..      LDR      r1,[sp,#0x64]
        0x00002824:    4790        .G      BLX      r2
        0x00002826:    1c6d        m.      ADDS     r5,r5,#1
        0x00002828:    1c7f        ..      ADDS     r7,r7,#1
        0x0000282a:    9802        ..      LDR      r0,[sp,#8]
        0x0000282c:    4287        .B      CMP      r7,r0
        0x0000282e:    dbf5        ..      BLT      0x281c ; _printf_core + 940
        0x00002830:    03e0        ..      LSLS     r0,r4,#15
        0x00002832:    d50c        ..      BPL      0x284e ; _printf_core + 990
        0x00002834:    4621        !F      MOV      r1,r4
        0x00002836:    9b1a        ..      LDR      r3,[sp,#0x68]
        0x00002838:    9a19        ..      LDR      r2,[sp,#0x64]
        0x0000283a:    9804        ..      LDR      r0,[sp,#0x10]
        0x0000283c:    f000f99e    ....    BL       _printf_pre_padding ; 0x2b7c
        0x00002840:    1945        E.      ADDS     r5,r0,r5
        0x00002842:    e004        ..      B        0x284e ; _printf_core + 990
        0x00002844:    9a1a        ..      LDR      r2,[sp,#0x68]
        0x00002846:    2030        0       MOVS     r0,#0x30
        0x00002848:    9919        ..      LDR      r1,[sp,#0x64]
        0x0000284a:    4790        .G      BLX      r2
        0x0000284c:    1c6d        m.      ADDS     r5,r5,#1
        0x0000284e:    9900        ..      LDR      r1,[sp,#0]
        0x00002850:    1e48        H.      SUBS     r0,r1,#1
        0x00002852:    9000        ..      STR      r0,[sp,#0]
        0x00002854:    2900        .)      CMP      r1,#0
        0x00002856:    dcf5        ..      BGT      0x2844 ; _printf_core + 980
        0x00002858:    e008        ..      B        0x286c ; _printf_core + 1020
        0x0000285a:    980d        ..      LDR      r0,[sp,#0x34]
        0x0000285c:    990d        ..      LDR      r1,[sp,#0x34]
        0x0000285e:    7800        .x      LDRB     r0,[r0,#0]
        0x00002860:    1c49        I.      ADDS     r1,r1,#1
        0x00002862:    910d        ..      STR      r1,[sp,#0x34]
        0x00002864:    9a1a        ..      LDR      r2,[sp,#0x68]
        0x00002866:    9919        ..      LDR      r1,[sp,#0x64]
        0x00002868:    4790        .G      BLX      r2
        0x0000286a:    1c6d        m.      ADDS     r5,r5,#1
        0x0000286c:    9901        ..      LDR      r1,[sp,#4]
        0x0000286e:    1e48        H.      SUBS     r0,r1,#1
        0x00002870:    9001        ..      STR      r0,[sp,#4]
        0x00002872:    2900        .)      CMP      r1,#0
        0x00002874:    dcf1        ..      BGT      0x285a ; _printf_core + 1002
        0x00002876:    e163        c.      B        0x2b40 ; _printf_core + 1744
    $d
        0x00002878:    00012809    .(..    DCD    75785
        0x0000287c:    33323130    0123    DCD    858927408
        0x00002880:    37363534    4567    DCD    926299444
        0x00002884:    62613938    89ab    DCD    1650538808
        0x00002888:    66656463    cdef    DCD    1717920867
        0x0000288c:    00000000    ....    DCD    0
        0x00002890:    33323130    0123    DCD    858927408
        0x00002894:    37363534    4567    DCD    926299444
        0x00002898:    42413938    89AB    DCD    1111570744
        0x0000289c:    46454443    CDEF    DCD    1178944579
        0x000028a0:    00000000    ....    DCD    0
    $t
        0x000028a4:    f000f95a    ..Z.    BL       _printf_post_padding ; 0x2b5c
        0x000028a8:    1945        E.      ADDS     r5,r0,r5
        0x000028aa:    1c76        v.      ADDS     r6,r6,#1
        0x000028ac:    7830        0x      LDRB     r0,[r6,#0]
        0x000028ae:    2800        .(      CMP      r0,#0
        0x000028b0:    d000        ..      BEQ      0x28b4 ; _printf_core + 1092
        0x000028b2:    e5e2        ..      B        0x247a ; _printf_core + 10
        0x000028b4:    4628        (F      MOV      r0,r5
        0x000028b6:    b01b        ..      ADD      sp,sp,#0x6c
        0x000028b8:    bdf0        ..      POP      {r4-r7,pc}
        0x000028ba:    0760        `.      LSLS     r0,r4,#29
        0x000028bc:    d400        ..      BMI      0x28c0 ; _printf_core + 1104
        0x000028be:    2706        .'      MOVS     r7,#6
        0x000028c0:    9818        ..      LDR      r0,[sp,#0x60]
        0x000028c2:    1dc0        ..      ADDS     r0,r0,#7
        0x000028c4:    08c1        ..      LSRS     r1,r0,#3
        0x000028c6:    00c9        ..      LSLS     r1,r1,#3
        0x000028c8:    6848        Hh      LDR      r0,[r1,#4]
        0x000028ca:    680a        .h      LDR      r2,[r1,#0]
        0x000028cc:    3108        .1      ADDS     r1,r1,#8
        0x000028ce:    0fc3        ..      LSRS     r3,r0,#31
        0x000028d0:    07db        ..      LSLS     r3,r3,#31
        0x000028d2:    9118        ..      STR      r1,[sp,#0x60]
        0x000028d4:    0019        ..      MOVS     r1,r3
        0x000028d6:    d001        ..      BEQ      0x28dc ; _printf_core + 1132
        0x000028d8:    a19c        ..      ADR      r1,{pc}+0x274 ; 0x2b4c
        0x000028da:    e008        ..      B        0x28ee ; _printf_core + 1150
        0x000028dc:    0521        !.      LSLS     r1,r4,#20
        0x000028de:    d501        ..      BPL      0x28e4 ; _printf_core + 1140
        0x000028e0:    a19b        ..      ADR      r1,{pc}+0x270 ; 0x2b50
        0x000028e2:    e004        ..      B        0x28ee ; _printf_core + 1150
        0x000028e4:    07e1        ..      LSLS     r1,r4,#31
        0x000028e6:    d001        ..      BEQ      0x28ec ; _printf_core + 1148
        0x000028e8:    a19a        ..      ADR      r1,{pc}+0x26c ; 0x2b54
        0x000028ea:    e000        ..      B        0x28ee ; _printf_core + 1150
        0x000028ec:    a19a        ..      ADR      r1,{pc}+0x26c ; 0x2b58
        0x000028ee:    0043        C.      LSLS     r3,r0,#1
        0x000028f0:    9811        ..      LDR      r0,[sp,#0x44]
        0x000028f2:    085b        [.      LSRS     r3,r3,#1
        0x000028f4:    9110        ..      STR      r1,[sp,#0x40]
        0x000028f6:    2865        e(      CMP      r0,#0x65
        0x000028f8:    d00c        ..      BEQ      0x2914 ; _printf_core + 1188
        0x000028fa:    dc06        ..      BGT      0x290a ; _printf_core + 1178
        0x000028fc:    2845        E(      CMP      r0,#0x45
        0x000028fe:    d009        ..      BEQ      0x2914 ; _printf_core + 1188
        0x00002900:    2846        F(      CMP      r0,#0x46
        0x00002902:    d01d        ..      BEQ      0x2940 ; _printf_core + 1232
        0x00002904:    2847        G(      CMP      r0,#0x47
        0x00002906:    d141        A.      BNE      0x298c ; _printf_core + 1308
        0x00002908:    e041        A.      B        0x298e ; _printf_core + 1310
        0x0000290a:    2866        f(      CMP      r0,#0x66
        0x0000290c:    d018        ..      BEQ      0x2940 ; _printf_core + 1232
        0x0000290e:    2867        g(      CMP      r0,#0x67
        0x00002910:    d13c        <.      BNE      0x298c ; _printf_core + 1308
        0x00002912:    e03c        <.      B        0x298e ; _printf_core + 1310
        0x00002914:    2100        .!      MOVS     r1,#0
        0x00002916:    2f11        ./      CMP      r7,#0x11
        0x00002918:    db01        ..      BLT      0x291e ; _printf_core + 1198
        0x0000291a:    2011        .       MOVS     r0,#0x11
        0x0000291c:    e000        ..      B        0x2920 ; _printf_core + 1200
        0x0000291e:    1c78        x.      ADDS     r0,r7,#1
        0x00002920:    9101        ..      STR      r1,[sp,#4]
        0x00002922:    9000        ..      STR      r0,[sp,#0]
        0x00002924:    a908        ..      ADD      r1,sp,#0x20
        0x00002926:    a811        ..      ADD      r0,sp,#0x44
        0x00002928:    f7fffcf6    ....    BL       _fp_digits ; 0x2318
        0x0000292c:    9913        ..      LDR      r1,[sp,#0x4c]
        0x0000292e:    9105        ..      STR      r1,[sp,#0x14]
        0x00002930:    2100        .!      MOVS     r1,#0
        0x00002932:    9a11        ..      LDR      r2,[sp,#0x44]
        0x00002934:    9215        ..      STR      r2,[sp,#0x54]
        0x00002936:    1c7f        ..      ADDS     r7,r7,#1
        0x00002938:    9812        ..      LDR      r0,[sp,#0x48]
        0x0000293a:    9701        ..      STR      r7,[sp,#4]
        0x0000293c:    9100        ..      STR      r1,[sp,#0]
        0x0000293e:    e050        P.      B        0x29e2 ; _printf_core + 1394
        0x00002940:    2001        .       MOVS     r0,#1
        0x00002942:    07c0        ..      LSLS     r0,r0,#31
        0x00002944:    9003        ..      STR      r0,[sp,#0xc]
        0x00002946:    2001        .       MOVS     r0,#1
        0x00002948:    9001        ..      STR      r0,[sp,#4]
        0x0000294a:    a908        ..      ADD      r1,sp,#0x20
        0x0000294c:    9700        ..      STR      r7,[sp,#0]
        0x0000294e:    a811        ..      ADD      r0,sp,#0x44
        0x00002950:    f7fffce2    ....    BL       _fp_digits ; 0x2318
        0x00002954:    9a13        ..      LDR      r2,[sp,#0x4c]
        0x00002956:    9914        ..      LDR      r1,[sp,#0x50]
        0x00002958:    9205        ..      STR      r2,[sp,#0x14]
        0x0000295a:    2200        ."      MOVS     r2,#0
        0x0000295c:    9b11        ..      LDR      r3,[sp,#0x44]
        0x0000295e:    9200        ..      STR      r2,[sp,#0]
        0x00002960:    9812        ..      LDR      r0,[sp,#0x48]
        0x00002962:    9315        ..      STR      r3,[sp,#0x54]
        0x00002964:    9a05        ..      LDR      r2,[sp,#0x14]
        0x00002966:    9201        ..      STR      r2,[sp,#4]
        0x00002968:    2900        .)      CMP      r1,#0
        0x0000296a:    d001        ..      BEQ      0x2970 ; _printf_core + 1280
        0x0000296c:    4610        .F      MOV      r0,r2
        0x0000296e:    e002        ..      B        0x2976 ; _printf_core + 1286
        0x00002970:    1c79        y.      ADDS     r1,r7,#1
        0x00002972:    1840        @.      ADDS     r0,r0,r1
        0x00002974:    9001        ..      STR      r0,[sp,#4]
        0x00002976:    1a38        8.      SUBS     r0,r7,r0
        0x00002978:    d501        ..      BPL      0x297e ; _printf_core + 1294
        0x0000297a:    9801        ..      LDR      r0,[sp,#4]
        0x0000297c:    e004        ..      B        0x2988 ; _printf_core + 1304
        0x0000297e:    4240        @B      RSBS     r0,r0,#0
        0x00002980:    1e40        @.      SUBS     r0,r0,#1
        0x00002982:    9000        ..      STR      r0,[sp,#0]
        0x00002984:    1c78        x.      ADDS     r0,r7,#1
        0x00002986:    9001        ..      STR      r0,[sp,#4]
        0x00002988:    1bc0        ..      SUBS     r0,r0,r7
        0x0000298a:    9002        ..      STR      r0,[sp,#8]
        0x0000298c:    e043        C.      B        0x2a16 ; _printf_core + 1446
        0x0000298e:    2f01        ./      CMP      r7,#1
        0x00002990:    da00        ..      BGE      0x2994 ; _printf_core + 1316
        0x00002992:    2701        .'      MOVS     r7,#1
        0x00002994:    2100        .!      MOVS     r1,#0
        0x00002996:    2f11        ./      CMP      r7,#0x11
        0x00002998:    dd01        ..      BLE      0x299e ; _printf_core + 1326
        0x0000299a:    2011        .       MOVS     r0,#0x11
        0x0000299c:    e000        ..      B        0x29a0 ; _printf_core + 1328
        0x0000299e:    4638        8F      MOV      r0,r7
        0x000029a0:    9101        ..      STR      r1,[sp,#4]
        0x000029a2:    9000        ..      STR      r0,[sp,#0]
        0x000029a4:    a908        ..      ADD      r1,sp,#0x20
        0x000029a6:    a811        ..      ADD      r0,sp,#0x44
        0x000029a8:    f7fffcb6    ....    BL       _fp_digits ; 0x2318
        0x000029ac:    9913        ..      LDR      r1,[sp,#0x4c]
        0x000029ae:    9105        ..      STR      r1,[sp,#0x14]
        0x000029b0:    9a11        ..      LDR      r2,[sp,#0x44]
        0x000029b2:    2100        .!      MOVS     r1,#0
        0x000029b4:    9812        ..      LDR      r0,[sp,#0x48]
        0x000029b6:    9215        ..      STR      r2,[sp,#0x54]
        0x000029b8:    9100        ..      STR      r1,[sp,#0]
        0x000029ba:    9701        ..      STR      r7,[sp,#4]
        0x000029bc:    0721        !.      LSLS     r1,r4,#28
        0x000029be:    d40c        ..      BMI      0x29da ; _printf_core + 1386
        0x000029c0:    9905        ..      LDR      r1,[sp,#0x14]
        0x000029c2:    42b9        .B      CMP      r1,r7
        0x000029c4:    db01        ..      BLT      0x29ca ; _printf_core + 1370
        0x000029c6:    9901        ..      LDR      r1,[sp,#4]
        0x000029c8:    e000        ..      B        0x29cc ; _printf_core + 1372
        0x000029ca:    9101        ..      STR      r1,[sp,#4]
        0x000029cc:    2901        .)      CMP      r1,#1
        0x000029ce:    dd04        ..      BLE      0x29da ; _printf_core + 1386
        0x000029d0:    9a15        ..      LDR      r2,[sp,#0x54]
        0x000029d2:    1e49        I.      SUBS     r1,r1,#1
        0x000029d4:    5c51        Q\      LDRB     r1,[r2,r1]
        0x000029d6:    2930        0)      CMP      r1,#0x30
        0x000029d8:    d006        ..      BEQ      0x29e8 ; _printf_core + 1400
        0x000029da:    42b8        .B      CMP      r0,r7
        0x000029dc:    da01        ..      BGE      0x29e2 ; _printf_core + 1394
        0x000029de:    1d01        ..      ADDS     r1,r0,#4
        0x000029e0:    da05        ..      BGE      0x29ee ; _printf_core + 1406
        0x000029e2:    2101        .!      MOVS     r1,#1
        0x000029e4:    9102        ..      STR      r1,[sp,#8]
        0x000029e6:    e015        ..      B        0x2a14 ; _printf_core + 1444
        0x000029e8:    9901        ..      LDR      r1,[sp,#4]
        0x000029ea:    1e49        I.      SUBS     r1,r1,#1
        0x000029ec:    e7ed        ..      B        0x29ca ; _printf_core + 1370
        0x000029ee:    2800        .(      CMP      r0,#0
        0x000029f0:    dc05        ..      BGT      0x29fe ; _printf_core + 1422
        0x000029f2:    9900        ..      LDR      r1,[sp,#0]
        0x000029f4:    1841        A.      ADDS     r1,r0,r1
        0x000029f6:    9100        ..      STR      r1,[sp,#0]
        0x000029f8:    9901        ..      LDR      r1,[sp,#4]
        0x000029fa:    1a09        ..      SUBS     r1,r1,r0
        0x000029fc:    e003        ..      B        0x2a06 ; _printf_core + 1430
        0x000029fe:    9a01        ..      LDR      r2,[sp,#4]
        0x00002a00:    1c41        A.      ADDS     r1,r0,#1
        0x00002a02:    4291        .B      CMP      r1,r2
        0x00002a04:    dd00        ..      BLE      0x2a08 ; _printf_core + 1432
        0x00002a06:    9101        ..      STR      r1,[sp,#4]
        0x00002a08:    9900        ..      LDR      r1,[sp,#0]
        0x00002a0a:    1a40        @.      SUBS     r0,r0,r1
        0x00002a0c:    1c40        @.      ADDS     r0,r0,#1
        0x00002a0e:    9002        ..      STR      r0,[sp,#8]
        0x00002a10:    2001        .       MOVS     r0,#1
        0x00002a12:    07c0        ..      LSLS     r0,r0,#31
        0x00002a14:    9003        ..      STR      r0,[sp,#0xc]
        0x00002a16:    0720         .      LSLS     r0,r4,#28
        0x00002a18:    d406        ..      BMI      0x2a28 ; _printf_core + 1464
        0x00002a1a:    9902        ..      LDR      r1,[sp,#8]
        0x00002a1c:    9801        ..      LDR      r0,[sp,#4]
        0x00002a1e:    4281        .B      CMP      r1,r0
        0x00002a20:    db02        ..      BLT      0x2a28 ; _printf_core + 1464
        0x00002a22:    2000        .       MOVS     r0,#0
        0x00002a24:    43c0        .C      MVNS     r0,r0
        0x00002a26:    9002        ..      STR      r0,[sp,#8]
        0x00002a28:    2000        .       MOVS     r0,#0
        0x00002a2a:    4669        iF      MOV      r1,sp
        0x00002a2c:    77c8        .w      STRB     r0,[r1,#0x1f]
        0x00002a2e:    af07        ..      ADD      r7,sp,#0x1c
        0x00002a30:    2101        .!      MOVS     r1,#1
        0x00002a32:    9803        ..      LDR      r0,[sp,#0xc]
        0x00002a34:    3703        .7      ADDS     r7,#3
        0x00002a36:    07c9        ..      LSLS     r1,r1,#31
        0x00002a38:    4288        .B      CMP      r0,r1
        0x00002a3a:    d024        $.      BEQ      0x2a86 ; _printf_core + 1558
        0x00002a3c:    2002        .       MOVS     r0,#2
        0x00002a3e:    9011        ..      STR      r0,[sp,#0x44]
        0x00002a40:    202b        +       MOVS     r0,#0x2b
        0x00002a42:    9012        ..      STR      r0,[sp,#0x48]
        0x00002a44:    9803        ..      LDR      r0,[sp,#0xc]
        0x00002a46:    2800        .(      CMP      r0,#0
        0x00002a48:    da0c        ..      BGE      0x2a64 ; _printf_core + 1524
        0x00002a4a:    4240        @B      RSBS     r0,r0,#0
        0x00002a4c:    9003        ..      STR      r0,[sp,#0xc]
        0x00002a4e:    202d        -       MOVS     r0,#0x2d
        0x00002a50:    9012        ..      STR      r0,[sp,#0x48]
        0x00002a52:    e007        ..      B        0x2a64 ; _printf_core + 1524
        0x00002a54:    210a        .!      MOVS     r1,#0xa
        0x00002a56:    9803        ..      LDR      r0,[sp,#0xc]
        0x00002a58:    f7fdfb68    ..h.    BL       __aeabi_uidiv ; 0x12c
        0x00002a5c:    3130        01      ADDS     r1,r1,#0x30
        0x00002a5e:    1e7f        ..      SUBS     r7,r7,#1
        0x00002a60:    9003        ..      STR      r0,[sp,#0xc]
        0x00002a62:    7039        9p      STRB     r1,[r7,#0]
        0x00002a64:    9911        ..      LDR      r1,[sp,#0x44]
        0x00002a66:    1e48        H.      SUBS     r0,r1,#1
        0x00002a68:    9011        ..      STR      r0,[sp,#0x44]
        0x00002a6a:    2900        .)      CMP      r1,#0
        0x00002a6c:    dcf2        ..      BGT      0x2a54 ; _printf_core + 1508
        0x00002a6e:    9803        ..      LDR      r0,[sp,#0xc]
        0x00002a70:    2800        .(      CMP      r0,#0
        0x00002a72:    d1ef        ..      BNE      0x2a54 ; _printf_core + 1508
        0x00002a74:    1e79        y.      SUBS     r1,r7,#1
        0x00002a76:    9812        ..      LDR      r0,[sp,#0x48]
        0x00002a78:    7008        .p      STRB     r0,[r1,#0]
        0x00002a7a:    7830        0x      LDRB     r0,[r6,#0]
        0x00002a7c:    2120         !      MOVS     r1,#0x20
        0x00002a7e:    4008        .@      ANDS     r0,r0,r1
        0x00002a80:    3045        E0      ADDS     r0,r0,#0x45
        0x00002a82:    1ebf        ..      SUBS     r7,r7,#2
        0x00002a84:    7038        8p      STRB     r0,[r7,#0]
        0x00002a86:    a806        ..      ADD      r0,sp,#0x18
        0x00002a88:    1bc0        ..      SUBS     r0,r0,r7
        0x00002a8a:    1dc0        ..      ADDS     r0,r0,#7
        0x00002a8c:    9003        ..      STR      r0,[sp,#0xc]
        0x00002a8e:    9810        ..      LDR      r0,[sp,#0x40]
        0x00002a90:    7800        .x      LDRB     r0,[r0,#0]
        0x00002a92:    2800        .(      CMP      r0,#0
        0x00002a94:    d000        ..      BEQ      0x2a98 ; _printf_core + 1576
        0x00002a96:    2001        .       MOVS     r0,#1
        0x00002a98:    9901        ..      LDR      r1,[sp,#4]
        0x00002a9a:    1841        A.      ADDS     r1,r0,r1
        0x00002a9c:    9802        ..      LDR      r0,[sp,#8]
        0x00002a9e:    17c0        ..      ASRS     r0,r0,#31
        0x00002aa0:    1809        ..      ADDS     r1,r1,r0
        0x00002aa2:    9803        ..      LDR      r0,[sp,#0xc]
        0x00002aa4:    1809        ..      ADDS     r1,r1,r0
        0x00002aa6:    9804        ..      LDR      r0,[sp,#0x10]
        0x00002aa8:    1a40        @.      SUBS     r0,r0,r1
        0x00002aaa:    1e40        @.      SUBS     r0,r0,#1
        0x00002aac:    9004        ..      STR      r0,[sp,#0x10]
        0x00002aae:    03e0        ..      LSLS     r0,r4,#15
        0x00002ab0:    d406        ..      BMI      0x2ac0 ; _printf_core + 1616
        0x00002ab2:    4621        !F      MOV      r1,r4
        0x00002ab4:    9b1a        ..      LDR      r3,[sp,#0x68]
        0x00002ab6:    9a19        ..      LDR      r2,[sp,#0x64]
        0x00002ab8:    9804        ..      LDR      r0,[sp,#0x10]
        0x00002aba:    f000f85f    .._.    BL       _printf_pre_padding ; 0x2b7c
        0x00002abe:    1945        E.      ADDS     r5,r0,r5
        0x00002ac0:    9810        ..      LDR      r0,[sp,#0x40]
        0x00002ac2:    7800        .x      LDRB     r0,[r0,#0]
        0x00002ac4:    2800        .(      CMP      r0,#0
        0x00002ac6:    d003        ..      BEQ      0x2ad0 ; _printf_core + 1632
        0x00002ac8:    9a1a        ..      LDR      r2,[sp,#0x68]
        0x00002aca:    9919        ..      LDR      r1,[sp,#0x64]
        0x00002acc:    4790        .G      BLX      r2
        0x00002ace:    1c6d        m.      ADDS     r5,r5,#1
        0x00002ad0:    03e0        ..      LSLS     r0,r4,#15
        0x00002ad2:    d524        $.      BPL      0x2b1e ; _printf_core + 1710
        0x00002ad4:    4621        !F      MOV      r1,r4
        0x00002ad6:    9b1a        ..      LDR      r3,[sp,#0x68]
        0x00002ad8:    9a19        ..      LDR      r2,[sp,#0x64]
        0x00002ada:    9804        ..      LDR      r0,[sp,#0x10]
        0x00002adc:    f000f84e    ..N.    BL       _printf_pre_padding ; 0x2b7c
        0x00002ae0:    1945        E.      ADDS     r5,r0,r5
        0x00002ae2:    e01c        ..      B        0x2b1e ; _printf_core + 1710
        0x00002ae4:    9800        ..      LDR      r0,[sp,#0]
        0x00002ae6:    2800        .(      CMP      r0,#0
        0x00002ae8:    db07        ..      BLT      0x2afa ; _printf_core + 1674
        0x00002aea:    9900        ..      LDR      r1,[sp,#0]
        0x00002aec:    9805        ..      LDR      r0,[sp,#0x14]
        0x00002aee:    4288        .B      CMP      r0,r1
        0x00002af0:    dd03        ..      BLE      0x2afa ; _printf_core + 1674
        0x00002af2:    9815        ..      LDR      r0,[sp,#0x54]
        0x00002af4:    5c40        @\      LDRB     r0,[r0,r1]
        0x00002af6:    9919        ..      LDR      r1,[sp,#0x64]
        0x00002af8:    e001        ..      B        0x2afe ; _printf_core + 1678
        0x00002afa:    9919        ..      LDR      r1,[sp,#0x64]
        0x00002afc:    2030        0       MOVS     r0,#0x30
        0x00002afe:    9a1a        ..      LDR      r2,[sp,#0x68]
        0x00002b00:    4790        .G      BLX      r2
        0x00002b02:    9800        ..      LDR      r0,[sp,#0]
        0x00002b04:    1c6d        m.      ADDS     r5,r5,#1
        0x00002b06:    1c40        @.      ADDS     r0,r0,#1
        0x00002b08:    9000        ..      STR      r0,[sp,#0]
        0x00002b0a:    9802        ..      LDR      r0,[sp,#8]
        0x00002b0c:    1e40        @.      SUBS     r0,r0,#1
        0x00002b0e:    9002        ..      STR      r0,[sp,#8]
        0x00002b10:    2800        .(      CMP      r0,#0
        0x00002b12:    d104        ..      BNE      0x2b1e ; _printf_core + 1710
        0x00002b14:    9a1a        ..      LDR      r2,[sp,#0x68]
        0x00002b16:    202e        .       MOVS     r0,#0x2e
        0x00002b18:    9919        ..      LDR      r1,[sp,#0x64]
        0x00002b1a:    4790        .G      BLX      r2
        0x00002b1c:    1c6d        m.      ADDS     r5,r5,#1
        0x00002b1e:    9901        ..      LDR      r1,[sp,#4]
        0x00002b20:    1e48        H.      SUBS     r0,r1,#1
        0x00002b22:    9001        ..      STR      r0,[sp,#4]
        0x00002b24:    2900        .)      CMP      r1,#0
        0x00002b26:    dcdd        ..      BGT      0x2ae4 ; _printf_core + 1652
        0x00002b28:    e005        ..      B        0x2b36 ; _printf_core + 1734
        0x00002b2a:    7838        8x      LDRB     r0,[r7,#0]
        0x00002b2c:    9a1a        ..      LDR      r2,[sp,#0x68]
        0x00002b2e:    1c7f        ..      ADDS     r7,r7,#1
        0x00002b30:    9919        ..      LDR      r1,[sp,#0x64]
        0x00002b32:    4790        .G      BLX      r2
        0x00002b34:    1c6d        m.      ADDS     r5,r5,#1
        0x00002b36:    9903        ..      LDR      r1,[sp,#0xc]
        0x00002b38:    1e48        H.      SUBS     r0,r1,#1
        0x00002b3a:    9003        ..      STR      r0,[sp,#0xc]
        0x00002b3c:    2900        .)      CMP      r1,#0
        0x00002b3e:    dcf4        ..      BGT      0x2b2a ; _printf_core + 1722
        0x00002b40:    4621        !F      MOV      r1,r4
        0x00002b42:    9b1a        ..      LDR      r3,[sp,#0x68]
        0x00002b44:    9a19        ..      LDR      r2,[sp,#0x64]
        0x00002b46:    9804        ..      LDR      r0,[sp,#0x10]
        0x00002b48:    e6ac        ..      B        0x28a4 ; _printf_core + 1076
    $d
        0x00002b4a:    0000        ..      DCW    0
        0x00002b4c:    0000002d    -...    DCD    45
        0x00002b50:    0000002b    +...    DCD    43
        0x00002b54:    00000020     ...    DCD    32
        0x00002b58:    00000000    ....    DCD    0
    $t
    i._printf_post_padding
    _printf_post_padding
        0x00002b5c:    b5f8        ..      PUSH     {r3-r7,lr}
        0x00002b5e:    4604        .F      MOV      r4,r0
        0x00002b60:    2500        .%      MOVS     r5,#0
        0x00002b62:    461e        .F      MOV      r6,r3
        0x00002b64:    4617        .F      MOV      r7,r2
        0x00002b66:    0488        ..      LSLS     r0,r1,#18
        0x00002b68:    d404        ..      BMI      0x2b74 ; _printf_post_padding + 24
        0x00002b6a:    e005        ..      B        0x2b78 ; _printf_post_padding + 28
        0x00002b6c:    4639        9F      MOV      r1,r7
        0x00002b6e:    2020                MOVS     r0,#0x20
        0x00002b70:    47b0        .G      BLX      r6
        0x00002b72:    1c6d        m.      ADDS     r5,r5,#1
        0x00002b74:    1e64        d.      SUBS     r4,r4,#1
        0x00002b76:    d5f9        ..      BPL      0x2b6c ; _printf_post_padding + 16
        0x00002b78:    4628        (F      MOV      r0,r5
        0x00002b7a:    bdf8        ..      POP      {r3-r7,pc}
    i._printf_pre_padding
    _printf_pre_padding
        0x00002b7c:    b5ff        ..      PUSH     {r0-r7,lr}
        0x00002b7e:    4604        .F      MOV      r4,r0
        0x00002b80:    2500        .%      MOVS     r5,#0
        0x00002b82:    b081        ..      SUB      sp,sp,#4
        0x00002b84:    461e        .F      MOV      r6,r3
        0x00002b86:    03c8        ..      LSLS     r0,r1,#15
        0x00002b88:    d501        ..      BPL      0x2b8e ; _printf_pre_padding + 18
        0x00002b8a:    2730        0'      MOVS     r7,#0x30
        0x00002b8c:    e000        ..      B        0x2b90 ; _printf_pre_padding + 20
        0x00002b8e:    2720         '      MOVS     r7,#0x20
        0x00002b90:    0488        ..      LSLS     r0,r1,#18
        0x00002b92:    d504        ..      BPL      0x2b9e ; _printf_pre_padding + 34
        0x00002b94:    e005        ..      B        0x2ba2 ; _printf_pre_padding + 38
        0x00002b96:    4638        8F      MOV      r0,r7
        0x00002b98:    9903        ..      LDR      r1,[sp,#0xc]
        0x00002b9a:    47b0        .G      BLX      r6
        0x00002b9c:    1c6d        m.      ADDS     r5,r5,#1
        0x00002b9e:    1e64        d.      SUBS     r4,r4,#1
        0x00002ba0:    d5f9        ..      BPL      0x2b96 ; _printf_pre_padding + 26
        0x00002ba2:    4628        (F      MOV      r0,r5
        0x00002ba4:    b005        ..      ADD      sp,sp,#0x14
        0x00002ba6:    bdf0        ..      POP      {r4-r7,pc}
    i.add
    add
        0x00002ba8:    b40f        ..      PUSH     {r0-r3}
        0x00002baa:    b51c        ..      PUSH     {r2-r4,lr}
        0x00002bac:    4604        .F      MOV      r4,r0
        0x00002bae:    9907        ..      LDR      r1,[sp,#0x1c]
        0x00002bb0:    9805        ..      LDR      r0,[sp,#0x14]
        0x00002bb2:    f7fdfb09    ....    BL       __aeabi_fadd ; 0x1c8
        0x00002bb6:    9000        ..      STR      r0,[sp,#0]
        0x00002bb8:    9908        ..      LDR      r1,[sp,#0x20]
        0x00002bba:    9806        ..      LDR      r0,[sp,#0x18]
        0x00002bbc:    f7fdfb04    ....    BL       __aeabi_fadd ; 0x1c8
        0x00002bc0:    9001        ..      STR      r0,[sp,#4]
        0x00002bc2:    9901        ..      LDR      r1,[sp,#4]
        0x00002bc4:    9800        ..      LDR      r0,[sp,#0]
        0x00002bc6:    6061        a`      STR      r1,[r4,#4]
        0x00002bc8:    6020         `      STR      r0,[r4,#0]
        0x00002bca:    bc1c        ..      POP      {r2-r4}
        0x00002bcc:    bc08        ..      POP      {r3}
        0x00002bce:    b004        ..      ADD      sp,sp,#0x10
        0x00002bd0:    4718        .G      BX       r3
        0x00002bd2:    0000        ..      MOVS     r0,r0
    i.add_hamm
    add_hamm
        0x00002bd4:    b5fe        ..      PUSH     {r1-r7,lr}
        0x00002bd6:    4605        .F      MOV      r5,r0
        0x00002bd8:    2401        .$      MOVS     r4,#1
        0x00002bda:    e024        $.      B        0x2c26 ; add_hamm + 82
        0x00002bdc:    1e62        b.      SUBS     r2,r4,#1
        0x00002bde:    0092        ..      LSLS     r2,r2,#2
        0x00002be0:    58a9        .X      LDR      r1,[r5,r2]
        0x00002be2:    00a2        ..      LSLS     r2,r4,#2
        0x00002be4:    58a8        .X      LDR      r0,[r5,r2]
        0x00002be6:    f7fdfb40    ..@.    BL       __aeabi_fsub ; 0x26a
        0x00002bea:    4910        .I      LDR      r1,[pc,#64] ; [0x2c2c] = 0x42be0000
        0x00002bec:    9001        ..      STR      r0,[sp,#4]
        0x00002bee:    f7fdfb44    ..D.    BL       __aeabi_fmul ; 0x27a
        0x00002bf2:    4607        .F      MOV      r7,r0
        0x00002bf4:    490e        .I      LDR      r1,[pc,#56] ; [0x2c30] = 0x42c80000
        0x00002bf6:    f7fdfb7d    ..}.    BL       __aeabi_fdiv ; 0x2f4
        0x00002bfa:    4606        .F      MOV      r6,r0
        0x00002bfc:    00a0        ..      LSLS     r0,r4,#2
        0x00002bfe:    4a0d        .J      LDR      r2,[pc,#52] ; [0x2c34] = 0x4764
        0x00002c00:    5811        .X      LDR      r1,[r2,r0]
        0x00002c02:    4630        0F      MOV      r0,r6
        0x00002c04:    f7fdfb39    ..9.    BL       __aeabi_fmul ; 0x27a
        0x00002c08:    4909        .I      LDR      r1,[pc,#36] ; [0x2c30] = 0x42c80000
        0x00002c0a:    9000        ..      STR      r0,[sp,#0]
        0x00002c0c:    f7fdfb35    ..5.    BL       __aeabi_fmul ; 0x27a
        0x00002c10:    9001        ..      STR      r0,[sp,#4]
        0x00002c12:    f7fdfce7    ....    BL       __aeabi_f2iz ; 0x5e4
        0x00002c16:    b207        ..      SXTH     r7,r0
        0x00002c18:    4638        8F      MOV      r0,r7
        0x00002c1a:    f7fdfcc3    ....    BL       __aeabi_i2f ; 0x5a4
        0x00002c1e:    00a1        ..      LSLS     r1,r4,#2
        0x00002c20:    5068        hP      STR      r0,[r5,r1]
        0x00002c22:    1c60        `.      ADDS     r0,r4,#1
        0x00002c24:    b204        ..      SXTH     r4,r0
        0x00002c26:    2c78        x,      CMP      r4,#0x78
        0x00002c28:    dbd8        ..      BLT      0x2bdc ; add_hamm + 8
        0x00002c2a:    bdfe        ..      POP      {r1-r7,pc}
    $d
        0x00002c2c:    42be0000    ...B    DCD    1119748096
        0x00002c30:    42c80000    ...B    DCD    1120403456
        0x00002c34:    00004764    dG..    DCD    18276
    $t
    i.add_trig
    add_trig
        0x00002c38:    b5f7        ..      PUSH     {r0-r2,r4-r7,lr}
        0x00002c3a:    460d        .F      MOV      r5,r1
        0x00002c3c:    4616        .F      MOV      r6,r2
        0x00002c3e:    2400        .$      MOVS     r4,#0
        0x00002c40:    e031        1.      B        0x2ca6 ; add_trig + 110
        0x00002c42:    2c00        .,      CMP      r4,#0
        0x00002c44:    d10c        ..      BNE      0x2c60 ; add_trig + 40
        0x00002c46:    0060        `.      LSLS     r0,r4,#1
        0x00002c48:    1940        @.      ADDS     r0,r0,r5
        0x00002c4a:    2302        .#      MOVS     r3,#2
        0x00002c4c:    5ec3        .^      LDRSH    r3,[r0,r3]
        0x00002c4e:    0060        `.      LSLS     r0,r4,#1
        0x00002c50:    5e2a        *^      LDRSH    r2,[r5,r0]
        0x00002c52:    2100        .!      MOVS     r1,#0
        0x00002c54:    9800        ..      LDR      r0,[sp,#0]
        0x00002c56:    f000f9e1    ....    BL       get_cent ; 0x301c
        0x00002c5a:    00a1        ..      LSLS     r1,r4,#2
        0x00002c5c:    5070        pP      STR      r0,[r6,r1]
        0x00002c5e:    e020         .      B        0x2ca2 ; add_trig + 106
        0x00002c60:    2c17        .,      CMP      r4,#0x17
        0x00002c62:    d10e        ..      BNE      0x2c82 ; add_trig + 74
        0x00002c64:    0060        `.      LSLS     r0,r4,#1
        0x00002c66:    5e2a        *^      LDRSH    r2,[r5,r0]
        0x00002c68:    0060        `.      LSLS     r0,r4,#1
        0x00002c6a:    1940        @.      ADDS     r0,r0,r5
        0x00002c6c:    3840        @8      SUBS     r0,r0,#0x40
        0x00002c6e:    213e        >!      MOVS     r1,#0x3e
        0x00002c70:    5e41        A^      LDRSH    r1,[r0,r1]
        0x00002c72:    2301        .#      MOVS     r3,#1
        0x00002c74:    025b        [.      LSLS     r3,r3,#9
        0x00002c76:    9800        ..      LDR      r0,[sp,#0]
        0x00002c78:    f000f9d0    ....    BL       get_cent ; 0x301c
        0x00002c7c:    00a1        ..      LSLS     r1,r4,#2
        0x00002c7e:    5070        pP      STR      r0,[r6,r1]
        0x00002c80:    e00f        ..      B        0x2ca2 ; add_trig + 106
        0x00002c82:    0060        `.      LSLS     r0,r4,#1
        0x00002c84:    1940        @.      ADDS     r0,r0,r5
        0x00002c86:    2302        .#      MOVS     r3,#2
        0x00002c88:    5ec3        .^      LDRSH    r3,[r0,r3]
        0x00002c8a:    0060        `.      LSLS     r0,r4,#1
        0x00002c8c:    5e2a        *^      LDRSH    r2,[r5,r0]
        0x00002c8e:    0060        `.      LSLS     r0,r4,#1
        0x00002c90:    1940        @.      ADDS     r0,r0,r5
        0x00002c92:    3840        @8      SUBS     r0,r0,#0x40
        0x00002c94:    213e        >!      MOVS     r1,#0x3e
        0x00002c96:    5e41        A^      LDRSH    r1,[r0,r1]
        0x00002c98:    9800        ..      LDR      r0,[sp,#0]
        0x00002c9a:    f000f9bf    ....    BL       get_cent ; 0x301c
        0x00002c9e:    00a1        ..      LSLS     r1,r4,#2
        0x00002ca0:    5070        pP      STR      r0,[r6,r1]
        0x00002ca2:    1c60        `.      ADDS     r0,r4,#1
        0x00002ca4:    b284        ..      UXTH     r4,r0
        0x00002ca6:    2c18        .,      CMP      r4,#0x18
        0x00002ca8:    dbcb        ..      BLT      0x2c42 ; add_trig + 10
        0x00002caa:    bdfe        ..      POP      {r1-r7,pc}
    i.cal_sumabs
    cal_sumabs
        0x00002cac:    b5f8        ..      PUSH     {r3-r7,lr}
        0x00002cae:    4605        .F      MOV      r5,r0
        0x00002cb0:    2000        .       MOVS     r0,#0
        0x00002cb2:    9000        ..      STR      r0,[sp,#0]
        0x00002cb4:    462e        .F      MOV      r6,r5
        0x00002cb6:    3eff        .>      SUBS     r6,r6,#0xff
        0x00002cb8:    3ee1        .>      SUBS     r6,r6,#0xe1
        0x00002cba:    e019        ..      B        0x2cf0 ; cal_sumabs + 68
        0x00002cbc:    4630        0F      MOV      r0,r6
        0x00002cbe:    f7fef9bf    ....    BL       Flash_Read ; 0x1040
        0x00002cc2:    4604        .F      MOV      r4,r0
        0x00002cc4:    490c        .I      LDR      r1,[pc,#48] ; [0x2cf8] = 0x200003d0
        0x00002cc6:    2000        .       MOVS     r0,#0
        0x00002cc8:    5e08        .^      LDRSH    r0,[r1,r0]
        0x00002cca:    42a0        .B      CMP      r0,r4
        0x00002ccc:    da03        ..      BGE      0x2cd6 ; cal_sumabs + 42
        0x00002cce:    2000        .       MOVS     r0,#0
        0x00002cd0:    5e08        .^      LDRSH    r0,[r1,r0]
        0x00002cd2:    1a27        '.      SUBS     r7,r4,r0
        0x00002cd4:    e003        ..      B        0x2cde ; cal_sumabs + 50
        0x00002cd6:    4908        .I      LDR      r1,[pc,#32] ; [0x2cf8] = 0x200003d0
        0x00002cd8:    2000        .       MOVS     r0,#0
        0x00002cda:    5e08        .^      LDRSH    r0,[r1,r0]
        0x00002cdc:    1b07        ..      SUBS     r7,r0,r4
        0x00002cde:    2f00        ./      CMP      r7,#0
        0x00002ce0:    da02        ..      BGE      0x2ce8 ; cal_sumabs + 60
        0x00002ce2:    a006        ..      ADR      r0,{pc}+0x1a ; 0x2cfc
        0x00002ce4:    f7fffa3e    ..>.    BL       __0printf ; 0x2164
        0x00002ce8:    9800        ..      LDR      r0,[sp,#0]
        0x00002cea:    19c0        ..      ADDS     r0,r0,r7
        0x00002cec:    9000        ..      STR      r0,[sp,#0]
        0x00002cee:    1d36        6.      ADDS     r6,r6,#4
        0x00002cf0:    42ae        .B      CMP      r6,r5
        0x00002cf2:    d3e3        ..      BCC      0x2cbc ; cal_sumabs + 16
        0x00002cf4:    9800        ..      LDR      r0,[sp,#0]
        0x00002cf6:    bdf8        ..      POP      {r3-r7,pc}
    $d
        0x00002cf8:    200003d0    ...     DCD    536871888
        0x00002cfc:    6f727245    Erro    DCD    1869771333
        0x00002d00:    63203a72    r: c    DCD    1663056498
        0x00002d04:    735f6c61    al_s    DCD    1935633505
        0x00002d08:    62616d75    umab    DCD    1650552181
        0x00002d0c:    00000a73    s...    DCD    2675
    $t
    i.cal_zeros
    cal_zeros
        0x00002d10:    b5f1        ..      PUSH     {r0,r4-r7,lr}
        0x00002d12:    2600        .&      MOVS     r6,#0
        0x00002d14:    9800        ..      LDR      r0,[sp,#0]
        0x00002d16:    4604        .F      MOV      r4,r0
        0x00002d18:    3cff        .<      SUBS     r4,r4,#0xff
        0x00002d1a:    3ce1        .<      SUBS     r4,r4,#0xe1
        0x00002d1c:    e02e        ..      B        0x2d7c ; cal_zeros + 108
        0x00002d1e:    4620         F      MOV      r0,r4
        0x00002d20:    f7fef98e    ....    BL       Flash_Read ; 0x1040
        0x00002d24:    4607        .F      MOV      r7,r0
        0x00002d26:    1d20         .      ADDS     r0,r4,#4
        0x00002d28:    f7fef98a    ....    BL       Flash_Read ; 0x1040
        0x00002d2c:    4605        .F      MOV      r5,r0
        0x00002d2e:    4916        .I      LDR      r1,[pc,#88] ; [0x2d88] = 0x200003d0
        0x00002d30:    2002        .       MOVS     r0,#2
        0x00002d32:    5e08        .^      LDRSH    r0,[r1,r0]
        0x00002d34:    2200        ."      MOVS     r2,#0
        0x00002d36:    5e8a        .^      LDRSH    r2,[r1,r2]
        0x00002d38:    1880        ..      ADDS     r0,r0,r2
        0x00002d3a:    1a38        8.      SUBS     r0,r7,r0
        0x00002d3c:    2800        .(      CMP      r0,#0
        0x00002d3e:    dd09        ..      BLE      0x2d54 ; cal_zeros + 68
        0x00002d40:    2002        .       MOVS     r0,#2
        0x00002d42:    5e08        .^      LDRSH    r0,[r1,r0]
        0x00002d44:    2200        ."      MOVS     r2,#0
        0x00002d46:    5e8a        .^      LDRSH    r2,[r1,r2]
        0x00002d48:    1a80        ..      SUBS     r0,r0,r2
        0x00002d4a:    1940        @.      ADDS     r0,r0,r5
        0x00002d4c:    2800        .(      CMP      r0,#0
        0x00002d4e:    da01        ..      BGE      0x2d54 ; cal_zeros + 68
        0x00002d50:    1c70        p.      ADDS     r0,r6,#1
        0x00002d52:    b206        ..      SXTH     r6,r0
        0x00002d54:    490c        .I      LDR      r1,[pc,#48] ; [0x2d88] = 0x200003d0
        0x00002d56:    2002        .       MOVS     r0,#2
        0x00002d58:    5e08        .^      LDRSH    r0,[r1,r0]
        0x00002d5a:    2200        ."      MOVS     r2,#0
        0x00002d5c:    5e8a        .^      LDRSH    r2,[r1,r2]
        0x00002d5e:    1a80        ..      SUBS     r0,r0,r2
        0x00002d60:    19c0        ..      ADDS     r0,r0,r7
        0x00002d62:    2800        .(      CMP      r0,#0
        0x00002d64:    da09        ..      BGE      0x2d7a ; cal_zeros + 106
        0x00002d66:    2002        .       MOVS     r0,#2
        0x00002d68:    5e08        .^      LDRSH    r0,[r1,r0]
        0x00002d6a:    2200        ."      MOVS     r2,#0
        0x00002d6c:    5e8a        .^      LDRSH    r2,[r1,r2]
        0x00002d6e:    1880        ..      ADDS     r0,r0,r2
        0x00002d70:    1a28        (.      SUBS     r0,r5,r0
        0x00002d72:    2800        .(      CMP      r0,#0
        0x00002d74:    dd01        ..      BLE      0x2d7a ; cal_zeros + 106
        0x00002d76:    1c70        p.      ADDS     r0,r6,#1
        0x00002d78:    b206        ..      SXTH     r6,r0
        0x00002d7a:    1d24        $.      ADDS     r4,r4,#4
        0x00002d7c:    9800        ..      LDR      r0,[sp,#0]
        0x00002d7e:    4284        .B      CMP      r4,r0
        0x00002d80:    d3cd        ..      BCC      0x2d1e ; cal_zeros + 14
        0x00002d82:    b2b0        ..      UXTH     r0,r6
        0x00002d84:    bdf8        ..      POP      {r3-r7,pc}
    $d
        0x00002d86:    0000        ..      DCW    0
        0x00002d88:    200003d0    ...     DCD    536871888
    $t
    i.calc_fft
    calc_fft
        0x00002d8c:    b5f7        ..      PUSH     {r0-r2,r4-r7,lr}
        0x00002d8e:    b090        ..      SUB      sp,sp,#0x40
        0x00002d90:    4606        .F      MOV      r6,r0
        0x00002d92:    2000        .       MOVS     r0,#0
        0x00002d94:    900d        ..      STR      r0,[sp,#0x34]
        0x00002d96:    4630        0F      MOV      r0,r6
        0x00002d98:    9911        ..      LDR      r1,[sp,#0x44]
        0x00002d9a:    f7feffe5    ....    BL       Reverse ; 0x1d68
        0x00002d9e:    2000        .       MOVS     r0,#0
        0x00002da0:    900f        ..      STR      r0,[sp,#0x3c]
        0x00002da2:    e0ad        ..      B        0x2f00 ; calc_fft + 372
        0x00002da4:    2001        .       MOVS     r0,#1
        0x00002da6:    990f        ..      LDR      r1,[sp,#0x3c]
        0x00002da8:    4088        .@      LSLS     r0,r0,r1
        0x00002daa:    900e        ..      STR      r0,[sp,#0x38]
        0x00002dac:    2500        .%      MOVS     r5,#0
        0x00002dae:    e09b        ..      B        0x2ee8 ; calc_fft + 348
        0x00002db0:    2400        .$      MOVS     r4,#0
        0x00002db2:    e092        ..      B        0x2eda ; calc_fft + 334
        0x00002db4:    0061        a.      LSLS     r1,r4,#1
        0x00002db6:    980d        ..      LDR      r0,[sp,#0x34]
        0x00002db8:    1808        ..      ADDS     r0,r1,r0
        0x00002dba:    0080        ..      LSLS     r0,r0,#2
        0x00002dbc:    4953        SI      LDR      r1,[pc,#332] ; [0x2f0c] = 0x5174
        0x00002dbe:    5808        .X      LDR      r0,[r1,r0]
        0x00002dc0:    900b        ..      STR      r0,[sp,#0x2c]
        0x00002dc2:    0061        a.      LSLS     r1,r4,#1
        0x00002dc4:    980d        ..      LDR      r0,[sp,#0x34]
        0x00002dc6:    1808        ..      ADDS     r0,r1,r0
        0x00002dc8:    1c40        @.      ADDS     r0,r0,#1
        0x00002dca:    0080        ..      LSLS     r0,r0,#2
        0x00002dcc:    494f        OI      LDR      r1,[pc,#316] ; [0x2f0c] = 0x5174
        0x00002dce:    5808        .X      LDR      r0,[r1,r0]
        0x00002dd0:    900c        ..      STR      r0,[sp,#0x30]
        0x00002dd2:    980c        ..      LDR      r0,[sp,#0x30]
        0x00002dd4:    9000        ..      STR      r0,[sp,#0]
        0x00002dd6:    00e8        ..      LSLS     r0,r5,#3
        0x00002dd8:    1980        ..      ADDS     r0,r0,r6
        0x00002dda:    00e1        ..      LSLS     r1,r4,#3
        0x00002ddc:    1841        A.      ADDS     r1,r0,r1
        0x00002dde:    980e        ..      LDR      r0,[sp,#0x38]
        0x00002de0:    00c0        ..      LSLS     r0,r0,#3
        0x00002de2:    1808        ..      ADDS     r0,r1,r0
        0x00002de4:    9002        ..      STR      r0,[sp,#8]
        0x00002de6:    7907        .y      LDRB     r7,[r0,#4]
        0x00002de8:    463a        :F      MOV      r2,r7
        0x00002dea:    7947        Gy      LDRB     r7,[r0,#5]
        0x00002dec:    023f        ?.      LSLS     r7,r7,#8
        0x00002dee:    433a        :C      ORRS     r2,r2,r7
        0x00002df0:    7987        .y      LDRB     r7,[r0,#6]
        0x00002df2:    043f        ?.      LSLS     r7,r7,#16
        0x00002df4:    433a        :C      ORRS     r2,r2,r7
        0x00002df6:    79c1        .y      LDRB     r1,[r0,#7]
        0x00002df8:    0609        ..      LSLS     r1,r1,#24
        0x00002dfa:    430a        .C      ORRS     r2,r2,r1
        0x00002dfc:    7807        .x      LDRB     r7,[r0,#0]
        0x00002dfe:    4639        9F      MOV      r1,r7
        0x00002e00:    7847        Gx      LDRB     r7,[r0,#1]
        0x00002e02:    023f        ?.      LSLS     r7,r7,#8
        0x00002e04:    4339        9C      ORRS     r1,r1,r7
        0x00002e06:    7887        .x      LDRB     r7,[r0,#2]
        0x00002e08:    043f        ?.      LSLS     r7,r7,#16
        0x00002e0a:    4339        9C      ORRS     r1,r1,r7
        0x00002e0c:    78c0        .x      LDRB     r0,[r0,#3]
        0x00002e0e:    0600        ..      LSLS     r0,r0,#24
        0x00002e10:    4301        .C      ORRS     r1,r1,r0
        0x00002e12:    a803        ..      ADD      r0,sp,#0xc
        0x00002e14:    9b0b        ..      LDR      r3,[sp,#0x2c]
        0x00002e16:    f000fe23    ..#.    BL       mul ; 0x3a60
        0x00002e1a:    9904        ..      LDR      r1,[sp,#0x10]
        0x00002e1c:    9803        ..      LDR      r0,[sp,#0xc]
        0x00002e1e:    910a        ..      STR      r1,[sp,#0x28]
        0x00002e20:    9009        ..      STR      r0,[sp,#0x24]
        0x00002e22:    980a        ..      LDR      r0,[sp,#0x28]
        0x00002e24:    9000        ..      STR      r0,[sp,#0]
        0x00002e26:    00e8        ..      LSLS     r0,r5,#3
        0x00002e28:    1980        ..      ADDS     r0,r0,r6
        0x00002e2a:    00e1        ..      LSLS     r1,r4,#3
        0x00002e2c:    1840        @.      ADDS     r0,r0,r1
        0x00002e2e:    9002        ..      STR      r0,[sp,#8]
        0x00002e30:    7907        .y      LDRB     r7,[r0,#4]
        0x00002e32:    463a        :F      MOV      r2,r7
        0x00002e34:    7947        Gy      LDRB     r7,[r0,#5]
        0x00002e36:    023f        ?.      LSLS     r7,r7,#8
        0x00002e38:    433a        :C      ORRS     r2,r2,r7
        0x00002e3a:    7987        .y      LDRB     r7,[r0,#6]
        0x00002e3c:    043f        ?.      LSLS     r7,r7,#16
        0x00002e3e:    433a        :C      ORRS     r2,r2,r7
        0x00002e40:    79c1        .y      LDRB     r1,[r0,#7]
        0x00002e42:    0609        ..      LSLS     r1,r1,#24
        0x00002e44:    430a        .C      ORRS     r2,r2,r1
        0x00002e46:    7807        .x      LDRB     r7,[r0,#0]
        0x00002e48:    4639        9F      MOV      r1,r7
        0x00002e4a:    7847        Gx      LDRB     r7,[r0,#1]
        0x00002e4c:    023f        ?.      LSLS     r7,r7,#8
        0x00002e4e:    4339        9C      ORRS     r1,r1,r7
        0x00002e50:    7887        .x      LDRB     r7,[r0,#2]
        0x00002e52:    043f        ?.      LSLS     r7,r7,#16
        0x00002e54:    4339        9C      ORRS     r1,r1,r7
        0x00002e56:    78c0        .x      LDRB     r0,[r0,#3]
        0x00002e58:    0600        ..      LSLS     r0,r0,#24
        0x00002e5a:    4301        .C      ORRS     r1,r1,r0
        0x00002e5c:    a803        ..      ADD      r0,sp,#0xc
        0x00002e5e:    9b09        ..      LDR      r3,[sp,#0x24]
        0x00002e60:    f7fffea2    ....    BL       add ; 0x2ba8
        0x00002e64:    9904        ..      LDR      r1,[sp,#0x10]
        0x00002e66:    9803        ..      LDR      r0,[sp,#0xc]
        0x00002e68:    9108        ..      STR      r1,[sp,#0x20]
        0x00002e6a:    9007        ..      STR      r0,[sp,#0x1c]
        0x00002e6c:    980a        ..      LDR      r0,[sp,#0x28]
        0x00002e6e:    9000        ..      STR      r0,[sp,#0]
        0x00002e70:    00e8        ..      LSLS     r0,r5,#3
        0x00002e72:    1980        ..      ADDS     r0,r0,r6
        0x00002e74:    00e1        ..      LSLS     r1,r4,#3
        0x00002e76:    1840        @.      ADDS     r0,r0,r1
        0x00002e78:    9002        ..      STR      r0,[sp,#8]
        0x00002e7a:    7907        .y      LDRB     r7,[r0,#4]
        0x00002e7c:    463a        :F      MOV      r2,r7
        0x00002e7e:    7947        Gy      LDRB     r7,[r0,#5]
        0x00002e80:    023f        ?.      LSLS     r7,r7,#8
        0x00002e82:    433a        :C      ORRS     r2,r2,r7
        0x00002e84:    7987        .y      LDRB     r7,[r0,#6]
        0x00002e86:    043f        ?.      LSLS     r7,r7,#16
        0x00002e88:    433a        :C      ORRS     r2,r2,r7
        0x00002e8a:    79c1        .y      LDRB     r1,[r0,#7]
        0x00002e8c:    0609        ..      LSLS     r1,r1,#24
        0x00002e8e:    430a        .C      ORRS     r2,r2,r1
        0x00002e90:    7807        .x      LDRB     r7,[r0,#0]
        0x00002e92:    4639        9F      MOV      r1,r7
        0x00002e94:    7847        Gx      LDRB     r7,[r0,#1]
        0x00002e96:    023f        ?.      LSLS     r7,r7,#8
        0x00002e98:    4339        9C      ORRS     r1,r1,r7
        0x00002e9a:    7887        .x      LDRB     r7,[r0,#2]
        0x00002e9c:    043f        ?.      LSLS     r7,r7,#16
        0x00002e9e:    4339        9C      ORRS     r1,r1,r7
        0x00002ea0:    78c0        .x      LDRB     r0,[r0,#3]
        0x00002ea2:    0600        ..      LSLS     r0,r0,#24
        0x00002ea4:    4301        .C      ORRS     r1,r1,r0
        0x00002ea6:    a803        ..      ADD      r0,sp,#0xc
        0x00002ea8:    9b09        ..      LDR      r3,[sp,#0x24]
        0x00002eaa:    f001fb9d    ....    BL       sub ; 0x45e8
        0x00002eae:    9904        ..      LDR      r1,[sp,#0x10]
        0x00002eb0:    9803        ..      LDR      r0,[sp,#0xc]
        0x00002eb2:    9106        ..      STR      r1,[sp,#0x18]
        0x00002eb4:    9005        ..      STR      r0,[sp,#0x14]
        0x00002eb6:    00e8        ..      LSLS     r0,r5,#3
        0x00002eb8:    1980        ..      ADDS     r0,r0,r6
        0x00002eba:    00e1        ..      LSLS     r1,r4,#3
        0x00002ebc:    1840        @.      ADDS     r0,r0,r1
        0x00002ebe:    9a08        ..      LDR      r2,[sp,#0x20]
        0x00002ec0:    9907        ..      LDR      r1,[sp,#0x1c]
        0x00002ec2:    c006        ..      STM      r0!,{r1,r2}
        0x00002ec4:    00e8        ..      LSLS     r0,r5,#3
        0x00002ec6:    1980        ..      ADDS     r0,r0,r6
        0x00002ec8:    00e1        ..      LSLS     r1,r4,#3
        0x00002eca:    1841        A.      ADDS     r1,r0,r1
        0x00002ecc:    980e        ..      LDR      r0,[sp,#0x38]
        0x00002ece:    00c0        ..      LSLS     r0,r0,#3
        0x00002ed0:    1808        ..      ADDS     r0,r1,r0
        0x00002ed2:    9a06        ..      LDR      r2,[sp,#0x18]
        0x00002ed4:    9905        ..      LDR      r1,[sp,#0x14]
        0x00002ed6:    c006        ..      STM      r0!,{r1,r2}
        0x00002ed8:    1c64        d.      ADDS     r4,r4,#1
        0x00002eda:    980e        ..      LDR      r0,[sp,#0x38]
        0x00002edc:    4284        .B      CMP      r4,r0
        0x00002ede:    da00        ..      BGE      0x2ee2 ; calc_fft + 342
        0x00002ee0:    e768        h.      B        0x2db4 ; calc_fft + 40
        0x00002ee2:    980e        ..      LDR      r0,[sp,#0x38]
        0x00002ee4:    0040        @.      LSLS     r0,r0,#1
        0x00002ee6:    1945        E.      ADDS     r5,r0,r5
        0x00002ee8:    9812        ..      LDR      r0,[sp,#0x48]
        0x00002eea:    4285        .B      CMP      r5,r0
        0x00002eec:    da00        ..      BGE      0x2ef0 ; calc_fft + 356
        0x00002eee:    e75f        _.      B        0x2db0 ; calc_fft + 36
        0x00002ef0:    980e        ..      LDR      r0,[sp,#0x38]
        0x00002ef2:    0041        A.      LSLS     r1,r0,#1
        0x00002ef4:    980d        ..      LDR      r0,[sp,#0x34]
        0x00002ef6:    1808        ..      ADDS     r0,r1,r0
        0x00002ef8:    900d        ..      STR      r0,[sp,#0x34]
        0x00002efa:    980f        ..      LDR      r0,[sp,#0x3c]
        0x00002efc:    1c40        @.      ADDS     r0,r0,#1
        0x00002efe:    900f        ..      STR      r0,[sp,#0x3c]
        0x00002f00:    980f        ..      LDR      r0,[sp,#0x3c]
        0x00002f02:    280a        .(      CMP      r0,#0xa
        0x00002f04:    da00        ..      BGE      0x2f08 ; calc_fft + 380
        0x00002f06:    e74d        M.      B        0x2da4 ; calc_fft + 24
        0x00002f08:    b013        ..      ADD      sp,sp,#0x4c
        0x00002f0a:    bdf0        ..      POP      {r4-r7,pc}
    $d
        0x00002f0c:    00005174    tQ..    DCD    20852
    $t
    i.dtw
    dtw
        0x00002f10:    b5f0        ..      PUSH     {r4-r7,lr}
        0x00002f12:    b08d        ..      SUB      sp,sp,#0x34
        0x00002f14:    4607        .F      MOV      r7,r0
        0x00002f16:    2118        .!      MOVS     r1,#0x18
        0x00002f18:    a802        ..      ADD      r0,sp,#8
        0x00002f1a:    f7fdf94a    ..J.    BL       __aeabi_memclr ; 0x1b2
        0x00002f1e:    2089        .       MOVS     r0,#0x89
        0x00002f20:    0280        ..      LSLS     r0,r0,#10
        0x00002f22:    900b        ..      STR      r0,[sp,#0x2c]
        0x00002f24:    2400        .$      MOVS     r4,#0
        0x00002f26:    e024        $.      B        0x2f72 ; dtw + 98
        0x00002f28:    0320         .      LSLS     r0,r4,#12
        0x00002f2a:    2171        q!      MOVS     r1,#0x71
        0x00002f2c:    0289        ..      LSLS     r1,r1,#10
        0x00002f2e:    1845        E.      ADDS     r5,r0,r1
        0x00002f30:    4628        (F      MOV      r0,r5
        0x00002f32:    f7fef885    ....    BL       Flash_Read ; 0x1040
        0x00002f36:    900a        ..      STR      r0,[sp,#0x28]
        0x00002f38:    1d28        (.      ADDS     r0,r5,#4
        0x00002f3a:    f7fef881    ....    BL       Flash_Read ; 0x1040
        0x00002f3e:    9009        ..      STR      r0,[sp,#0x24]
        0x00002f40:    980a        ..      LDR      r0,[sp,#0x28]
        0x00002f42:    2800        .(      CMP      r0,#0
        0x00002f44:    db0f        ..      BLT      0x2f66 ; dtw + 86
        0x00002f46:    9809        ..      LDR      r0,[sp,#0x24]
        0x00002f48:    f7fdfb37    ..7.    BL       __aeabi_ui2f ; 0x5ba
        0x00002f4c:    4629        )F      MOV      r1,r5
        0x00002f4e:    9001        ..      STR      r0,[sp,#4]
        0x00002f50:    980b        ..      LDR      r0,[sp,#0x2c]
        0x00002f52:    f000f8cf    ....    BL       get_dtwdis ; 0x30f4
        0x00002f56:    9000        ..      STR      r0,[sp,#0]
        0x00002f58:    9901        ..      LDR      r1,[sp,#4]
        0x00002f5a:    f7fdf9cb    ....    BL       __aeabi_fdiv ; 0x2f4
        0x00002f5e:    00a1        ..      LSLS     r1,r4,#2
        0x00002f60:    aa02        ..      ADD      r2,sp,#8
        0x00002f62:    5050        PP      STR      r0,[r2,r1]
        0x00002f64:    e003        ..      B        0x2f6e ; dtw + 94
        0x00002f66:    4821        !H      LDR      r0,[pc,#132] ; [0x2fec] = 0x4cbebc20
        0x00002f68:    00a1        ..      LSLS     r1,r4,#2
        0x00002f6a:    aa02        ..      ADD      r2,sp,#8
        0x00002f6c:    5050        PP      STR      r0,[r2,r1]
        0x00002f6e:    1c60        `.      ADDS     r0,r4,#1
        0x00002f70:    b284        ..      UXTH     r4,r0
        0x00002f72:    2c06        .,      CMP      r4,#6
        0x00002f74:    dbd8        ..      BLT      0x2f28 ; dtw + 24
        0x00002f76:    4e1d        .N      LDR      r6,[pc,#116] ; [0x2fec] = 0x4cbebc20
        0x00002f78:    2000        .       MOVS     r0,#0
        0x00002f7a:    43c0        .C      MVNS     r0,r0
        0x00002f7c:    9008        ..      STR      r0,[sp,#0x20]
        0x00002f7e:    2400        .$      MOVS     r4,#0
        0x00002f80:    e02d        -.      B        0x2fde ; dtw + 206
        0x00002f82:    00a1        ..      LSLS     r1,r4,#2
        0x00002f84:    aa02        ..      ADD      r2,sp,#8
        0x00002f86:    5850        PX      LDR      r0,[r2,r1]
        0x00002f88:    4918        .I      LDR      r1,[pc,#96] ; [0x2fec] = 0x4cbebc20
        0x00002f8a:    f7fdfba7    ....    BL       __aeabi_cfcmpeq ; 0x6dc
        0x00002f8e:    d100        ..      BNE      0x2f92 ; dtw + 130
        0x00002f90:    e023        #.      B        0x2fda ; dtw + 202
        0x00002f92:    4916        .I      LDR      r1,[pc,#88] ; [0x2fec] = 0x4cbebc20
        0x00002f94:    4630        0F      MOV      r0,r6
        0x00002f96:    f7fdfba1    ....    BL       __aeabi_cfcmpeq ; 0x6dc
        0x00002f9a:    d104        ..      BNE      0x2fa6 ; dtw + 150
        0x00002f9c:    00a0        ..      LSLS     r0,r4,#2
        0x00002f9e:    a902        ..      ADD      r1,sp,#8
        0x00002fa0:    580e        .X      LDR      r6,[r1,r0]
        0x00002fa2:    b220         .      SXTH     r0,r4
        0x00002fa4:    9008        ..      STR      r0,[sp,#0x20]
        0x00002fa6:    00a0        ..      LSLS     r0,r4,#2
        0x00002fa8:    aa02        ..      ADD      r2,sp,#8
        0x00002faa:    5811        .X      LDR      r1,[r2,r0]
        0x00002fac:    4630        0F      MOV      r0,r6
        0x00002fae:    f7fdfb9f    ....    BL       __aeabi_cfrcmple ; 0x6f0
        0x00002fb2:    d204        ..      BCS      0x2fbe ; dtw + 174
        0x00002fb4:    00a0        ..      LSLS     r0,r4,#2
        0x00002fb6:    a902        ..      ADD      r1,sp,#8
        0x00002fb8:    580e        .X      LDR      r6,[r1,r0]
        0x00002fba:    b220         .      SXTH     r0,r4
        0x00002fbc:    9008        ..      STR      r0,[sp,#0x20]
        0x00002fbe:    00a1        ..      LSLS     r1,r4,#2
        0x00002fc0:    aa02        ..      ADD      r2,sp,#8
        0x00002fc2:    5850        PX      LDR      r0,[r2,r1]
        0x00002fc4:    f7fdfb5a    ..Z.    BL       __aeabi_f2d ; 0x67c
        0x00002fc8:    4602        .F      MOV      r2,r0
        0x00002fca:    460b        .F      MOV      r3,r1
        0x00002fcc:    9101        ..      STR      r1,[sp,#4]
        0x00002fce:    9000        ..      STR      r0,[sp,#0]
        0x00002fd0:    4621        !F      MOV      r1,r4
        0x00002fd2:    a007        ..      ADR      r0,{pc}+0x1e ; 0x2ff0
        0x00002fd4:    f7fff8c6    ....    BL       __0printf ; 0x2164
        0x00002fd8:    bf00        ..      NOP      
        0x00002fda:    1c60        `.      ADDS     r0,r4,#1
        0x00002fdc:    b284        ..      UXTH     r4,r0
        0x00002fde:    2c06        .,      CMP      r4,#6
        0x00002fe0:    dbcf        ..      BLT      0x2f82 ; dtw + 114
        0x00002fe2:    603e        >`      STR      r6,[r7,#0]
        0x00002fe4:    9808        ..      LDR      r0,[sp,#0x20]
        0x00002fe6:    b00d        ..      ADD      sp,sp,#0x34
        0x00002fe8:    bdf0        ..      POP      {r4-r7,pc}
    $d
        0x00002fea:    0000        ..      DCW    0
        0x00002fec:    4cbebc20     ..L    DCD    1287568416
        0x00002ff0:    706d6f43    Comp    DCD    1886220099
        0x00002ff4:    20657261    are     DCD    543519329
        0x00002ff8:    5b646d43    Cmd[    DCD    1533308227
        0x00002ffc:    205d6425    %d]     DCD    542991397
        0x00003000:    5b777444    Dtw[    DCD    1534555204
        0x00003004:    205d6625    %f]     DCD    542991909
        0x00003008:    0000000a    ....    DCD    10
    $t
    i.fputc
    fputc
        0x0000300c:    b570        p.      PUSH     {r4-r6,lr}
        0x0000300e:    4604        .F      MOV      r4,r0
        0x00003010:    460d        .F      MOV      r5,r1
        0x00003012:    4620         F      MOV      r0,r4
        0x00003014:    f7feff40    ..@.    BL       SendChar ; 0x1e98
        0x00003018:    4620         F      MOV      r0,r4
        0x0000301a:    bd70        p.      POP      {r4-r6,pc}
    i.get_cent
    get_cent
        0x0000301c:    b5ff        ..      PUSH     {r0-r7,lr}
        0x0000301e:    b085        ..      SUB      sp,sp,#0x14
        0x00003020:    4606        .F      MOV      r6,r0
        0x00003022:    460f        .F      MOV      r7,r1
        0x00003024:    4615        .F      MOV      r5,r2
        0x00003026:    2000        .       MOVS     r0,#0
        0x00003028:    9004        ..      STR      r0,[sp,#0x10]
        0x0000302a:    463c        <F      MOV      r4,r7
        0x0000302c:    e033        3.      B        0x3096 ; get_cent + 122
        0x0000302e:    1b28        (.      SUBS     r0,r5,r4
        0x00003030:    2800        .(      CMP      r0,#0
        0x00003032:    dd12        ..      BLE      0x305a ; get_cent + 62
        0x00003034:    1be9        ..      SUBS     r1,r5,r7
        0x00003036:    1be0        ..      SUBS     r0,r4,r7
        0x00003038:    f7fdf88e    ....    BL       __aeabi_idiv ; 0x158
        0x0000303c:    9001        ..      STR      r0,[sp,#4]
        0x0000303e:    f7fdfab1    ....    BL       __aeabi_i2f ; 0x5a4
        0x00003042:    9002        ..      STR      r0,[sp,#8]
        0x00003044:    00a0        ..      LSLS     r0,r4,#2
        0x00003046:    5831        1X      LDR      r1,[r6,r0]
        0x00003048:    9802        ..      LDR      r0,[sp,#8]
        0x0000304a:    f7fdf916    ....    BL       __aeabi_fmul ; 0x27a
        0x0000304e:    9003        ..      STR      r0,[sp,#0xc]
        0x00003050:    9904        ..      LDR      r1,[sp,#0x10]
        0x00003052:    f7fdf8b9    ....    BL       __aeabi_fadd ; 0x1c8
        0x00003056:    9004        ..      STR      r0,[sp,#0x10]
        0x00003058:    e01b        ..      B        0x3092 ; get_cent + 118
        0x0000305a:    1b28        (.      SUBS     r0,r5,r4
        0x0000305c:    d513        ..      BPL      0x3086 ; get_cent + 106
        0x0000305e:    9a08        ..      LDR      r2,[sp,#0x20]
        0x00003060:    1b51        Q.      SUBS     r1,r2,r5
        0x00003062:    1b10        ..      SUBS     r0,r2,r4
        0x00003064:    f7fdf878    ..x.    BL       __aeabi_idiv ; 0x158
        0x00003068:    9001        ..      STR      r0,[sp,#4]
        0x0000306a:    f7fdfa9b    ....    BL       __aeabi_i2f ; 0x5a4
        0x0000306e:    9002        ..      STR      r0,[sp,#8]
        0x00003070:    00a0        ..      LSLS     r0,r4,#2
        0x00003072:    5831        1X      LDR      r1,[r6,r0]
        0x00003074:    9802        ..      LDR      r0,[sp,#8]
        0x00003076:    f7fdf900    ....    BL       __aeabi_fmul ; 0x27a
        0x0000307a:    9003        ..      STR      r0,[sp,#0xc]
        0x0000307c:    9904        ..      LDR      r1,[sp,#0x10]
        0x0000307e:    f7fdf8a3    ....    BL       __aeabi_fadd ; 0x1c8
        0x00003082:    9004        ..      STR      r0,[sp,#0x10]
        0x00003084:    e005        ..      B        0x3092 ; get_cent + 118
        0x00003086:    00a0        ..      LSLS     r0,r4,#2
        0x00003088:    5831        1X      LDR      r1,[r6,r0]
        0x0000308a:    9804        ..      LDR      r0,[sp,#0x10]
        0x0000308c:    f7fdf89c    ....    BL       __aeabi_fadd ; 0x1c8
        0x00003090:    9004        ..      STR      r0,[sp,#0x10]
        0x00003092:    1c60        `.      ADDS     r0,r4,#1
        0x00003094:    b204        ..      SXTH     r4,r0
        0x00003096:    9808        ..      LDR      r0,[sp,#0x20]
        0x00003098:    4284        .B      CMP      r4,r0
        0x0000309a:    dbc8        ..      BLT      0x302e ; get_cent + 18
        0x0000309c:    9804        ..      LDR      r0,[sp,#0x10]
        0x0000309e:    b009        ..      ADD      sp,sp,#0x24
        0x000030a0:    bdf0        ..      POP      {r4-r7,pc}
        0x000030a2:    0000        ..      MOVS     r0,r0
    i.get_coef
    get_coef
        0x000030a4:    b5fe        ..      PUSH     {r1-r7,lr}
        0x000030a6:    4606        .F      MOV      r6,r0
        0x000030a8:    460f        .F      MOV      r7,r1
        0x000030aa:    2400        .$      MOVS     r4,#0
        0x000030ac:    e01d        ..      B        0x30ea ; get_coef + 70
        0x000030ae:    2000        .       MOVS     r0,#0
        0x000030b0:    9001        ..      STR      r0,[sp,#4]
        0x000030b2:    2500        .%      MOVS     r5,#0
        0x000030b4:    e010        ..      B        0x30d8 ; get_coef + 52
        0x000030b6:    2260        `"      MOVS     r2,#0x60
        0x000030b8:    4362        bC      MULS     r2,r4,r2
        0x000030ba:    4b0d        .K      LDR      r3,[pc,#52] ; [0x30f0] = 0x716c
        0x000030bc:    18d2        ..      ADDS     r2,r2,r3
        0x000030be:    00ab        ..      LSLS     r3,r5,#2
        0x000030c0:    58d1        .X      LDR      r1,[r2,r3]
        0x000030c2:    00aa        ..      LSLS     r2,r5,#2
        0x000030c4:    58b0        .X      LDR      r0,[r6,r2]
        0x000030c6:    f7fdf8d8    ....    BL       __aeabi_fmul ; 0x27a
        0x000030ca:    9000        ..      STR      r0,[sp,#0]
        0x000030cc:    9901        ..      LDR      r1,[sp,#4]
        0x000030ce:    f7fdf87b    ..{.    BL       __aeabi_fadd ; 0x1c8
        0x000030d2:    9001        ..      STR      r0,[sp,#4]
        0x000030d4:    1c68        h.      ADDS     r0,r5,#1
        0x000030d6:    b285        ..      UXTH     r5,r0
        0x000030d8:    2d18        .-      CMP      r5,#0x18
        0x000030da:    dbec        ..      BLT      0x30b6 ; get_coef + 18
        0x000030dc:    9801        ..      LDR      r0,[sp,#4]
        0x000030de:    f7fdfa9a    ....    BL       __aeabi_f2uiz ; 0x616
        0x000030e2:    00a1        ..      LSLS     r1,r4,#2
        0x000030e4:    5078        xP      STR      r0,[r7,r1]
        0x000030e6:    1c60        `.      ADDS     r0,r4,#1
        0x000030e8:    b284        ..      UXTH     r4,r0
        0x000030ea:    2c0c        .,      CMP      r4,#0xc
        0x000030ec:    dbdf        ..      BLT      0x30ae ; get_coef + 10
        0x000030ee:    bdfe        ..      POP      {r1-r7,pc}
    $d
        0x000030f0:    0000716c    lq..    DCD    29036
    $t
    i.get_dtwdis
    get_dtwdis
        0x000030f4:    b5f3        ..      PUSH     {r0,r1,r4-r7,lr}
        0x000030f6:    b091        ..      SUB      sp,sp,#0x44
        0x000030f8:    2000        .       MOVS     r0,#0
        0x000030fa:    9010        ..      STR      r0,[sp,#0x40]
        0x000030fc:    2401        .$      MOVS     r4,#1
        0x000030fe:    2501        .%      MOVS     r5,#1
        0x00003100:    9811        ..      LDR      r0,[sp,#0x44]
        0x00003102:    9009        ..      STR      r0,[sp,#0x24]
        0x00003104:    9812        ..      LDR      r0,[sp,#0x48]
        0x00003106:    9008        ..      STR      r0,[sp,#0x20]
        0x00003108:    9809        ..      LDR      r0,[sp,#0x24]
        0x0000310a:    1d00        ..      ADDS     r0,r0,#4
        0x0000310c:    f7fdff98    ....    BL       Flash_Read ; 0x1040
        0x00003110:    9007        ..      STR      r0,[sp,#0x1c]
        0x00003112:    9808        ..      LDR      r0,[sp,#0x20]
        0x00003114:    1d00        ..      ADDS     r0,r0,#4
        0x00003116:    f7fdff93    ....    BL       Flash_Read ; 0x1040
        0x0000311a:    9006        ..      STR      r0,[sp,#0x18]
        0x0000311c:    9809        ..      LDR      r0,[sp,#0x24]
        0x0000311e:    4606        .F      MOV      r6,r0
        0x00003120:    3608        .6      ADDS     r6,r6,#8
        0x00003122:    9808        ..      LDR      r0,[sp,#0x20]
        0x00003124:    4607        .F      MOV      r7,r0
        0x00003126:    3708        .7      ADDS     r7,r7,#8
        0x00003128:    9806        ..      LDR      r0,[sp,#0x18]
        0x0000312a:    0041        A.      LSLS     r1,r0,#1
        0x0000312c:    9807        ..      LDR      r0,[sp,#0x1c]
        0x0000312e:    4281        .B      CMP      r1,r0
        0x00003130:    d304        ..      BCC      0x313c ; get_dtwdis + 72
        0x00003132:    9806        ..      LDR      r0,[sp,#0x18]
        0x00003134:    0841        A.      LSRS     r1,r0,#1
        0x00003136:    9807        ..      LDR      r0,[sp,#0x1c]
        0x00003138:    4281        .B      CMP      r1,r0
        0x0000313a:    d902        ..      BLS      0x3142 ; get_dtwdis + 78
        0x0000313c:    485e        ^H      LDR      r0,[pc,#376] ; [0x32b8] = 0x4cbebc20
        0x0000313e:    b013        ..      ADD      sp,sp,#0x4c
        0x00003140:    bdf0        ..      POP      {r4-r7,pc}
        0x00003142:    4639        9F      MOV      r1,r7
        0x00003144:    4630        0F      MOV      r0,r6
        0x00003146:    f000f8b9    ....    BL       get_frmdis ; 0x32bc
        0x0000314a:    9010        ..      STR      r0,[sp,#0x40]
        0x0000314c:    e066        f.      B        0x321c ; get_dtwdis + 296
        0x0000314e:    1e60        `.      SUBS     r0,r4,#1
        0x00003150:    210c        .!      MOVS     r1,#0xc
        0x00003152:    4348        HC      MULS     r0,r1,r0
        0x00003154:    0080        ..      LSLS     r0,r0,#2
        0x00003156:    1980        ..      ADDS     r0,r0,r6
        0x00003158:    9005        ..      STR      r0,[sp,#0x14]
        0x0000315a:    1e68        h.      SUBS     r0,r5,#1
        0x0000315c:    4348        HC      MULS     r0,r1,r0
        0x0000315e:    0080        ..      LSLS     r0,r0,#2
        0x00003160:    19c0        ..      ADDS     r0,r0,r7
        0x00003162:    9004        ..      STR      r0,[sp,#0x10]
        0x00003164:    200c        .       MOVS     r0,#0xc
        0x00003166:    4360        `C      MULS     r0,r4,r0
        0x00003168:    0080        ..      LSLS     r0,r0,#2
        0x0000316a:    1980        ..      ADDS     r0,r0,r6
        0x0000316c:    9003        ..      STR      r0,[sp,#0xc]
        0x0000316e:    200c        .       MOVS     r0,#0xc
        0x00003170:    4368        hC      MULS     r0,r5,r0
        0x00003172:    0080        ..      LSLS     r0,r0,#2
        0x00003174:    19c0        ..      ADDS     r0,r0,r7
        0x00003176:    9002        ..      STR      r0,[sp,#8]
        0x00003178:    9904        ..      LDR      r1,[sp,#0x10]
        0x0000317a:    9803        ..      LDR      r0,[sp,#0xc]
        0x0000317c:    f000f89e    ....    BL       get_frmdis ; 0x32bc
        0x00003180:    900b        ..      STR      r0,[sp,#0x2c]
        0x00003182:    9902        ..      LDR      r1,[sp,#8]
        0x00003184:    9805        ..      LDR      r0,[sp,#0x14]
        0x00003186:    f000f899    ....    BL       get_frmdis ; 0x32bc
        0x0000318a:    900c        ..      STR      r0,[sp,#0x30]
        0x0000318c:    9902        ..      LDR      r1,[sp,#8]
        0x0000318e:    9803        ..      LDR      r0,[sp,#0xc]
        0x00003190:    f000f894    ....    BL       get_frmdis ; 0x32bc
        0x00003194:    900d        ..      STR      r0,[sp,#0x34]
        0x00003196:    980b        ..      LDR      r0,[sp,#0x2c]
        0x00003198:    f7fdfa24    ..$.    BL       __aeabi_f2iz ; 0x5e4
        0x0000319c:    900a        ..      STR      r0,[sp,#0x28]
        0x0000319e:    2000        .       MOVS     r0,#0
        0x000031a0:    900e        ..      STR      r0,[sp,#0x38]
        0x000031a2:    2001        .       MOVS     r0,#1
        0x000031a4:    900f        ..      STR      r0,[sp,#0x3c]
        0x000031a6:    e019        ..      B        0x31dc ; get_dtwdis + 232
        0x000031a8:    980a        ..      LDR      r0,[sp,#0x28]
        0x000031aa:    f7fdf9fb    ....    BL       __aeabi_i2f ; 0x5a4
        0x000031ae:    9001        ..      STR      r0,[sp,#4]
        0x000031b0:    980f        ..      LDR      r0,[sp,#0x3c]
        0x000031b2:    0080        ..      LSLS     r0,r0,#2
        0x000031b4:    aa0b        ..      ADD      r2,sp,#0x2c
        0x000031b6:    5811        .X      LDR      r1,[r2,r0]
        0x000031b8:    9801        ..      LDR      r0,[sp,#4]
        0x000031ba:    f7fdfa99    ....    BL       __aeabi_cfrcmple ; 0x6f0
        0x000031be:    d209        ..      BCS      0x31d4 ; get_dtwdis + 224
        0x000031c0:    990f        ..      LDR      r1,[sp,#0x3c]
        0x000031c2:    0089        ..      LSLS     r1,r1,#2
        0x000031c4:    aa0b        ..      ADD      r2,sp,#0x2c
        0x000031c6:    5850        PX      LDR      r0,[r2,r1]
        0x000031c8:    f7fdfa0c    ....    BL       __aeabi_f2iz ; 0x5e4
        0x000031cc:    900a        ..      STR      r0,[sp,#0x28]
        0x000031ce:    980f        ..      LDR      r0,[sp,#0x3c]
        0x000031d0:    b2c0        ..      UXTB     r0,r0
        0x000031d2:    900e        ..      STR      r0,[sp,#0x38]
        0x000031d4:    980f        ..      LDR      r0,[sp,#0x3c]
        0x000031d6:    1c40        @.      ADDS     r0,r0,#1
        0x000031d8:    b200        ..      SXTH     r0,r0
        0x000031da:    900f        ..      STR      r0,[sp,#0x3c]
        0x000031dc:    980f        ..      LDR      r0,[sp,#0x3c]
        0x000031de:    2803        .(      CMP      r0,#3
        0x000031e0:    dbe2        ..      BLT      0x31a8 ; get_dtwdis + 180
        0x000031e2:    980e        ..      LDR      r0,[sp,#0x38]
        0x000031e4:    2800        .(      CMP      r0,#0
        0x000031e6:    d004        ..      BEQ      0x31f2 ; get_dtwdis + 254
        0x000031e8:    2801        .(      CMP      r0,#1
        0x000031ea:    d005        ..      BEQ      0x31f8 ; get_dtwdis + 260
        0x000031ec:    2802        .(      CMP      r0,#2
        0x000031ee:    d10b        ..      BNE      0x3208 ; get_dtwdis + 276
        0x000031f0:    e005        ..      B        0x31fe ; get_dtwdis + 266
        0x000031f2:    1c60        `.      ADDS     r0,r4,#1
        0x000031f4:    b204        ..      SXTH     r4,r0
        0x000031f6:    e008        ..      B        0x320a ; get_dtwdis + 278
        0x000031f8:    1c68        h.      ADDS     r0,r5,#1
        0x000031fa:    b205        ..      SXTH     r5,r0
        0x000031fc:    e005        ..      B        0x320a ; get_dtwdis + 278
        0x000031fe:    1c60        `.      ADDS     r0,r4,#1
        0x00003200:    b204        ..      SXTH     r4,r0
        0x00003202:    1c68        h.      ADDS     r0,r5,#1
        0x00003204:    b205        ..      SXTH     r5,r0
        0x00003206:    e000        ..      B        0x320a ; get_dtwdis + 278
        0x00003208:    bf00        ..      NOP      
        0x0000320a:    bf00        ..      NOP      
        0x0000320c:    980a        ..      LDR      r0,[sp,#0x28]
        0x0000320e:    f7fdf9c9    ....    BL       __aeabi_i2f ; 0x5a4
        0x00003212:    9001        ..      STR      r0,[sp,#4]
        0x00003214:    9910        ..      LDR      r1,[sp,#0x40]
        0x00003216:    f7fcffd7    ....    BL       __aeabi_fadd ; 0x1c8
        0x0000321a:    9010        ..      STR      r0,[sp,#0x40]
        0x0000321c:    9807        ..      LDR      r0,[sp,#0x1c]
        0x0000321e:    4284        .B      CMP      r4,r0
        0x00003220:    d202        ..      BCS      0x3228 ; get_dtwdis + 308
        0x00003222:    9806        ..      LDR      r0,[sp,#0x18]
        0x00003224:    4285        .B      CMP      r5,r0
        0x00003226:    d392        ..      BCC      0x314e ; get_dtwdis + 90
        0x00003228:    e01e        ..      B        0x3268 ; get_dtwdis + 372
        0x0000322a:    1e60        `.      SUBS     r0,r4,#1
        0x0000322c:    210c        .!      MOVS     r1,#0xc
        0x0000322e:    4348        HC      MULS     r0,r1,r0
        0x00003230:    0080        ..      LSLS     r0,r0,#2
        0x00003232:    1980        ..      ADDS     r0,r0,r6
        0x00003234:    9005        ..      STR      r0,[sp,#0x14]
        0x00003236:    1e68        h.      SUBS     r0,r5,#1
        0x00003238:    4348        HC      MULS     r0,r1,r0
        0x0000323a:    0080        ..      LSLS     r0,r0,#2
        0x0000323c:    19c0        ..      ADDS     r0,r0,r7
        0x0000323e:    9004        ..      STR      r0,[sp,#0x10]
        0x00003240:    200c        .       MOVS     r0,#0xc
        0x00003242:    4360        `C      MULS     r0,r4,r0
        0x00003244:    0080        ..      LSLS     r0,r0,#2
        0x00003246:    1980        ..      ADDS     r0,r0,r6
        0x00003248:    9003        ..      STR      r0,[sp,#0xc]
        0x0000324a:    200c        .       MOVS     r0,#0xc
        0x0000324c:    4368        hC      MULS     r0,r5,r0
        0x0000324e:    0080        ..      LSLS     r0,r0,#2
        0x00003250:    19c0        ..      ADDS     r0,r0,r7
        0x00003252:    9002        ..      STR      r0,[sp,#8]
        0x00003254:    9803        ..      LDR      r0,[sp,#0xc]
        0x00003256:    f000f87d    ..}.    BL       get_frmval ; 0x3354
        0x0000325a:    9001        ..      STR      r0,[sp,#4]
        0x0000325c:    9910        ..      LDR      r1,[sp,#0x40]
        0x0000325e:    f7fcffb3    ....    BL       __aeabi_fadd ; 0x1c8
        0x00003262:    9010        ..      STR      r0,[sp,#0x40]
        0x00003264:    1c60        `.      ADDS     r0,r4,#1
        0x00003266:    b204        ..      SXTH     r4,r0
        0x00003268:    9807        ..      LDR      r0,[sp,#0x1c]
        0x0000326a:    4284        .B      CMP      r4,r0
        0x0000326c:    d3dd        ..      BCC      0x322a ; get_dtwdis + 310
        0x0000326e:    e01e        ..      B        0x32ae ; get_dtwdis + 442
        0x00003270:    1e60        `.      SUBS     r0,r4,#1
        0x00003272:    210c        .!      MOVS     r1,#0xc
        0x00003274:    4348        HC      MULS     r0,r1,r0
        0x00003276:    0080        ..      LSLS     r0,r0,#2
        0x00003278:    1980        ..      ADDS     r0,r0,r6
        0x0000327a:    9005        ..      STR      r0,[sp,#0x14]
        0x0000327c:    1e68        h.      SUBS     r0,r5,#1
        0x0000327e:    4348        HC      MULS     r0,r1,r0
        0x00003280:    0080        ..      LSLS     r0,r0,#2
        0x00003282:    19c0        ..      ADDS     r0,r0,r7
        0x00003284:    9004        ..      STR      r0,[sp,#0x10]
        0x00003286:    200c        .       MOVS     r0,#0xc
        0x00003288:    4360        `C      MULS     r0,r4,r0
        0x0000328a:    0080        ..      LSLS     r0,r0,#2
        0x0000328c:    1980        ..      ADDS     r0,r0,r6
        0x0000328e:    9003        ..      STR      r0,[sp,#0xc]
        0x00003290:    200c        .       MOVS     r0,#0xc
        0x00003292:    4368        hC      MULS     r0,r5,r0
        0x00003294:    0080        ..      LSLS     r0,r0,#2
        0x00003296:    19c0        ..      ADDS     r0,r0,r7
        0x00003298:    9002        ..      STR      r0,[sp,#8]
        0x0000329a:    9802        ..      LDR      r0,[sp,#8]
        0x0000329c:    f000f85a    ..Z.    BL       get_frmval ; 0x3354
        0x000032a0:    9001        ..      STR      r0,[sp,#4]
        0x000032a2:    9910        ..      LDR      r1,[sp,#0x40]
        0x000032a4:    f7fcff90    ....    BL       __aeabi_fadd ; 0x1c8
        0x000032a8:    9010        ..      STR      r0,[sp,#0x40]
        0x000032aa:    1c68        h.      ADDS     r0,r5,#1
        0x000032ac:    b205        ..      SXTH     r5,r0
        0x000032ae:    9806        ..      LDR      r0,[sp,#0x18]
        0x000032b0:    4285        .B      CMP      r5,r0
        0x000032b2:    d3dd        ..      BCC      0x3270 ; get_dtwdis + 380
        0x000032b4:    9810        ..      LDR      r0,[sp,#0x40]
        0x000032b6:    e742        B.      B        0x313e ; get_dtwdis + 74
    $d
        0x000032b8:    4cbebc20     ..L    DCD    1287568416
    $t
    i.get_frmdis
    get_frmdis
        0x000032bc:    b5f0        ..      PUSH     {r4-r7,lr}
        0x000032be:    b08d        ..      SUB      sp,sp,#0x34
        0x000032c0:    4605        .F      MOV      r5,r0
        0x000032c2:    460e        .F      MOV      r6,r1
        0x000032c4:    2000        .       MOVS     r0,#0
        0x000032c6:    900c        ..      STR      r0,[sp,#0x30]
        0x000032c8:    900b        ..      STR      r0,[sp,#0x2c]
        0x000032ca:    950a        ..      STR      r5,[sp,#0x28]
        0x000032cc:    9609        ..      STR      r6,[sp,#0x24]
        0x000032ce:    2400        .$      MOVS     r4,#0
        0x000032d0:    e02f        /.      B        0x3332 ; get_frmdis + 118
        0x000032d2:    00a1        ..      LSLS     r1,r4,#2
        0x000032d4:    980a        ..      LDR      r0,[sp,#0x28]
        0x000032d6:    1808        ..      ADDS     r0,r1,r0
        0x000032d8:    900a        ..      STR      r0,[sp,#0x28]
        0x000032da:    00a1        ..      LSLS     r1,r4,#2
        0x000032dc:    9809        ..      LDR      r0,[sp,#0x24]
        0x000032de:    1808        ..      ADDS     r0,r1,r0
        0x000032e0:    9009        ..      STR      r0,[sp,#0x24]
        0x000032e2:    980a        ..      LDR      r0,[sp,#0x28]
        0x000032e4:    f7fdfeac    ....    BL       Flash_Read ; 0x1040
        0x000032e8:    4607        .F      MOV      r7,r0
        0x000032ea:    9809        ..      LDR      r0,[sp,#0x24]
        0x000032ec:    f7fdfea8    ....    BL       Flash_Read ; 0x1040
        0x000032f0:    9008        ..      STR      r0,[sp,#0x20]
        0x000032f2:    9908        ..      LDR      r1,[sp,#0x20]
        0x000032f4:    1a78        x.      SUBS     r0,r7,r1
        0x000032f6:    f7fdf960    ..`.    BL       __aeabi_ui2f ; 0x5ba
        0x000032fa:    900b        ..      STR      r0,[sp,#0x2c]
        0x000032fc:    980b        ..      LDR      r0,[sp,#0x2c]
        0x000032fe:    f7fdf9bd    ....    BL       __aeabi_f2d ; 0x67c
        0x00003302:    2200        ."      MOVS     r2,#0
        0x00003304:    2301        .#      MOVS     r3,#1
        0x00003306:    079b        ..      LSLS     r3,r3,#30
        0x00003308:    9101        ..      STR      r1,[sp,#4]
        0x0000330a:    9000        ..      STR      r0,[sp,#0]
        0x0000330c:    f000fbd8    ....    BL       pow ; 0x3ac0
        0x00003310:    9105        ..      STR      r1,[sp,#0x14]
        0x00003312:    9004        ..      STR      r0,[sp,#0x10]
        0x00003314:    980c        ..      LDR      r0,[sp,#0x30]
        0x00003316:    f7fdf9b1    ....    BL       __aeabi_f2d ; 0x67c
        0x0000331a:    9103        ..      STR      r1,[sp,#0xc]
        0x0000331c:    9002        ..      STR      r0,[sp,#8]
        0x0000331e:    9b05        ..      LDR      r3,[sp,#0x14]
        0x00003320:    9a04        ..      LDR      r2,[sp,#0x10]
        0x00003322:    f7fdf825    ..%.    BL       __aeabi_dadd ; 0x370
        0x00003326:    9107        ..      STR      r1,[sp,#0x1c]
        0x00003328:    9006        ..      STR      r0,[sp,#0x18]
        0x0000332a:    f7fdf9bb    ....    BL       __aeabi_d2f ; 0x6a4
        0x0000332e:    900c        ..      STR      r0,[sp,#0x30]
        0x00003330:    1c64        d.      ADDS     r4,r4,#1
        0x00003332:    2c0c        .,      CMP      r4,#0xc
        0x00003334:    dbcd        ..      BLT      0x32d2 ; get_frmdis + 22
        0x00003336:    980c        ..      LDR      r0,[sp,#0x30]
        0x00003338:    f7fdf9a0    ....    BL       __aeabi_f2d ; 0x67c
        0x0000333c:    9105        ..      STR      r1,[sp,#0x14]
        0x0000333e:    9004        ..      STR      r0,[sp,#0x10]
        0x00003340:    f001f926    ..&.    BL       sqrt ; 0x4590
        0x00003344:    9107        ..      STR      r1,[sp,#0x1c]
        0x00003346:    9006        ..      STR      r0,[sp,#0x18]
        0x00003348:    f7fdf9ac    ....    BL       __aeabi_d2f ; 0x6a4
        0x0000334c:    900c        ..      STR      r0,[sp,#0x30]
        0x0000334e:    980c        ..      LDR      r0,[sp,#0x30]
        0x00003350:    b00d        ..      ADD      sp,sp,#0x34
        0x00003352:    bdf0        ..      POP      {r4-r7,pc}
    i.get_frmval
    get_frmval
        0x00003354:    b5f0        ..      PUSH     {r4-r7,lr}
        0x00003356:    b08b        ..      SUB      sp,sp,#0x2c
        0x00003358:    4605        .F      MOV      r5,r0
        0x0000335a:    2700        .'      MOVS     r7,#0
        0x0000335c:    2000        .       MOVS     r0,#0
        0x0000335e:    9009        ..      STR      r0,[sp,#0x24]
        0x00003360:    462e        .F      MOV      r6,r5
        0x00003362:    2400        .$      MOVS     r4,#0
        0x00003364:    e024        $.      B        0x33b0 ; get_frmval + 92
        0x00003366:    00a0        ..      LSLS     r0,r4,#2
        0x00003368:    1986        ..      ADDS     r6,r0,r6
        0x0000336a:    4630        0F      MOV      r0,r6
        0x0000336c:    f7fdfe68    ..h.    BL       Flash_Read ; 0x1040
        0x00003370:    9008        ..      STR      r0,[sp,#0x20]
        0x00003372:    9808        ..      LDR      r0,[sp,#0x20]
        0x00003374:    f7fdf921    ..!.    BL       __aeabi_ui2f ; 0x5ba
        0x00003378:    9009        ..      STR      r0,[sp,#0x24]
        0x0000337a:    9809        ..      LDR      r0,[sp,#0x24]
        0x0000337c:    f7fdf97e    ..~.    BL       __aeabi_f2d ; 0x67c
        0x00003380:    2200        ."      MOVS     r2,#0
        0x00003382:    2301        .#      MOVS     r3,#1
        0x00003384:    079b        ..      LSLS     r3,r3,#30
        0x00003386:    9101        ..      STR      r1,[sp,#4]
        0x00003388:    9000        ..      STR      r0,[sp,#0]
        0x0000338a:    f000fb99    ....    BL       pow ; 0x3ac0
        0x0000338e:    9105        ..      STR      r1,[sp,#0x14]
        0x00003390:    9004        ..      STR      r0,[sp,#0x10]
        0x00003392:    4638        8F      MOV      r0,r7
        0x00003394:    f7fdf972    ..r.    BL       __aeabi_f2d ; 0x67c
        0x00003398:    9103        ..      STR      r1,[sp,#0xc]
        0x0000339a:    9002        ..      STR      r0,[sp,#8]
        0x0000339c:    9b05        ..      LDR      r3,[sp,#0x14]
        0x0000339e:    9a04        ..      LDR      r2,[sp,#0x10]
        0x000033a0:    f7fcffe6    ....    BL       __aeabi_dadd ; 0x370
        0x000033a4:    9107        ..      STR      r1,[sp,#0x1c]
        0x000033a6:    9006        ..      STR      r0,[sp,#0x18]
        0x000033a8:    f7fdf97c    ..|.    BL       __aeabi_d2f ; 0x6a4
        0x000033ac:    4607        .F      MOV      r7,r0
        0x000033ae:    1c64        d.      ADDS     r4,r4,#1
        0x000033b0:    2c0c        .,      CMP      r4,#0xc
        0x000033b2:    dbd8        ..      BLT      0x3366 ; get_frmval + 18
        0x000033b4:    4638        8F      MOV      r0,r7
        0x000033b6:    f7fdf961    ..a.    BL       __aeabi_f2d ; 0x67c
        0x000033ba:    9105        ..      STR      r1,[sp,#0x14]
        0x000033bc:    9004        ..      STR      r0,[sp,#0x10]
        0x000033be:    f001f8e7    ....    BL       sqrt ; 0x4590
        0x000033c2:    9107        ..      STR      r1,[sp,#0x1c]
        0x000033c4:    9006        ..      STR      r0,[sp,#0x18]
        0x000033c6:    f7fdf96d    ..m.    BL       __aeabi_d2f ; 0x6a4
        0x000033ca:    4607        .F      MOV      r7,r0
        0x000033cc:    4638        8F      MOV      r0,r7
        0x000033ce:    b00b        ..      ADD      sp,sp,#0x2c
        0x000033d0:    bdf0        ..      POP      {r4-r7,pc}
    i.get_loge
    get_loge
        0x000033d2:    b5fe        ..      PUSH     {r1-r7,lr}
        0x000033d4:    4607        .F      MOV      r7,r0
        0x000033d6:    2400        .$      MOVS     r4,#0
        0x000033d8:    e011        ..      B        0x33fe ; get_loge + 44
        0x000033da:    00a1        ..      LSLS     r1,r4,#2
        0x000033dc:    5878        xX      LDR      r0,[r7,r1]
        0x000033de:    f7fdf94d    ..M.    BL       __aeabi_f2d ; 0x67c
        0x000033e2:    4605        .F      MOV      r5,r0
        0x000033e4:    f000f80e    ....    BL       log ; 0x3404
        0x000033e8:    9101        ..      STR      r1,[sp,#4]
        0x000033ea:    9000        ..      STR      r0,[sp,#0]
        0x000033ec:    f7fdf928    ..(.    BL       __aeabi_d2uiz ; 0x640
        0x000033f0:    9002        ..      STR      r0,[sp,#8]
        0x000033f2:    f7fdf8e2    ....    BL       __aeabi_ui2f ; 0x5ba
        0x000033f6:    00a1        ..      LSLS     r1,r4,#2
        0x000033f8:    5078        xP      STR      r0,[r7,r1]
        0x000033fa:    1c60        `.      ADDS     r0,r4,#1
        0x000033fc:    b284        ..      UXTH     r4,r0
        0x000033fe:    2c18        .,      CMP      r4,#0x18
        0x00003400:    dbeb        ..      BLT      0x33da ; get_loge + 8
        0x00003402:    bdfe        ..      POP      {r1-r7,pc}
    i.log
    log
        0x00003404:    b5f0        ..      PUSH     {r4-r7,lr}
        0x00003406:    4ac5        .J      LDR      r2,[pc,#788] ; [0x371c] = 0x7ff00000
        0x00003408:    2400        .$      MOVS     r4,#0
        0x0000340a:    b08f        ..      SUB      sp,sp,#0x3c
        0x0000340c:    4291        .B      CMP      r1,r2
        0x0000340e:    da0a        ..      BGE      0x3426 ; log + 34
        0x00003410:    004b        K.      LSLS     r3,r1,#1
        0x00003412:    085b        [.      LSRS     r3,r3,#1
        0x00003414:    4293        .B      CMP      r3,r2
        0x00003416:    d806        ..      BHI      0x3426 ; log + 34
        0x00003418:    2501        .%      MOVS     r5,#1
        0x0000341a:    004a        J.      LSLS     r2,r1,#1
        0x0000341c:    056d        m.      LSLS     r5,r5,#21
        0x0000341e:    42ea        .B      CMN      r2,r5
        0x00003420:    d105        ..      BNE      0x342e ; log + 42
        0x00003422:    2800        .(      CMP      r0,#0
        0x00003424:    d003        ..      BEQ      0x342e ; log + 42
        0x00003426:    f7feff3b    ..;.    BL       __mathlib_dbl_infnan ; 0x22a0
        0x0000342a:    b00f        ..      ADD      sp,sp,#0x3c
        0x0000342c:    bdf0        ..      POP      {r4-r7,pc}
        0x0000342e:    2501        .%      MOVS     r5,#1
        0x00003430:    052d        -.      LSLS     r5,r5,#20
        0x00003432:    42a9        .B      CMP      r1,r5
        0x00003434:    da19        ..      BGE      0x346a ; log + 102
        0x00003436:    4303        .C      ORRS     r3,r3,r0
        0x00003438:    d008        ..      BEQ      0x344c ; log + 72
        0x0000343a:    2900        .)      CMP      r1,#0
        0x0000343c:    da10        ..      BGE      0x3460 ; log + 92
        0x0000343e:    2001        .       MOVS     r0,#1
        0x00003440:    f7feff64    ..d.    BL       __set_errno ; 0x230c
        0x00003444:    f7feff35    ..5.    BL       __mathlib_dbl_invalid ; 0x22b2
        0x00003448:    b00f        ..      ADD      sp,sp,#0x3c
        0x0000344a:    bdf0        ..      POP      {r4-r7,pc}
        0x0000344c:    2002        .       MOVS     r0,#2
        0x0000344e:    f7feff5d    ..].    BL       __set_errno ; 0x230c
        0x00003452:    f7feff1b    ....    BL       __mathlib_dbl_divzero ; 0x228c
        0x00003456:    2201        ."      MOVS     r2,#1
        0x00003458:    07d2        ..      LSLS     r2,r2,#31
        0x0000345a:    4051        Q@      EORS     r1,r1,r2
        0x0000345c:    b00f        ..      ADD      sp,sp,#0x3c
        0x0000345e:    bdf0        ..      POP      {r4-r7,pc}
        0x00003460:    2435        5$      MOVS     r4,#0x35
        0x00003462:    43e4        .C      MVNS     r4,r4
        0x00003464:    2236        6"      MOVS     r2,#0x36
        0x00003466:    f7fdfac9    ....    BL       __ARM_scalbn ; 0x9fc
        0x0000346a:    150a        ..      ASRS     r2,r1,#20
        0x0000346c:    4bac        .K      LDR      r3,[pc,#688] ; [0x3720] = 0xfffffc01
        0x0000346e:    1912        ..      ADDS     r2,r2,r4
        0x00003470:    18d4        ..      ADDS     r4,r2,r3
        0x00003472:    030a        ..      LSLS     r2,r1,#12
        0x00003474:    0b12        ..      LSRS     r2,r2,#12
        0x00003476:    49ab        .I      LDR      r1,[pc,#684] ; [0x3724] = 0x95f64
        0x00003478:    4bab        .K      LDR      r3,[pc,#684] ; [0x3728] = 0x3ff00000
        0x0000347a:    1856        V.      ADDS     r6,r2,r1
        0x0000347c:    402e        .@      ANDS     r6,r6,r5
        0x0000347e:    4631        1F      MOV      r1,r6
        0x00003480:    4059        Y@      EORS     r1,r1,r3
        0x00003482:    4311        .C      ORRS     r1,r1,r2
        0x00003484:    9201        ..      STR      r2,[sp,#4]
        0x00003486:    1532        2.      ASRS     r2,r6,#20
        0x00003488:    1912        ..      ADDS     r2,r2,r4
        0x0000348a:    920b        ..      STR      r2,[sp,#0x2c]
        0x0000348c:    2200        ."      MOVS     r2,#0
        0x0000348e:    f7fdf813    ....    BL       __aeabi_dsub ; 0x4b8
        0x00003492:    9a01        ..      LDR      r2,[sp,#4]
        0x00003494:    4604        .F      MOV      r4,r0
        0x00003496:    1c92        ..      ADDS     r2,r2,#2
        0x00003498:    0310        ..      LSLS     r0,r2,#12
        0x0000349a:    4ea4        .N      LDR      r6,[pc,#656] ; [0x372c] = 0x420c
        0x0000349c:    0b00        ..      LSRS     r0,r0,#12
        0x0000349e:    460d        .F      MOV      r5,r1
        0x000034a0:    447e        ~D      ADD      r6,r6,pc
        0x000034a2:    2803        .(      CMP      r0,#3
        0x000034a4:    d260        `.      BCS      0x3568 ; log + 356
        0x000034a6:    4620         F      MOV      r0,r4
        0x000034a8:    6873        sh      LDR      r3,[r6,#4]
        0x000034aa:    6832        2h      LDR      r2,[r6,#0]
        0x000034ac:    f7fdfb42    ..B.    BL       __aeabi_cdcmpeq ; 0xb34
        0x000034b0:    d11c        ..      BNE      0x34ec ; log + 232
        0x000034b2:    980b        ..      LDR      r0,[sp,#0x2c]
        0x000034b4:    2800        .(      CMP      r0,#0
        0x000034b6:    d015        ..      BEQ      0x34e4 ; log + 224
        0x000034b8:    f7fdfb08    ....    BL       __aeabi_i2d ; 0xacc
        0x000034bc:    4604        .F      MOV      r4,r0
        0x000034be:    460e        .F      MOV      r6,r1
        0x000034c0:    4a9b        .J      LDR      r2,[pc,#620] ; [0x3730] = 0x35793c76
        0x000034c2:    4b9c        .K      LDR      r3,[pc,#624] ; [0x3734] = 0x3dea39ef
        0x000034c4:    f7fdf806    ....    BL       __aeabi_dmul ; 0x4d4
        0x000034c8:    460d        .F      MOV      r5,r1
        0x000034ca:    4607        .F      MOV      r7,r0
        0x000034cc:    4a9a        .J      LDR      r2,[pc,#616] ; [0x3738] = 0xfee00000
        0x000034ce:    4b9b        .K      LDR      r3,[pc,#620] ; [0x373c] = 0x3fe62e42
        0x000034d0:    4620         F      MOV      r0,r4
        0x000034d2:    4631        1F      MOV      r1,r6
        0x000034d4:    f7fcfffe    ....    BL       __aeabi_dmul ; 0x4d4
        0x000034d8:    463a        :F      MOV      r2,r7
        0x000034da:    462b        +F      MOV      r3,r5
        0x000034dc:    f7fcff48    ..H.    BL       __aeabi_dadd ; 0x370
        0x000034e0:    b00f        ..      ADD      sp,sp,#0x3c
        0x000034e2:    bdf0        ..      POP      {r4-r7,pc}
        0x000034e4:    6871        qh      LDR      r1,[r6,#4]
        0x000034e6:    6830        0h      LDR      r0,[r6,#0]
        0x000034e8:    b00f        ..      ADD      sp,sp,#0x3c
        0x000034ea:    bdf0        ..      POP      {r4-r7,pc}
        0x000034ec:    4a94        .J      LDR      r2,[pc,#592] ; [0x3740] = 0x55555555
        0x000034ee:    4b95        .K      LDR      r3,[pc,#596] ; [0x3744] = 0x3fd55555
        0x000034f0:    4620         F      MOV      r0,r4
        0x000034f2:    4629        )F      MOV      r1,r5
        0x000034f4:    f7fcffee    ....    BL       __aeabi_dmul ; 0x4d4
        0x000034f8:    2200        ."      MOVS     r2,#0
        0x000034fa:    4b93        .K      LDR      r3,[pc,#588] ; [0x3748] = 0x3fe00000
        0x000034fc:    f7fcffe2    ....    BL       __aeabi_drsub ; 0x4c4
        0x00003500:    4606        .F      MOV      r6,r0
        0x00003502:    460f        .F      MOV      r7,r1
        0x00003504:    4622        "F      MOV      r2,r4
        0x00003506:    462b        +F      MOV      r3,r5
        0x00003508:    4610        .F      MOV      r0,r2
        0x0000350a:    4619        .F      MOV      r1,r3
        0x0000350c:    f7fcffe2    ....    BL       __aeabi_dmul ; 0x4d4
        0x00003510:    4632        2F      MOV      r2,r6
        0x00003512:    463b        ;F      MOV      r3,r7
        0x00003514:    f7fcffde    ....    BL       __aeabi_dmul ; 0x4d4
        0x00003518:    4606        .F      MOV      r6,r0
        0x0000351a:    980b        ..      LDR      r0,[sp,#0x2c]
        0x0000351c:    460f        .F      MOV      r7,r1
        0x0000351e:    2800        .(      CMP      r0,#0
        0x00003520:    d01d        ..      BEQ      0x355e ; log + 346
        0x00003522:    f7fdfad3    ....    BL       __aeabi_i2d ; 0xacc
        0x00003526:    4a82        .J      LDR      r2,[pc,#520] ; [0x3730] = 0x35793c76
        0x00003528:    4b82        .K      LDR      r3,[pc,#520] ; [0x3734] = 0x3dea39ef
        0x0000352a:    9105        ..      STR      r1,[sp,#0x14]
        0x0000352c:    9004        ..      STR      r0,[sp,#0x10]
        0x0000352e:    f7fcffd1    ....    BL       __aeabi_dmul ; 0x4d4
        0x00003532:    4632        2F      MOV      r2,r6
        0x00003534:    463b        ;F      MOV      r3,r7
        0x00003536:    f7fcffc5    ....    BL       __aeabi_drsub ; 0x4c4
        0x0000353a:    4622        "F      MOV      r2,r4
        0x0000353c:    462b        +F      MOV      r3,r5
        0x0000353e:    f7fcffbb    ....    BL       __aeabi_dsub ; 0x4b8
        0x00003542:    4604        .F      MOV      r4,r0
        0x00003544:    460d        .F      MOV      r5,r1
        0x00003546:    4a7c        |J      LDR      r2,[pc,#496] ; [0x3738] = 0xfee00000
        0x00003548:    4b7c        |K      LDR      r3,[pc,#496] ; [0x373c] = 0x3fe62e42
        0x0000354a:    9905        ..      LDR      r1,[sp,#0x14]
        0x0000354c:    9804        ..      LDR      r0,[sp,#0x10]
        0x0000354e:    f7fcffc1    ....    BL       __aeabi_dmul ; 0x4d4
        0x00003552:    4622        "F      MOV      r2,r4
        0x00003554:    462b        +F      MOV      r3,r5
        0x00003556:    f7fcffaf    ....    BL       __aeabi_dsub ; 0x4b8
        0x0000355a:    b00f        ..      ADD      sp,sp,#0x3c
        0x0000355c:    bdf0        ..      POP      {r4-r7,pc}
        0x0000355e:    460b        .F      MOV      r3,r1
        0x00003560:    4632        2F      MOV      r2,r6
        0x00003562:    4620         F      MOV      r0,r4
        0x00003564:    4629        )F      MOV      r1,r5
        0x00003566:    e0c4        ..      B        0x36f2 ; log + 750
        0x00003568:    2301        .#      MOVS     r3,#1
        0x0000356a:    2200        ."      MOVS     r2,#0
        0x0000356c:    079b        ..      LSLS     r3,r3,#30
        0x0000356e:    4620         F      MOV      r0,r4
        0x00003570:    f7fcfefe    ....    BL       __aeabi_dadd ; 0x370
        0x00003574:    4602        .F      MOV      r2,r0
        0x00003576:    460b        .F      MOV      r3,r1
        0x00003578:    4620         F      MOV      r0,r4
        0x0000357a:    4629        )F      MOV      r1,r5
        0x0000357c:    f7fdf9c6    ....    BL       __aeabi_ddiv ; 0x90c
        0x00003580:    4606        .F      MOV      r6,r0
        0x00003582:    460f        .F      MOV      r7,r1
        0x00003584:    980b        ..      LDR      r0,[sp,#0x2c]
        0x00003586:    f7fdfaa1    ....    BL       __aeabi_i2d ; 0xacc
        0x0000358a:    4632        2F      MOV      r2,r6
        0x0000358c:    463b        ;F      MOV      r3,r7
        0x0000358e:    9105        ..      STR      r1,[sp,#0x14]
        0x00003590:    9004        ..      STR      r0,[sp,#0x10]
        0x00003592:    4610        .F      MOV      r0,r2
        0x00003594:    4619        .F      MOV      r1,r3
        0x00003596:    f7fcff9d    ....    BL       __aeabi_dmul ; 0x4d4
        0x0000359a:    9109        ..      STR      r1,[sp,#0x24]
        0x0000359c:    900c        ..      STR      r0,[sp,#0x30]
        0x0000359e:    496b        kI      LDR      r1,[pc,#428] ; [0x374c] = 0xfff9eb86
        0x000035a0:    9801        ..      LDR      r0,[sp,#4]
        0x000035a2:    9b09        ..      LDR      r3,[sp,#0x24]
        0x000035a4:    1842        B.      ADDS     r2,r0,r1
        0x000035a6:    9200        ..      STR      r2,[sp,#0]
        0x000035a8:    9a0c        ..      LDR      r2,[sp,#0x30]
        0x000035aa:    4619        .F      MOV      r1,r3
        0x000035ac:    4610        .F      MOV      r0,r2
        0x000035ae:    f7fcff91    ....    BL       __aeabi_dmul ; 0x4d4
        0x000035b2:    4602        .F      MOV      r2,r0
        0x000035b4:    9107        ..      STR      r1,[sp,#0x1c]
        0x000035b6:    900a        ..      STR      r0,[sp,#0x28]
        0x000035b8:    4965        eI      LDR      r1,[pc,#404] ; [0x3750] = 0x6b851
        0x000035ba:    9801        ..      LDR      r0,[sp,#4]
        0x000035bc:    1a0b        ..      SUBS     r3,r1,r0
        0x000035be:    4865        eH      LDR      r0,[pc,#404] ; [0x3754] = 0x4028
        0x000035c0:    9301        ..      STR      r3,[sp,#4]
        0x000035c2:    2103        .!      MOVS     r1,#3
        0x000035c4:    4478        xD      ADD      r0,r0,pc
        0x000035c6:    9b07        ..      LDR      r3,[sp,#0x1c]
        0x000035c8:    f7fefe0a    ....    BL       __kernel_poly ; 0x21e0
        0x000035cc:    9b07        ..      LDR      r3,[sp,#0x1c]
        0x000035ce:    9a0a        ..      LDR      r2,[sp,#0x28]
        0x000035d0:    f7fcff80    ....    BL       __aeabi_dmul ; 0x4d4
        0x000035d4:    900e        ..      STR      r0,[sp,#0x38]
        0x000035d6:    485f        _H      LDR      r0,[pc,#380] ; [0x3754] = 0x4028
        0x000035d8:    910d        ..      STR      r1,[sp,#0x34]
        0x000035da:    2104        .!      MOVS     r1,#4
        0x000035dc:    4478        xD      ADD      r0,r0,pc
        0x000035de:    9b07        ..      LDR      r3,[sp,#0x1c]
        0x000035e0:    9a0a        ..      LDR      r2,[sp,#0x28]
        0x000035e2:    f7fefdfd    ....    BL       __kernel_poly ; 0x21e0
        0x000035e6:    9b09        ..      LDR      r3,[sp,#0x24]
        0x000035e8:    9a0c        ..      LDR      r2,[sp,#0x30]
        0x000035ea:    f7fcff73    ..s.    BL       __aeabi_dmul ; 0x4d4
        0x000035ee:    9b01        ..      LDR      r3,[sp,#4]
        0x000035f0:    9a00        ..      LDR      r2,[sp,#0]
        0x000035f2:    431a        .C      ORRS     r2,r2,r3
        0x000035f4:    9200        ..      STR      r2,[sp,#0]
        0x000035f6:    9b0d        ..      LDR      r3,[sp,#0x34]
        0x000035f8:    9a0e        ..      LDR      r2,[sp,#0x38]
        0x000035fa:    f7fcfeb9    ....    BL       __aeabi_dadd ; 0x370
        0x000035fe:    9a00        ..      LDR      r2,[sp,#0]
        0x00003600:    9101        ..      STR      r1,[sp,#4]
        0x00003602:    900c        ..      STR      r0,[sp,#0x30]
        0x00003604:    2a00        .*      CMP      r2,#0
        0x00003606:    dd4d        M.      BLE      0x36a4 ; log + 672
        0x00003608:    2200        ."      MOVS     r2,#0
        0x0000360a:    43d2        .C      MVNS     r2,r2
        0x0000360c:    4620         F      MOV      r0,r4
        0x0000360e:    4629        )F      MOV      r1,r5
        0x00003610:    f7fdf9f4    ....    BL       __ARM_scalbn ; 0x9fc
        0x00003614:    4622        "F      MOV      r2,r4
        0x00003616:    462b        +F      MOV      r3,r5
        0x00003618:    f7fcff5c    ..\.    BL       __aeabi_dmul ; 0x4d4
        0x0000361c:    9100        ..      STR      r1,[sp,#0]
        0x0000361e:    900a        ..      STR      r0,[sp,#0x28]
        0x00003620:    980b        ..      LDR      r0,[sp,#0x2c]
        0x00003622:    2800        .(      CMP      r0,#0
        0x00003624:    d02b        +.      BEQ      0x367e ; log + 634
        0x00003626:    4a42        BJ      LDR      r2,[pc,#264] ; [0x3730] = 0x35793c76
        0x00003628:    4b42        BK      LDR      r3,[pc,#264] ; [0x3734] = 0x3dea39ef
        0x0000362a:    9905        ..      LDR      r1,[sp,#0x14]
        0x0000362c:    9804        ..      LDR      r0,[sp,#0x10]
        0x0000362e:    f7fcff51    ..Q.    BL       __aeabi_dmul ; 0x4d4
        0x00003632:    9107        ..      STR      r1,[sp,#0x1c]
        0x00003634:    900e        ..      STR      r0,[sp,#0x38]
        0x00003636:    9b01        ..      LDR      r3,[sp,#4]
        0x00003638:    9a0c        ..      LDR      r2,[sp,#0x30]
        0x0000363a:    9900        ..      LDR      r1,[sp,#0]
        0x0000363c:    980a        ..      LDR      r0,[sp,#0x28]
        0x0000363e:    f7fcfe97    ....    BL       __aeabi_dadd ; 0x370
        0x00003642:    4632        2F      MOV      r2,r6
        0x00003644:    463b        ;F      MOV      r3,r7
        0x00003646:    f7fcff45    ..E.    BL       __aeabi_dmul ; 0x4d4
        0x0000364a:    9b07        ..      LDR      r3,[sp,#0x1c]
        0x0000364c:    9a0e        ..      LDR      r2,[sp,#0x38]
        0x0000364e:    f7fcfe8f    ....    BL       __aeabi_dadd ; 0x370
        0x00003652:    9b00        ..      LDR      r3,[sp,#0]
        0x00003654:    9a0a        ..      LDR      r2,[sp,#0x28]
        0x00003656:    f7fcff35    ..5.    BL       __aeabi_drsub ; 0x4c4
        0x0000365a:    4622        "F      MOV      r2,r4
        0x0000365c:    462b        +F      MOV      r3,r5
        0x0000365e:    f7fcff2b    ..+.    BL       __aeabi_dsub ; 0x4b8
        0x00003662:    4604        .F      MOV      r4,r0
        0x00003664:    460d        .F      MOV      r5,r1
        0x00003666:    4a34        4J      LDR      r2,[pc,#208] ; [0x3738] = 0xfee00000
        0x00003668:    4b34        4K      LDR      r3,[pc,#208] ; [0x373c] = 0x3fe62e42
        0x0000366a:    9905        ..      LDR      r1,[sp,#0x14]
        0x0000366c:    9804        ..      LDR      r0,[sp,#0x10]
        0x0000366e:    f7fcff31    ..1.    BL       __aeabi_dmul ; 0x4d4
        0x00003672:    4622        "F      MOV      r2,r4
        0x00003674:    462b        +F      MOV      r3,r5
        0x00003676:    f7fcff1f    ....    BL       __aeabi_dsub ; 0x4b8
        0x0000367a:    b00f        ..      ADD      sp,sp,#0x3c
        0x0000367c:    bdf0        ..      POP      {r4-r7,pc}
        0x0000367e:    9b01        ..      LDR      r3,[sp,#4]
        0x00003680:    9a0c        ..      LDR      r2,[sp,#0x30]
        0x00003682:    980a        ..      LDR      r0,[sp,#0x28]
        0x00003684:    f7fcfe74    ..t.    BL       __aeabi_dadd ; 0x370
        0x00003688:    4632        2F      MOV      r2,r6
        0x0000368a:    463b        ;F      MOV      r3,r7
        0x0000368c:    f7fcff22    ..".    BL       __aeabi_dmul ; 0x4d4
        0x00003690:    9b00        ..      LDR      r3,[sp,#0]
        0x00003692:    9a0a        ..      LDR      r2,[sp,#0x28]
        0x00003694:    f7fcff16    ....    BL       __aeabi_drsub ; 0x4c4
        0x00003698:    4622        "F      MOV      r2,r4
        0x0000369a:    462b        +F      MOV      r3,r5
        0x0000369c:    f7fcff12    ....    BL       __aeabi_drsub ; 0x4c4
        0x000036a0:    b00f        ..      ADD      sp,sp,#0x3c
        0x000036a2:    bdf0        ..      POP      {r4-r7,pc}
        0x000036a4:    980b        ..      LDR      r0,[sp,#0x2c]
        0x000036a6:    2800        .(      CMP      r0,#0
        0x000036a8:    d027        '.      BEQ      0x36fa ; log + 758
        0x000036aa:    4a21        !J      LDR      r2,[pc,#132] ; [0x3730] = 0x35793c76
        0x000036ac:    4b21        !K      LDR      r3,[pc,#132] ; [0x3734] = 0x3dea39ef
        0x000036ae:    9905        ..      LDR      r1,[sp,#0x14]
        0x000036b0:    9804        ..      LDR      r0,[sp,#0x10]
        0x000036b2:    f7fcff0f    ....    BL       __aeabi_dmul ; 0x4d4
        0x000036b6:    9107        ..      STR      r1,[sp,#0x1c]
        0x000036b8:    9000        ..      STR      r0,[sp,#0]
        0x000036ba:    4620         F      MOV      r0,r4
        0x000036bc:    4629        )F      MOV      r1,r5
        0x000036be:    9b01        ..      LDR      r3,[sp,#4]
        0x000036c0:    9a0c        ..      LDR      r2,[sp,#0x30]
        0x000036c2:    f7fcfef9    ....    BL       __aeabi_dsub ; 0x4b8
        0x000036c6:    4632        2F      MOV      r2,r6
        0x000036c8:    463b        ;F      MOV      r3,r7
        0x000036ca:    f7fcff03    ....    BL       __aeabi_dmul ; 0x4d4
        0x000036ce:    9b07        ..      LDR      r3,[sp,#0x1c]
        0x000036d0:    9a00        ..      LDR      r2,[sp,#0]
        0x000036d2:    f7fcfef1    ....    BL       __aeabi_dsub ; 0x4b8
        0x000036d6:    4622        "F      MOV      r2,r4
        0x000036d8:    462b        +F      MOV      r3,r5
        0x000036da:    f7fcfeed    ....    BL       __aeabi_dsub ; 0x4b8
        0x000036de:    4604        .F      MOV      r4,r0
        0x000036e0:    460d        .F      MOV      r5,r1
        0x000036e2:    4a15        .J      LDR      r2,[pc,#84] ; [0x3738] = 0xfee00000
        0x000036e4:    4b15        .K      LDR      r3,[pc,#84] ; [0x373c] = 0x3fe62e42
        0x000036e6:    9905        ..      LDR      r1,[sp,#0x14]
        0x000036e8:    9804        ..      LDR      r0,[sp,#0x10]
        0x000036ea:    f7fcfef3    ....    BL       __aeabi_dmul ; 0x4d4
        0x000036ee:    4622        "F      MOV      r2,r4
        0x000036f0:    462b        +F      MOV      r3,r5
        0x000036f2:    f7fcfee1    ....    BL       __aeabi_dsub ; 0x4b8
        0x000036f6:    b00f        ..      ADD      sp,sp,#0x3c
        0x000036f8:    bdf0        ..      POP      {r4-r7,pc}
        0x000036fa:    460b        .F      MOV      r3,r1
        0x000036fc:    4620         F      MOV      r0,r4
        0x000036fe:    4629        )F      MOV      r1,r5
        0x00003700:    9a0c        ..      LDR      r2,[sp,#0x30]
        0x00003702:    f7fcfed9    ....    BL       __aeabi_dsub ; 0x4b8
        0x00003706:    4632        2F      MOV      r2,r6
        0x00003708:    463b        ;F      MOV      r3,r7
        0x0000370a:    f7fcfee3    ....    BL       __aeabi_dmul ; 0x4d4
        0x0000370e:    4622        "F      MOV      r2,r4
        0x00003710:    462b        +F      MOV      r3,r5
        0x00003712:    f7fcfed7    ....    BL       __aeabi_drsub ; 0x4c4
        0x00003716:    b00f        ..      ADD      sp,sp,#0x3c
        0x00003718:    bdf0        ..      POP      {r4-r7,pc}
    $d
        0x0000371a:    0000        ..      DCW    0
        0x0000371c:    7ff00000    ....    DCD    2146435072
        0x00003720:    fffffc01    ....    DCD    4294966273
        0x00003724:    00095f64    d_..    DCD    614244
        0x00003728:    3ff00000    ...?    DCD    1072693248
        0x0000372c:    0000420c    .B..    DCD    16908
        0x00003730:    35793c76    v<y5    DCD    897137782
        0x00003734:    3dea39ef    .9.=    DCD    1038760431
        0x00003738:    fee00000    ....    DCD    4276092928
        0x0000373c:    3fe62e42    B..?    DCD    1072049730
        0x00003740:    55555555    UUUU    DCD    1431655765
        0x00003744:    3fd55555    UU.?    DCD    1070945621
        0x00003748:    3fe00000    ...?    DCD    1071644672
        0x0000374c:    fff9eb86    ....    DCD    4294568838
        0x00003750:    0006b851    Q...    DCD    440401
        0x00003754:    00004028    (@..    DCD    16424
    $t
    i.main
    main
        0x00003758:    4809        .H      LDR      r0,[pc,#36] ; [0x3780] = 0x50000100
        0x0000375a:    6800        .h      LDR      r0,[r0,#0]
        0x0000375c:    2801        .(      CMP      r0,#1
        0x0000375e:    d101        ..      BNE      0x3764 ; main + 12
        0x00003760:    f7fefb54    ..T.    BL       SYS_LockReg ; 0x1e0c
        0x00003764:    f7fefb1c    ....    BL       SYS_Init ; 0x1da0
        0x00003768:    2003        .       MOVS     r0,#3
        0x0000376a:    f7fdfb3b    ..;.    BL       CLK_EnableLDO ; 0xde4
        0x0000376e:    f7fefcb1    ....    BL       UART_Init ; 0x20d4
        0x00003772:    2003        .       MOVS     r0,#3
        0x00003774:    f7fdfb36    ..6.    BL       CLK_EnableLDO ; 0xde4
        0x00003778:    f7fdfca8    ....    BL       Init_InKey ; 0x10cc
        0x0000377c:    bf00        ..      NOP      
        0x0000377e:    e7fe        ..      B        0x377e ; main + 38
    $d
        0x00003780:    50000100    ...P    DCD    1342177536
    $t
    i.mfcc
    mfcc
        0x00003784:    b5f1        ..      PUSH     {r0,r4-r7,lr}
        0x00003786:    b0b0        ..      SUB      sp,sp,#0xc0
        0x00003788:    2700        .'      MOVS     r7,#0
        0x0000378a:    2000        .       MOVS     r0,#0
        0x0000378c:    902d        -.      STR      r0,[sp,#0xb4]
        0x0000378e:    9008        ..      STR      r0,[sp,#0x20]
        0x00003790:    488d        .H      LDR      r0,[pc,#564] ; [0x39c8] = 0x200003e8
        0x00003792:    2100        .!      MOVS     r1,#0
        0x00003794:    6001        .`      STR      r1,[r0,#0]
        0x00003796:    6041        A`      STR      r1,[r0,#4]
        0x00003798:    6081        .`      STR      r1,[r0,#8]
        0x0000379a:    60c1        .`      STR      r1,[r0,#0xc]
        0x0000379c:    498a        .I      LDR      r1,[pc,#552] ; [0x39c8] = 0x200003e8
        0x0000379e:    9830        0.      LDR      r0,[sp,#0xc0]
        0x000037a0:    6008        .`      STR      r0,[r1,#0]
        0x000037a2:    2000        .       MOVS     r0,#0
        0x000037a4:    6048        H`      STR      r0,[r1,#4]
        0x000037a6:    4608        .F      MOV      r0,r1
        0x000037a8:    6800        .h      LDR      r0,[r0,#0]
        0x000037aa:    2806        .(      CMP      r0,#6
        0x000037ac:    d10a        ..      BNE      0x37c4 ; mfcc + 64
        0x000037ae:    2089        .       MOVS     r0,#0x89
        0x000037b0:    0280        ..      LSLS     r0,r0,#10
        0x000037b2:    6088        .`      STR      r0,[r1,#8]
        0x000037b4:    4608        .F      MOV      r0,r1
        0x000037b6:    6880        .h      LDR      r0,[r0,#8]
        0x000037b8:    2101        .!      MOVS     r1,#1
        0x000037ba:    0309        ..      LSLS     r1,r1,#12
        0x000037bc:    1840        @.      ADDS     r0,r0,r1
        0x000037be:    4982        .I      LDR      r1,[pc,#520] ; [0x39c8] = 0x200003e8
        0x000037c0:    60c8        .`      STR      r0,[r1,#0xc]
        0x000037c2:    e00e        ..      B        0x37e2 ; mfcc + 94
        0x000037c4:    4880        .H      LDR      r0,[pc,#512] ; [0x39c8] = 0x200003e8
        0x000037c6:    6800        .h      LDR      r0,[r0,#0]
        0x000037c8:    0300        ..      LSLS     r0,r0,#12
        0x000037ca:    2171        q!      MOVS     r1,#0x71
        0x000037cc:    0289        ..      LSLS     r1,r1,#10
        0x000037ce:    1840        @.      ADDS     r0,r0,r1
        0x000037d0:    497d        }I      LDR      r1,[pc,#500] ; [0x39c8] = 0x200003e8
        0x000037d2:    6088        .`      STR      r0,[r1,#8]
        0x000037d4:    4608        .F      MOV      r0,r1
        0x000037d6:    6880        .h      LDR      r0,[r0,#8]
        0x000037d8:    2101        .!      MOVS     r1,#1
        0x000037da:    0309        ..      LSLS     r1,r1,#12
        0x000037dc:    1840        @.      ADDS     r0,r0,r1
        0x000037de:    497a        zI      LDR      r1,[pc,#488] ; [0x39c8] = 0x200003e8
        0x000037e0:    60c8        .`      STR      r0,[r1,#0xc]
        0x000037e2:    4879        yH      LDR      r0,[pc,#484] ; [0x39c8] = 0x200003e8
        0x000037e4:    6880        .h      LDR      r0,[r0,#8]
        0x000037e6:    4606        .F      MOV      r6,r0
        0x000037e8:    3608        .6      ADDS     r6,r6,#8
        0x000037ea:    4a77        wJ      LDR      r2,[pc,#476] ; [0x39c8] = 0x200003e8
        0x000037ec:    68d1        .h      LDR      r1,[r2,#0xc]
        0x000037ee:    6890        .h      LDR      r0,[r2,#8]
        0x000037f0:    f7fdfc18    ....    BL       Flash_Erase ; 0x1024
        0x000037f4:    4875        uH      LDR      r0,[pc,#468] ; [0x39cc] = 0x20000120
        0x000037f6:    6800        .h      LDR      r0,[r0,#0]
        0x000037f8:    4605        .F      MOV      r5,r0
        0x000037fa:    35ff        .5      ADDS     r5,r5,#0xff
        0x000037fc:    35e1        .5      ADDS     r5,r5,#0xe1
        0x000037fe:    e09d        ..      B        0x393c ; mfcc + 440
        0x00003800:    21ff        .!      MOVS     r1,#0xff
        0x00003802:    31e1        .1      ADDS     r1,r1,#0xe1
        0x00003804:    4872        rH      LDR      r0,[pc,#456] ; [0x39d0] = 0x200001f0
        0x00003806:    f7fcfcd4    ....    BL       __aeabi_memclr ; 0x1b2
        0x0000380a:    2400        .$      MOVS     r4,#0
        0x0000380c:    e00f        ..      B        0x382e ; mfcc + 170
        0x0000380e:    2078        x       MOVS     r0,#0x78
        0x00003810:    1b00        ..      SUBS     r0,r0,r4
        0x00003812:    0080        ..      LSLS     r0,r0,#2
        0x00003814:    1a28        (.      SUBS     r0,r5,r0
        0x00003816:    902f        /.      STR      r0,[sp,#0xbc]
        0x00003818:    982f        /.      LDR      r0,[sp,#0xbc]
        0x0000381a:    f7fdfc11    ....    BL       Flash_Read ; 0x1040
        0x0000381e:    9007        ..      STR      r0,[sp,#0x1c]
        0x00003820:    f7fcfec0    ....    BL       __aeabi_i2f ; 0x5a4
        0x00003824:    00a1        ..      LSLS     r1,r4,#2
        0x00003826:    4a6a        jJ      LDR      r2,[pc,#424] ; [0x39d0] = 0x200001f0
        0x00003828:    5050        PP      STR      r0,[r2,r1]
        0x0000382a:    1c60        `.      ADDS     r0,r4,#1
        0x0000382c:    b204        ..      SXTH     r4,r0
        0x0000382e:    2c78        x,      CMP      r4,#0x78
        0x00003830:    dbed        ..      BLT      0x380e ; mfcc + 138
        0x00003832:    4867        gH      LDR      r0,[pc,#412] ; [0x39d0] = 0x200001f0
        0x00003834:    f7fff9ce    ....    BL       add_hamm ; 0x2bd4
        0x00003838:    4f66        fO      LDR      r7,[pc,#408] ; [0x39d4] = 0x20001000
        0x0000383a:    1439        9.      ASRS     r1,r7,#16
        0x0000383c:    4638        8F      MOV      r0,r7
        0x0000383e:    f7fcfcb8    ....    BL       __aeabi_memclr ; 0x1b2
        0x00003842:    14fa        ..      ASRS     r2,r7,#19
        0x00003844:    4962        bI      LDR      r1,[pc,#392] ; [0x39d0] = 0x200001f0
        0x00003846:    4638        8F      MOV      r0,r7
        0x00003848:    f7fffaa0    ....    BL       calc_fft ; 0x2d8c
        0x0000384c:    4862        bH      LDR      r0,[pc,#392] ; [0x39d8] = 0x20002000
        0x0000384e:    902d        -.      STR      r0,[sp,#0xb4]
        0x00003850:    1481        ..      ASRS     r1,r0,#18
        0x00003852:    982d        -.      LDR      r0,[sp,#0xb4]
        0x00003854:    f7fcfcad    ....    BL       __aeabi_memclr ; 0x1b2
        0x00003858:    2400        .$      MOVS     r4,#0
        0x0000385a:    e037        7.      B        0x38cc ; mfcc + 328
        0x0000385c:    00e1        ..      LSLS     r1,r4,#3
        0x0000385e:    19c9        ..      ADDS     r1,r1,r7
        0x00003860:    6848        Hh      LDR      r0,[r1,#4]
        0x00003862:    f7fcff0b    ....    BL       __aeabi_f2d ; 0x67c
        0x00003866:    2200        ."      MOVS     r2,#0
        0x00003868:    2301        .#      MOVS     r3,#1
        0x0000386a:    079b        ..      LSLS     r3,r3,#30
        0x0000386c:    9101        ..      STR      r1,[sp,#4]
        0x0000386e:    9000        ..      STR      r0,[sp,#0]
        0x00003870:    f000f926    ..&.    BL       pow ; 0x3ac0
        0x00003874:    9105        ..      STR      r1,[sp,#0x14]
        0x00003876:    9004        ..      STR      r0,[sp,#0x10]
        0x00003878:    00e1        ..      LSLS     r1,r4,#3
        0x0000387a:    5878        xX      LDR      r0,[r7,r1]
        0x0000387c:    f7fcfefe    ....    BL       __aeabi_f2d ; 0x67c
        0x00003880:    2200        ."      MOVS     r2,#0
        0x00003882:    2301        .#      MOVS     r3,#1
        0x00003884:    079b        ..      LSLS     r3,r3,#30
        0x00003886:    9101        ..      STR      r1,[sp,#4]
        0x00003888:    9000        ..      STR      r0,[sp,#0]
        0x0000388a:    f000f919    ....    BL       pow ; 0x3ac0
        0x0000388e:    9103        ..      STR      r1,[sp,#0xc]
        0x00003890:    9002        ..      STR      r0,[sp,#8]
        0x00003892:    9b05        ..      LDR      r3,[sp,#0x14]
        0x00003894:    9a04        ..      LDR      r2,[sp,#0x10]
        0x00003896:    f7fcfd6b    ..k.    BL       __aeabi_dadd ; 0x370
        0x0000389a:    9107        ..      STR      r1,[sp,#0x1c]
        0x0000389c:    9006        ..      STR      r0,[sp,#0x18]
        0x0000389e:    f7fcff01    ....    BL       __aeabi_d2f ; 0x6a4
        0x000038a2:    902e        ..      STR      r0,[sp,#0xb8]
        0x000038a4:    982e        ..      LDR      r0,[sp,#0xb8]
        0x000038a6:    f7fcfee9    ....    BL       __aeabi_f2d ; 0x67c
        0x000038aa:    9105        ..      STR      r1,[sp,#0x14]
        0x000038ac:    9004        ..      STR      r0,[sp,#0x10]
        0x000038ae:    f000fe6f    ..o.    BL       sqrt ; 0x4590
        0x000038b2:    9107        ..      STR      r1,[sp,#0x1c]
        0x000038b4:    9006        ..      STR      r0,[sp,#0x18]
        0x000038b6:    f7fcfef5    ....    BL       __aeabi_d2f ; 0x6a4
        0x000038ba:    00a2        ..      LSLS     r2,r4,#2
        0x000038bc:    992d        -.      LDR      r1,[sp,#0xb4]
        0x000038be:    5088        .P      STR      r0,[r1,r2]
        0x000038c0:    00a2        ..      LSLS     r2,r4,#2
        0x000038c2:    992d        -.      LDR      r1,[sp,#0xb4]
        0x000038c4:    982e        ..      LDR      r0,[sp,#0xb8]
        0x000038c6:    5088        .P      STR      r0,[r1,r2]
        0x000038c8:    1c60        `.      ADDS     r0,r4,#1
        0x000038ca:    b204        ..      SXTH     r4,r0
        0x000038cc:    2001        .       MOVS     r0,#1
        0x000038ce:    0240        @.      LSLS     r0,r0,#9
        0x000038d0:    4284        .B      CMP      r4,r0
        0x000038d2:    dbc3        ..      BLT      0x385c ; mfcc + 216
        0x000038d4:    2700        .'      MOVS     r7,#0
        0x000038d6:    2160        `!      MOVS     r1,#0x60
        0x000038d8:    a815        ..      ADD      r0,sp,#0x54
        0x000038da:    f7fcfc6a    ..j.    BL       __aeabi_memclr ; 0x1b2
        0x000038de:    aa15        ..      ADD      r2,sp,#0x54
        0x000038e0:    493e        >I      LDR      r1,[pc,#248] ; [0x39dc] = 0x5144
        0x000038e2:    982d        -.      LDR      r0,[sp,#0xb4]
        0x000038e4:    f7fff9a8    ....    BL       add_trig ; 0x2c38
        0x000038e8:    2000        .       MOVS     r0,#0
        0x000038ea:    902d        -.      STR      r0,[sp,#0xb4]
        0x000038ec:    a815        ..      ADD      r0,sp,#0x54
        0x000038ee:    f7fffd70    ..p.    BL       get_loge ; 0x33d2
        0x000038f2:    2130        0!      MOVS     r1,#0x30
        0x000038f4:    a809        ..      ADD      r0,sp,#0x24
        0x000038f6:    f7fcfc5c    ..\.    BL       __aeabi_memclr ; 0x1b2
        0x000038fa:    a909        ..      ADD      r1,sp,#0x24
        0x000038fc:    a815        ..      ADD      r0,sp,#0x54
        0x000038fe:    f7fffbd1    ....    BL       get_coef ; 0x30a4
        0x00003902:    35f0        .5      ADDS     r5,r5,#0xf0
        0x00003904:    4830        0H      LDR      r0,[pc,#192] ; [0x39c8] = 0x200003e8
        0x00003906:    6840        @h      LDR      r0,[r0,#4]
        0x00003908:    1c40        @.      ADDS     r0,r0,#1
        0x0000390a:    492f        /I      LDR      r1,[pc,#188] ; [0x39c8] = 0x200003e8
        0x0000390c:    6048        H`      STR      r0,[r1,#4]
        0x0000390e:    2400        .$      MOVS     r4,#0
        0x00003910:    e011        ..      B        0x3936 ; mfcc + 434
        0x00003912:    1d36        6.      ADDS     r6,r6,#4
        0x00003914:    482c        ,H      LDR      r0,[pc,#176] ; [0x39c8] = 0x200003e8
        0x00003916:    68c0        .h      LDR      r0,[r0,#0xc]
        0x00003918:    42b0        .B      CMP      r0,r6
        0x0000391a:    d906        ..      BLS      0x392a ; mfcc + 422
        0x0000391c:    00a0        ..      LSLS     r0,r4,#2
        0x0000391e:    aa09        ..      ADD      r2,sp,#0x24
        0x00003920:    5811        .X      LDR      r1,[r2,r0]
        0x00003922:    4630        0F      MOV      r0,r6
        0x00003924:    f7fdfbb3    ....    BL       Flash_Write4B ; 0x108e
        0x00003928:    e003        ..      B        0x3932 ; mfcc + 430
        0x0000392a:    2000        .       MOVS     r0,#0
        0x0000392c:    43c0        .C      MVNS     r0,r0
        0x0000392e:    9008        ..      STR      r0,[sp,#0x20]
        0x00003930:    e003        ..      B        0x393a ; mfcc + 438
        0x00003932:    1c60        `.      ADDS     r0,r4,#1
        0x00003934:    b204        ..      SXTH     r4,r0
        0x00003936:    2c0c        .,      CMP      r4,#0xc
        0x00003938:    dbeb        ..      BLT      0x3912 ; mfcc + 398
        0x0000393a:    bf00        ..      NOP      
        0x0000393c:    4823        #H      LDR      r0,[pc,#140] ; [0x39cc] = 0x20000120
        0x0000393e:    6840        @h      LDR      r0,[r0,#4]
        0x00003940:    42a8        .B      CMP      r0,r5
        0x00003942:    d900        ..      BLS      0x3946 ; mfcc + 450
        0x00003944:    e75c        \.      B        0x3800 ; mfcc + 124
        0x00003946:    9808        ..      LDR      r0,[sp,#0x20]
        0x00003948:    2800        .(      CMP      r0,#0
        0x0000394a:    da1a        ..      BGE      0x3982 ; mfcc + 510
        0x0000394c:    4a1e        .J      LDR      r2,[pc,#120] ; [0x39c8] = 0x200003e8
        0x0000394e:    68d1        .h      LDR      r1,[r2,#0xc]
        0x00003950:    6890        .h      LDR      r0,[r2,#8]
        0x00003952:    f7fdfb67    ..g.    BL       Flash_Erase ; 0x1024
        0x00003956:    481c        .H      LDR      r0,[pc,#112] ; [0x39c8] = 0x200003e8
        0x00003958:    6801        .h      LDR      r1,[r0,#0]
        0x0000395a:    a021        !.      ADR      r0,{pc}+0x86 ; 0x39e0
        0x0000395c:    f7fefc02    ....    BL       __0printf ; 0x2164
        0x00003960:    4819        .H      LDR      r0,[pc,#100] ; [0x39c8] = 0x200003e8
        0x00003962:    6842        Bh      LDR      r2,[r0,#4]
        0x00003964:    6801        .h      LDR      r1,[r0,#0]
        0x00003966:    a026        &.      ADR      r0,{pc}+0x9a ; 0x3a00
        0x00003968:    f7fefbfc    ....    BL       __0printf ; 0x2164
        0x0000396c:    4816        .H      LDR      r0,[pc,#88] ; [0x39c8] = 0x200003e8
        0x0000396e:    6840        @h      LDR      r0,[r0,#4]
        0x00003970:    230c        .#      MOVS     r3,#0xc
        0x00003972:    4358        XC      MULS     r0,r3,r0
        0x00003974:    0082        ..      LSLS     r2,r0,#2
        0x00003976:    4814        .H      LDR      r0,[pc,#80] ; [0x39c8] = 0x200003e8
        0x00003978:    6801        .h      LDR      r1,[r0,#0]
        0x0000397a:    a029        ).      ADR      r0,{pc}+0xa6 ; 0x3a20
        0x0000397c:    f7fefbf2    ....    BL       __0printf ; 0x2164
        0x00003980:    e01f        ..      B        0x39c2 ; mfcc + 574
        0x00003982:    4a11        .J      LDR      r2,[pc,#68] ; [0x39c8] = 0x200003e8
        0x00003984:    6811        .h      LDR      r1,[r2,#0]
        0x00003986:    6890        .h      LDR      r0,[r2,#8]
        0x00003988:    f7fdfb81    ....    BL       Flash_Write4B ; 0x108e
        0x0000398c:    4a0e        .J      LDR      r2,[pc,#56] ; [0x39c8] = 0x200003e8
        0x0000398e:    6851        Qh      LDR      r1,[r2,#4]
        0x00003990:    6892        .h      LDR      r2,[r2,#8]
        0x00003992:    1d10        ..      ADDS     r0,r2,#4
        0x00003994:    f7fdfb7b    ..{.    BL       Flash_Write4B ; 0x108e
        0x00003998:    480b        .H      LDR      r0,[pc,#44] ; [0x39c8] = 0x200003e8
        0x0000399a:    6801        .h      LDR      r1,[r0,#0]
        0x0000399c:    a028        (.      ADR      r0,{pc}+0xa4 ; 0x3a40
        0x0000399e:    f7fefbe1    ....    BL       __0printf ; 0x2164
        0x000039a2:    4809        .H      LDR      r0,[pc,#36] ; [0x39c8] = 0x200003e8
        0x000039a4:    6842        Bh      LDR      r2,[r0,#4]
        0x000039a6:    6801        .h      LDR      r1,[r0,#0]
        0x000039a8:    a015        ..      ADR      r0,{pc}+0x58 ; 0x3a00
        0x000039aa:    f7fefbdb    ....    BL       __0printf ; 0x2164
        0x000039ae:    4806        .H      LDR      r0,[pc,#24] ; [0x39c8] = 0x200003e8
        0x000039b0:    6840        @h      LDR      r0,[r0,#4]
        0x000039b2:    230c        .#      MOVS     r3,#0xc
        0x000039b4:    4358        XC      MULS     r0,r3,r0
        0x000039b6:    0082        ..      LSLS     r2,r0,#2
        0x000039b8:    4803        .H      LDR      r0,[pc,#12] ; [0x39c8] = 0x200003e8
        0x000039ba:    6801        .h      LDR      r1,[r0,#0]
        0x000039bc:    a018        ..      ADR      r0,{pc}+0x64 ; 0x3a20
        0x000039be:    f7fefbd1    ....    BL       __0printf ; 0x2164
        0x000039c2:    9808        ..      LDR      r0,[sp,#0x20]
        0x000039c4:    b031        1.      ADD      sp,sp,#0xc4
        0x000039c6:    bdf0        ..      POP      {r4-r7,pc}
    $d
        0x000039c8:    200003e8    ...     DCD    536871912
        0x000039cc:    20000120     ..     DCD    536871200
        0x000039d0:    200001f0    ...     DCD    536871408
        0x000039d4:    20001000    ...     DCD    536875008
        0x000039d8:    20002000    . .     DCD    536879104
        0x000039dc:    00005144    DQ..    DCD    20804
        0x000039e0:    5b646d43    Cmd[    DCD    1533308227
        0x000039e4:    205d6425    %d]     DCD    542991397
        0x000039e8:    6363666d    mfcc    DCD    1667458669
        0x000039ec:    6f747320     sto    DCD    1869902624
        0x000039f0:    65676172    rage    DCD    1701273970
        0x000039f4:    65766f20     ove    DCD    1702260512
        0x000039f8:    6f6c6672    rflo    DCD    1869375090
        0x000039fc:    00000a77    w...    DCD    2679
        0x00003a00:    5b646d43    Cmd[    DCD    1533308227
        0x00003a04:    205d6425    %d]     DCD    542991397
        0x00003a08:    6363666d    mfcc    DCD    1667458669
        0x00003a0c:    6f747320     sto    DCD    1869902624
        0x00003a10:    65676172    rage    DCD    1701273970
        0x00003a14:    61726620     fra    DCD    1634887200
        0x00003a18:    2073656d    mes     DCD    544433517
        0x00003a1c:    000a6425    %d..    DCD    680997
        0x00003a20:    5b646d43    Cmd[    DCD    1533308227
        0x00003a24:    205d6425    %d]     DCD    542991397
        0x00003a28:    6363666d    mfcc    DCD    1667458669
        0x00003a2c:    6f747320     sto    DCD    1869902624
        0x00003a30:    65676172    rage    DCD    1701273970
        0x00003a34:    65656e20     nee    DCD    1701146144
        0x00003a38:    64252064    d %d    DCD    1680154724
        0x00003a3c:    000a4220     B..    DCD    672288
        0x00003a40:    5b646d43    Cmd[    DCD    1533308227
        0x00003a44:    205d6425    %d]     DCD    542991397
        0x00003a48:    6363666d    mfcc    DCD    1667458669
        0x00003a4c:    6f727020     pro    DCD    1869770784
        0x00003a50:    73736563    cess    DCD    1936942435
        0x00003a54:    43555320     SUC    DCD    1129665312
        0x00003a58:    53534543    CESS    DCD    1397966147
        0x00003a5c:    0000000a    ....    DCD    10
    $t
    i.mul
    mul
        0x00003a60:    b40f        ..      PUSH     {r0-r3}
        0x00003a62:    b57c        |.      PUSH     {r2-r6,lr}
        0x00003a64:    4604        .F      MOV      r4,r0
        0x00003a66:    990a        ..      LDR      r1,[sp,#0x28]
        0x00003a68:    9808        ..      LDR      r0,[sp,#0x20]
        0x00003a6a:    f7fcfc06    ....    BL       __aeabi_fmul ; 0x27a
        0x00003a6e:    4605        .F      MOV      r5,r0
        0x00003a70:    9909        ..      LDR      r1,[sp,#0x24]
        0x00003a72:    9807        ..      LDR      r0,[sp,#0x1c]
        0x00003a74:    f7fcfc01    ....    BL       __aeabi_fmul ; 0x27a
        0x00003a78:    4606        .F      MOV      r6,r0
        0x00003a7a:    4629        )F      MOV      r1,r5
        0x00003a7c:    f7fcfbf5    ....    BL       __aeabi_fsub ; 0x26a
        0x00003a80:    9000        ..      STR      r0,[sp,#0]
        0x00003a82:    990a        ..      LDR      r1,[sp,#0x28]
        0x00003a84:    9807        ..      LDR      r0,[sp,#0x1c]
        0x00003a86:    f7fcfbf8    ....    BL       __aeabi_fmul ; 0x27a
        0x00003a8a:    4605        .F      MOV      r5,r0
        0x00003a8c:    9909        ..      LDR      r1,[sp,#0x24]
        0x00003a8e:    9808        ..      LDR      r0,[sp,#0x20]
        0x00003a90:    f7fcfbf3    ....    BL       __aeabi_fmul ; 0x27a
        0x00003a94:    4606        .F      MOV      r6,r0
        0x00003a96:    4629        )F      MOV      r1,r5
        0x00003a98:    f7fcfb96    ....    BL       __aeabi_fadd ; 0x1c8
        0x00003a9c:    9001        ..      STR      r0,[sp,#4]
        0x00003a9e:    9901        ..      LDR      r1,[sp,#4]
        0x00003aa0:    9800        ..      LDR      r0,[sp,#0]
        0x00003aa2:    6061        a`      STR      r1,[r4,#4]
        0x00003aa4:    6020         `      STR      r0,[r4,#0]
        0x00003aa6:    bc7c        |.      POP      {r2-r6}
        0x00003aa8:    bc08        ..      POP      {r3}
        0x00003aaa:    b004        ..      ADD      sp,sp,#0x10
        0x00003aac:    4718        .G      BX       r3
    i.open_Flash
    open_Flash
        0x00003aae:    b510        ..      PUSH     {r4,lr}
        0x00003ab0:    f7fef9e2    ....    BL       SYS_UnlockReg ; 0x1e78
        0x00003ab4:    f7fdfa86    ....    BL       FMC_Open ; 0xfc4
        0x00003ab8:    f7fdfa56    ..V.    BL       FMC_EnableLDUpdate ; 0xf68
        0x00003abc:    bd10        ..      POP      {r4,pc}
        0x00003abe:    0000        ..      MOVS     r0,r0
    i.pow
    pow
        0x00003ac0:    b5f0        ..      PUSH     {r4-r7,lr}
        0x00003ac2:    b41f        ..      PUSH     {r0-r4}
        0x00003ac4:    b094        ..      SUB      sp,sp,#0x50
        0x00003ac6:    4684        .F      MOV      r12,r0
        0x00003ac8:    460c        .F      MOV      r4,r1
        0x00003aca:    4602        .F      MOV      r2,r0
        0x00003acc:    9f17        ..      LDR      r7,[sp,#0x5c]
        0x00003ace:    9816        ..      LDR      r0,[sp,#0x58]
        0x00003ad0:    9002        ..      STR      r0,[sp,#8]
        0x00003ad2:    0049        I.      LSLS     r1,r1,#1
        0x00003ad4:    0078        x.      LSLS     r0,r7,#1
        0x00003ad6:    0063        c.      LSLS     r3,r4,#1
        0x00003ad8:    0849        I.      LSRS     r1,r1,#1
        0x00003ada:    0840        @.      LSRS     r0,r0,#1
        0x00003adc:    9304        ..      STR      r3,[sp,#0x10]
        0x00003ade:    2a00        .*      CMP      r2,#0
        0x00003ae0:    d001        ..      BEQ      0x3ae6 ; pow + 38
        0x00003ae2:    2501        .%      MOVS     r5,#1
        0x00003ae4:    e000        ..      B        0x3ae8 ; pow + 40
        0x00003ae6:    2500        .%      MOVS     r5,#0
        0x00003ae8:    4afe        .J      LDR      r2,[pc,#1016] ; [0x3ee4] = 0x1fffff
        0x00003aea:    195d        ].      ADDS     r5,r3,r5
        0x00003aec:    18ad        ..      ADDS     r5,r5,r2
        0x00003aee:    1053        S.      ASRS     r3,r2,#1
        0x00003af0:    429d        .B      CMP      r5,r3
        0x00003af2:    d32c        ,.      BCC      0x3b4e ; pow + 142
        0x00003af4:    007d        }.      LSLS     r5,r7,#1
        0x00003af6:    9e02        ..      LDR      r6,[sp,#8]
        0x00003af8:    9501        ..      STR      r5,[sp,#4]
        0x00003afa:    2e00        ..      CMP      r6,#0
        0x00003afc:    d000        ..      BEQ      0x3b00 ; pow + 64
        0x00003afe:    2601        .&      MOVS     r6,#1
        0x00003b00:    19ae        ..      ADDS     r6,r5,r6
        0x00003b02:    4bf9        .K      LDR      r3,[pc,#996] ; [0x3ee8] = 0xfffff
        0x00003b04:    18b5        ..      ADDS     r5,r6,r2
        0x00003b06:    429d        .B      CMP      r5,r3
        0x00003b08:    d321        !.      BCC      0x3b4e ; pow + 142
        0x00003b0a:    9b02        ..      LDR      r3,[sp,#8]
        0x00003b0c:    4602        .F      MOV      r2,r0
        0x00003b0e:    4df7        .M      LDR      r5,[pc,#988] ; [0x3eec] = 0x3ff00000
        0x00003b10:    431a        .C      ORRS     r2,r2,r3
        0x00003b12:    d00b        ..      BEQ      0x3b2c ; pow + 108
        0x00003b14:    462a        *F      MOV      r2,r5
        0x00003b16:    4294        .B      CMP      r4,r2
        0x00003b18:    d102        ..      BNE      0x3b20 ; pow + 96
        0x00003b1a:    4662        bF      MOV      r2,r12
        0x00003b1c:    2a00        .*      CMP      r2,#0
        0x00003b1e:    d005        ..      BEQ      0x3b2c ; pow + 108
        0x00003b20:    4662        bF      MOV      r2,r12
        0x00003b22:    9b04        ..      LDR      r3,[sp,#0x10]
        0x00003b24:    2a00        .*      CMP      r2,#0
        0x00003b26:    d005        ..      BEQ      0x3b34 ; pow + 116
        0x00003b28:    2501        .%      MOVS     r5,#1
        0x00003b2a:    e004        ..      B        0x3b36 ; pow + 118
        0x00003b2c:    2000        .       MOVS     r0,#0
        0x00003b2e:    4629        )F      MOV      r1,r5
        0x00003b30:    b019        ..      ADD      sp,sp,#0x64
        0x00003b32:    bdf0        ..      POP      {r4-r7,pc}
        0x00003b34:    2500        .%      MOVS     r5,#0
        0x00003b36:    195d        ].      ADDS     r5,r3,r5
        0x00003b38:    4bed        .K      LDR      r3,[pc,#948] ; [0x3ef0] = 0xffe00000
        0x00003b3a:    429d        .B      CMP      r5,r3
        0x00003b3c:    d807        ..      BHI      0x3b4e ; pow + 142
        0x00003b3e:    9e02        ..      LDR      r6,[sp,#8]
        0x00003b40:    9d01        ..      LDR      r5,[sp,#4]
        0x00003b42:    2e00        ..      CMP      r6,#0
        0x00003b44:    d000        ..      BEQ      0x3b48 ; pow + 136
        0x00003b46:    2601        .&      MOVS     r6,#1
        0x00003b48:    19ad        ..      ADDS     r5,r5,r6
        0x00003b4a:    429d        .B      CMP      r5,r3
        0x00003b4c:    d907        ..      BLS      0x3b5e ; pow + 158
        0x00003b4e:    463b        ;F      MOV      r3,r7
        0x00003b50:    4660        `F      MOV      r0,r12
        0x00003b52:    4621        !F      MOV      r1,r4
        0x00003b54:    9a16        ..      LDR      r2,[sp,#0x58]
        0x00003b56:    f7fefba8    ....    BL       __mathlib_dbl_infnan2 ; 0x22aa
        0x00003b5a:    b019        ..      ADD      sp,sp,#0x64
        0x00003b5c:    bdf0        ..      POP      {r4-r7,pc}
        0x00003b5e:    2500        .%      MOVS     r5,#0
        0x00003b60:    2c00        .,      CMP      r4,#0
        0x00003b62:    da28        (.      BGE      0x3bb6 ; pow + 246
        0x00003b64:    4be3        .K      LDR      r3,[pc,#908] ; [0x3ef4] = 0x7ff00000
        0x00003b66:    4298        .B      CMP      r0,r3
        0x00003b68:    da25        %.      BGE      0x3bb6 ; pow + 246
        0x00003b6a:    4be3        .K      LDR      r3,[pc,#908] ; [0x3ef8] = 0x43400000
        0x00003b6c:    4298        .B      CMP      r0,r3
        0x00003b6e:    db01        ..      BLT      0x3b74 ; pow + 180
        0x00003b70:    2502        .%      MOVS     r5,#2
        0x00003b72:    e020         .      B        0x3bb6 ; pow + 246
        0x00003b74:    4bdd        .K      LDR      r3,[pc,#884] ; [0x3eec] = 0x3ff00000
        0x00003b76:    4298        .B      CMP      r0,r3
        0x00003b78:    db1d        ..      BLT      0x3bb6 ; pow + 246
        0x00003b7a:    4be0        .K      LDR      r3,[pc,#896] ; [0x3efc] = 0xfffffc01
        0x00003b7c:    0d06        ..      LSRS     r6,r0,#20
        0x00003b7e:    18f3        ..      ADDS     r3,r6,r3
        0x00003b80:    2b14        .+      CMP      r3,#0x14
        0x00003b82:    dd09        ..      BLE      0x3b98 ; pow + 216
        0x00003b84:    2634        4&      MOVS     r6,#0x34
        0x00003b86:    1af6        ..      SUBS     r6,r6,r3
        0x00003b88:    9b02        ..      LDR      r3,[sp,#8]
        0x00003b8a:    40f3        .@      LSRS     r3,r3,r6
        0x00003b8c:    461a        .F      MOV      r2,r3
        0x00003b8e:    40b3        .@      LSLS     r3,r3,r6
        0x00003b90:    9e02        ..      LDR      r6,[sp,#8]
        0x00003b92:    42b3        .B      CMP      r3,r6
        0x00003b94:    d00b        ..      BEQ      0x3bae ; pow + 238
        0x00003b96:    e00e        ..      B        0x3bb6 ; pow + 246
        0x00003b98:    9e02        ..      LDR      r6,[sp,#8]
        0x00003b9a:    2e00        ..      CMP      r6,#0
        0x00003b9c:    d10b        ..      BNE      0x3bb6 ; pow + 246
        0x00003b9e:    2614        .&      MOVS     r6,#0x14
        0x00003ba0:    1af6        ..      SUBS     r6,r6,r3
        0x00003ba2:    4603        .F      MOV      r3,r0
        0x00003ba4:    40f3        .@      LSRS     r3,r3,r6
        0x00003ba6:    461a        .F      MOV      r2,r3
        0x00003ba8:    40b3        .@      LSLS     r3,r3,r6
        0x00003baa:    4283        .B      CMP      r3,r0
        0x00003bac:    d103        ..      BNE      0x3bb6 ; pow + 246
        0x00003bae:    07d5        ..      LSLS     r5,r2,#31
        0x00003bb0:    0fed        ..      LSRS     r5,r5,#31
        0x00003bb2:    2302        .#      MOVS     r3,#2
        0x00003bb4:    1b5d        ].      SUBS     r5,r3,r5
        0x00003bb6:    4662        bF      MOV      r2,r12
        0x00003bb8:    460b        .F      MOV      r3,r1
        0x00003bba:    4313        .C      ORRS     r3,r3,r2
        0x00003bbc:    d118        ..      BNE      0x3bf0 ; pow + 304
        0x00003bbe:    2f00        ./      CMP      r7,#0
        0x00003bc0:    da16        ..      BGE      0x3bf0 ; pow + 304
        0x00003bc2:    2c00        .,      CMP      r4,#0
        0x00003bc4:    d003        ..      BEQ      0x3bce ; pow + 270
        0x00003bc6:    2d02        .-      CMP      r5,#2
        0x00003bc8:    d001        ..      BEQ      0x3bce ; pow + 270
        0x00003bca:    2d01        .-      CMP      r5,#1
        0x00003bcc:    d006        ..      BEQ      0x3bdc ; pow + 284
        0x00003bce:    2002        .       MOVS     r0,#2
        0x00003bd0:    f7fefb9c    ....    BL       __set_errno ; 0x230c
        0x00003bd4:    f7fefb5a    ..Z.    BL       __mathlib_dbl_divzero ; 0x228c
        0x00003bd8:    b019        ..      ADD      sp,sp,#0x64
        0x00003bda:    bdf0        ..      POP      {r4-r7,pc}
        0x00003bdc:    2002        .       MOVS     r0,#2
        0x00003bde:    f7fefb95    ....    BL       __set_errno ; 0x230c
        0x00003be2:    f7fefb53    ..S.    BL       __mathlib_dbl_divzero ; 0x228c
        0x00003be6:    2201        ."      MOVS     r2,#1
        0x00003be8:    07d2        ..      LSLS     r2,r2,#31
        0x00003bea:    4051        Q@      EORS     r1,r1,r2
        0x00003bec:    b019        ..      ADD      sp,sp,#0x64
        0x00003bee:    bdf0        ..      POP      {r4-r7,pc}
        0x00003bf0:    9b02        ..      LDR      r3,[sp,#8]
        0x00003bf2:    2b00        .+      CMP      r3,#0
        0x00003bf4:    d162        b.      BNE      0x3cbc ; pow + 508
        0x00003bf6:    4bbf        .K      LDR      r3,[pc,#764] ; [0x3ef4] = 0x7ff00000
        0x00003bf8:    4298        .B      CMP      r0,r3
        0x00003bfa:    d120         .      BNE      0x3c3e ; pow + 382
        0x00003bfc:    48c0        .H      LDR      r0,[pc,#768] ; [0x3f00] = 0xbff00000
        0x00003bfe:    4284        .B      CMP      r4,r0
        0x00003c00:    d101        ..      BNE      0x3c06 ; pow + 326
        0x00003c02:    0010        ..      MOVS     r0,r2
        0x00003c04:    d008        ..      BEQ      0x3c18 ; pow + 344
        0x00003c06:    48b9        .H      LDR      r0,[pc,#740] ; [0x3eec] = 0x3ff00000
        0x00003c08:    4281        .B      CMP      r1,r0
        0x00003c0a:    db09        ..      BLT      0x3c20 ; pow + 352
        0x00003c0c:    2f00        ./      CMP      r7,#0
        0x00003c0e:    db10        ..      BLT      0x3c32 ; pow + 370
        0x00003c10:    9816        ..      LDR      r0,[sp,#0x58]
        0x00003c12:    4639        9F      MOV      r1,r7
        0x00003c14:    b019        ..      ADD      sp,sp,#0x64
        0x00003c16:    bdf0        ..      POP      {r4-r7,pc}
        0x00003c18:    2000        .       MOVS     r0,#0
        0x00003c1a:    49b4        .I      LDR      r1,[pc,#720] ; [0x3eec] = 0x3ff00000
        0x00003c1c:    b019        ..      ADD      sp,sp,#0x64
        0x00003c1e:    bdf0        ..      POP      {r4-r7,pc}
        0x00003c20:    2f00        ./      CMP      r7,#0
        0x00003c22:    da06        ..      BGE      0x3c32 ; pow + 370
        0x00003c24:    2201        ."      MOVS     r2,#1
        0x00003c26:    4639        9F      MOV      r1,r7
        0x00003c28:    07d2        ..      LSLS     r2,r2,#31
        0x00003c2a:    9816        ..      LDR      r0,[sp,#0x58]
        0x00003c2c:    4051        Q@      EORS     r1,r1,r2
        0x00003c2e:    b019        ..      ADD      sp,sp,#0x64
        0x00003c30:    bdf0        ..      POP      {r4-r7,pc}
        0x00003c32:    49b4        .I      LDR      r1,[pc,#720] ; [0x3f04] = 0x3a78
        0x00003c34:    4479        yD      ADD      r1,r1,pc
        0x00003c36:    6808        .h      LDR      r0,[r1,#0]
        0x00003c38:    6849        Ih      LDR      r1,[r1,#4]
        0x00003c3a:    b019        ..      ADD      sp,sp,#0x64
        0x00003c3c:    bdf0        ..      POP      {r4-r7,pc}
        0x00003c3e:    4eab        .N      LDR      r6,[pc,#684] ; [0x3eec] = 0x3ff00000
        0x00003c40:    42b0        .B      CMP      r0,r6
        0x00003c42:    d126        &.      BNE      0x3c92 ; pow + 466
        0x00003c44:    2f00        ./      CMP      r7,#0
        0x00003c46:    da22        ".      BGE      0x3c8e ; pow + 462
        0x00003c48:    2900        .)      CMP      r1,#0
        0x00003c4a:    d004        ..      BEQ      0x3c56 ; pow + 406
        0x00003c4c:    4299        .B      CMP      r1,r3
        0x00003c4e:    d111        ..      BNE      0x3c74 ; pow + 436
        0x00003c50:    0010        ..      MOVS     r0,r2
        0x00003c52:    d008        ..      BEQ      0x3c66 ; pow + 422
        0x00003c54:    e010        ..      B        0x3c78 ; pow + 440
        0x00003c56:    0010        ..      MOVS     r0,r2
        0x00003c58:    d172        r.      BNE      0x3d40 ; pow + 640
        0x00003c5a:    49a6        .I      LDR      r1,[pc,#664] ; [0x3ef4] = 0x7ff00000
        0x00003c5c:    0fe2        ..      LSRS     r2,r4,#31
        0x00003c5e:    07d2        ..      LSLS     r2,r2,#31
        0x00003c60:    4311        .C      ORRS     r1,r1,r2
        0x00003c62:    b019        ..      ADD      sp,sp,#0x64
        0x00003c64:    bdf0        ..      POP      {r4-r7,pc}
        0x00003c66:    2000        .       MOVS     r0,#0
        0x00003c68:    0fe2        ..      LSRS     r2,r4,#31
        0x00003c6a:    4601        .F      MOV      r1,r0
        0x00003c6c:    07d2        ..      LSLS     r2,r2,#31
        0x00003c6e:    4311        .C      ORRS     r1,r1,r2
        0x00003c70:    b019        ..      ADD      sp,sp,#0x64
        0x00003c72:    bdf0        ..      POP      {r4-r7,pc}
        0x00003c74:    4299        .B      CMP      r1,r3
        0x00003c76:    db03        ..      BLT      0x3c80 ; pow + 448
        0x00003c78:    4660        `F      MOV      r0,r12
        0x00003c7a:    4621        !F      MOV      r1,r4
        0x00003c7c:    b019        ..      ADD      sp,sp,#0x64
        0x00003c7e:    bdf0        ..      POP      {r4-r7,pc}
        0x00003c80:    4623        #F      MOV      r3,r4
        0x00003c82:    2000        .       MOVS     r0,#0
        0x00003c84:    4631        1F      MOV      r1,r6
        0x00003c86:    f7fcfe41    ..A.    BL       __aeabi_ddiv ; 0x90c
        0x00003c8a:    b019        ..      ADD      sp,sp,#0x64
        0x00003c8c:    bdf0        ..      POP      {r4-r7,pc}
        0x00003c8e:    4610        .F      MOV      r0,r2
        0x00003c90:    e7f3        ..      B        0x3c7a ; pow + 442
        0x00003c92:    4299        .B      CMP      r1,r3
        0x00003c94:    da12        ..      BGE      0x3cbc ; pow + 508
        0x00003c96:    2301        .#      MOVS     r3,#1
        0x00003c98:    079b        ..      LSLS     r3,r3,#30
        0x00003c9a:    429f        .B      CMP      r7,r3
        0x00003c9c:    d103        ..      BNE      0x3ca6 ; pow + 486
        0x00003c9e:    4623        #F      MOV      r3,r4
        0x00003ca0:    4610        .F      MOV      r0,r2
        0x00003ca2:    4619        .F      MOV      r1,r3
        0x00003ca4:    e3c6        ..      B        0x4434 ; pow + 2420
        0x00003ca6:    4b98        .K      LDR      r3,[pc,#608] ; [0x3f08] = 0x3fe00000
        0x00003ca8:    429f        .B      CMP      r7,r3
        0x00003caa:    d107        ..      BNE      0x3cbc ; pow + 508
        0x00003cac:    1e22        ".      SUBS     r2,r4,#0
        0x00003cae:    db05        ..      BLT      0x3cbc ; pow + 508
        0x00003cb0:    4660        `F      MOV      r0,r12
        0x00003cb2:    4611        .F      MOV      r1,r2
        0x00003cb4:    f000fc6c    ..l.    BL       sqrt ; 0x4590
        0x00003cb8:    b019        ..      ADD      sp,sp,#0x64
        0x00003cba:    bdf0        ..      POP      {r4-r7,pc}
        0x00003cbc:    0063        c.      LSLS     r3,r4,#1
        0x00003cbe:    4666        fF      MOV      r6,r12
        0x00003cc0:    085b        [.      LSRS     r3,r3,#1
        0x00003cc2:    0032        2.      MOVS     r2,r6
        0x00003cc4:    d12b        +.      BNE      0x3d1e ; pow + 606
        0x00003cc6:    2900        .)      CMP      r1,#0
        0x00003cc8:    d007        ..      BEQ      0x3cda ; pow + 538
        0x00003cca:    4a8a        .J      LDR      r2,[pc,#552] ; [0x3ef4] = 0x7ff00000
        0x00003ccc:    4291        .B      CMP      r1,r2
        0x00003cce:    d126        &.      BNE      0x3d1e ; pow + 606
        0x00003cd0:    2c00        .,      CMP      r4,#0
        0x00003cd2:    dd0b        ..      BLE      0x3cec ; pow + 556
        0x00003cd4:    2f00        ./      CMP      r7,#0
        0x00003cd6:    da0f        ..      BGE      0x3cf8 ; pow + 568
        0x00003cd8:    e018        ..      B        0x3d0c ; pow + 588
        0x00003cda:    2d02        .-      CMP      r5,#2
        0x00003cdc:    d016        ..      BEQ      0x3d0c ; pow + 588
        0x00003cde:    2c00        .,      CMP      r4,#0
        0x00003ce0:    d014        ..      BEQ      0x3d0c ; pow + 588
        0x00003ce2:    2d01        .-      CMP      r5,#1
        0x00003ce4:    d112        ..      BNE      0x3d0c ; pow + 588
        0x00003ce6:    2c00        .,      CMP      r4,#0
        0x00003ce8:    db14        ..      BLT      0x3d14 ; pow + 596
        0x00003cea:    e00f        ..      B        0x3d0c ; pow + 588
        0x00003cec:    2c00        .,      CMP      r4,#0
        0x00003cee:    da16        ..      BGE      0x3d1e ; pow + 606
        0x00003cf0:    2f00        ./      CMP      r7,#0
        0x00003cf2:    db09        ..      BLT      0x3d08 ; pow + 584
        0x00003cf4:    2d01        .-      CMP      r5,#1
        0x00003cf6:    d003        ..      BEQ      0x3d00 ; pow + 576
        0x00003cf8:    2000        .       MOVS     r0,#0
        0x00003cfa:    497e        ~I      LDR      r1,[pc,#504] ; [0x3ef4] = 0x7ff00000
        0x00003cfc:    b019        ..      ADD      sp,sp,#0x64
        0x00003cfe:    bdf0        ..      POP      {r4-r7,pc}
        0x00003d00:    2000        .       MOVS     r0,#0
        0x00003d02:    4982        .I      LDR      r1,[pc,#520] ; [0x3f0c] = 0xfff00000
        0x00003d04:    b019        ..      ADD      sp,sp,#0x64
        0x00003d06:    bdf0        ..      POP      {r4-r7,pc}
        0x00003d08:    2d01        .-      CMP      r5,#1
        0x00003d0a:    d003        ..      BEQ      0x3d14 ; pow + 596
        0x00003d0c:    2000        .       MOVS     r0,#0
        0x00003d0e:    4601        .F      MOV      r1,r0
        0x00003d10:    b019        ..      ADD      sp,sp,#0x64
        0x00003d12:    bdf0        ..      POP      {r4-r7,pc}
        0x00003d14:    2000        .       MOVS     r0,#0
        0x00003d16:    2101        .!      MOVS     r1,#1
        0x00003d18:    07c9        ..      LSLS     r1,r1,#31
        0x00003d1a:    b019        ..      ADD      sp,sp,#0x64
        0x00003d1c:    bdf0        ..      POP      {r4-r7,pc}
        0x00003d1e:    17e2        ..      ASRS     r2,r4,#31
        0x00003d20:    1c52        R.      ADDS     r2,r2,#1
        0x00003d22:    920d        ..      STR      r2,[sp,#0x34]
        0x00003d24:    432a        *C      ORRS     r2,r2,r5
        0x00003d26:    d00c        ..      BEQ      0x3d42 ; pow + 642
        0x00003d28:    4a79        yJ      LDR      r2,[pc,#484] ; [0x3f10] = 0x41e00000
        0x00003d2a:    4290        .B      CMP      r0,r2
        0x00003d2c:    dd7e        ~.      BLE      0x3e2c ; pow + 876
        0x00003d2e:    4b79        yK      LDR      r3,[pc,#484] ; [0x3f14] = 0x43f00000
        0x00003d30:    4a79        yJ      LDR      r2,[pc,#484] ; [0x3f18] = 0x3fefffff
        0x00003d32:    4298        .B      CMP      r0,r3
        0x00003d34:    dd12        ..      BLE      0x3d5c ; pow + 668
        0x00003d36:    4291        .B      CMP      r1,r2
        0x00003d38:    dc0a        ..      BGT      0x3d50 ; pow + 656
        0x00003d3a:    2f00        ./      CMP      r7,#0
        0x00003d3c:    db18        ..      BLT      0x3d70 ; pow + 688
        0x00003d3e:    e020         .      B        0x3d82 ; pow + 706
        0x00003d40:    e249        I.      B        0x41d6 ; pow + 1814
        0x00003d42:    2001        .       MOVS     r0,#1
        0x00003d44:    f7fefae2    ....    BL       __set_errno ; 0x230c
        0x00003d48:    f7fefab3    ....    BL       __mathlib_dbl_invalid ; 0x22b2
        0x00003d4c:    b019        ..      ADD      sp,sp,#0x64
        0x00003d4e:    bdf0        ..      POP      {r4-r7,pc}
        0x00003d50:    4866        fH      LDR      r0,[pc,#408] ; [0x3eec] = 0x3ff00000
        0x00003d52:    4281        .B      CMP      r1,r0
        0x00003d54:    db02        ..      BLT      0x3d5c ; pow + 668
        0x00003d56:    2f00        ./      CMP      r7,#0
        0x00003d58:    dc0a        ..      BGT      0x3d70 ; pow + 688
        0x00003d5a:    e012        ..      B        0x3d82 ; pow + 706
        0x00003d5c:    4291        .B      CMP      r1,r2
        0x00003d5e:    da02        ..      BGE      0x3d66 ; pow + 678
        0x00003d60:    2f00        ./      CMP      r7,#0
        0x00003d62:    db05        ..      BLT      0x3d70 ; pow + 688
        0x00003d64:    e00d        ..      B        0x3d82 ; pow + 706
        0x00003d66:    4b61        aK      LDR      r3,[pc,#388] ; [0x3eec] = 0x3ff00000
        0x00003d68:    4299        .B      CMP      r1,r3
        0x00003d6a:    dd13        ..      BLE      0x3d94 ; pow + 724
        0x00003d6c:    2f00        ./      CMP      r7,#0
        0x00003d6e:    dd08        ..      BLE      0x3d82 ; pow + 706
        0x00003d70:    2002        .       MOVS     r0,#2
        0x00003d72:    f7fefacb    ....    BL       __set_errno ; 0x230c
        0x00003d76:    f7fefaa5    ....    BL       __mathlib_dbl_overflow ; 0x22c4
        0x00003d7a:    0049        I.      LSLS     r1,r1,#1
        0x00003d7c:    0849        I.      LSRS     r1,r1,#1
        0x00003d7e:    2200        ."      MOVS     r2,#0
        0x00003d80:    e23f        ?.      B        0x4202 ; pow + 1858
        0x00003d82:    2002        .       MOVS     r0,#2
        0x00003d84:    f7fefac2    ....    BL       __set_errno ; 0x230c
        0x00003d88:    f7fefaa6    ....    BL       __mathlib_dbl_underflow ; 0x22d8
        0x00003d8c:    0049        I.      LSLS     r1,r1,#1
        0x00003d8e:    0849        I.      LSRS     r1,r1,#1
        0x00003d90:    2200        ."      MOVS     r2,#0
        0x00003d92:    e236        6.      B        0x4202 ; pow + 1858
        0x00003d94:    2200        ."      MOVS     r2,#0
        0x00003d96:    4660        `F      MOV      r0,r12
        0x00003d98:    4621        !F      MOV      r1,r4
        0x00003d9a:    f7fcfb8d    ....    BL       __aeabi_dsub ; 0x4b8
        0x00003d9e:    2201        ."      MOVS     r2,#1
        0x00003da0:    4604        .F      MOV      r4,r0
        0x00003da2:    460e        .F      MOV      r6,r1
        0x00003da4:    43d2        .C      MVNS     r2,r2
        0x00003da6:    f7fcfe29    ..).    BL       __ARM_scalbn ; 0x9fc
        0x00003daa:    4a5c        \J      LDR      r2,[pc,#368] ; [0x3f1c] = 0x55555555
        0x00003dac:    4b5c        \K      LDR      r3,[pc,#368] ; [0x3f20] = 0x3fd55555
        0x00003dae:    f7fcfb89    ....    BL       __aeabi_drsub ; 0x4c4
        0x00003db2:    4622        "F      MOV      r2,r4
        0x00003db4:    4633        3F      MOV      r3,r6
        0x00003db6:    f7fcfb8d    ....    BL       __aeabi_dmul ; 0x4d4
        0x00003dba:    2200        ."      MOVS     r2,#0
        0x00003dbc:    4b52        RK      LDR      r3,[pc,#328] ; [0x3f08] = 0x3fe00000
        0x00003dbe:    f7fcfb81    ....    BL       __aeabi_drsub ; 0x4c4
        0x00003dc2:    4607        .F      MOV      r7,r0
        0x00003dc4:    4622        "F      MOV      r2,r4
        0x00003dc6:    4633        3F      MOV      r3,r6
        0x00003dc8:    9103        ..      STR      r1,[sp,#0xc]
        0x00003dca:    4610        .F      MOV      r0,r2
        0x00003dcc:    4619        .F      MOV      r1,r3
        0x00003dce:    f7fcfb81    ....    BL       __aeabi_dmul ; 0x4d4
        0x00003dd2:    463a        :F      MOV      r2,r7
        0x00003dd4:    9b03        ..      LDR      r3,[sp,#0xc]
        0x00003dd6:    f7fcfb7d    ..}.    BL       __aeabi_dmul ; 0x4d4
        0x00003dda:    4607        .F      MOV      r7,r0
        0x00003ddc:    2203        ."      MOVS     r2,#3
        0x00003dde:    910b        ..      STR      r1,[sp,#0x2c]
        0x00003de0:    0752        R.      LSLS     r2,r2,#29
        0x00003de2:    4b50        PK      LDR      r3,[pc,#320] ; [0x3f24] = 0x3ff71547
        0x00003de4:    4620         F      MOV      r0,r4
        0x00003de6:    4631        1F      MOV      r1,r6
        0x00003de8:    f7fcfb74    ..t.    BL       __aeabi_dmul ; 0x4d4
        0x00003dec:    9101        ..      STR      r1,[sp,#4]
        0x00003dee:    900a        ..      STR      r0,[sp,#0x28]
        0x00003df0:    4a4d        MJ      LDR      r2,[pc,#308] ; [0x3f28] = 0x652b82fe
        0x00003df2:    4b4c        LK      LDR      r3,[pc,#304] ; [0x3f24] = 0x3ff71547
        0x00003df4:    4638        8F      MOV      r0,r7
        0x00003df6:    990b        ..      LDR      r1,[sp,#0x2c]
        0x00003df8:    f7fcfb6c    ..l.    BL       __aeabi_dmul ; 0x4d4
        0x00003dfc:    4607        .F      MOV      r7,r0
        0x00003dfe:    9102        ..      STR      r1,[sp,#8]
        0x00003e00:    4a4a        JJ      LDR      r2,[pc,#296] ; [0x3f2c] = 0xf85ddf44
        0x00003e02:    4b4b        KK      LDR      r3,[pc,#300] ; [0x3f30] = 0x3e54ae0b
        0x00003e04:    4620         F      MOV      r0,r4
        0x00003e06:    4631        1F      MOV      r1,r6
        0x00003e08:    f7fcfb64    ..d.    BL       __aeabi_dmul ; 0x4d4
        0x00003e0c:    463a        :F      MOV      r2,r7
        0x00003e0e:    9b02        ..      LDR      r3,[sp,#8]
        0x00003e10:    f7fcfb52    ..R.    BL       __aeabi_dsub ; 0x4b8
        0x00003e14:    4604        .F      MOV      r4,r0
        0x00003e16:    460b        .F      MOV      r3,r1
        0x00003e18:    4602        .F      MOV      r2,r0
        0x00003e1a:    9107        ..      STR      r1,[sp,#0x1c]
        0x00003e1c:    9901        ..      LDR      r1,[sp,#4]
        0x00003e1e:    980a        ..      LDR      r0,[sp,#0x28]
        0x00003e20:    f7fcfaa6    ....    BL       __aeabi_dadd ; 0x370
        0x00003e24:    2600        .&      MOVS     r6,#0
        0x00003e26:    460f        .F      MOV      r7,r1
        0x00003e28:    4630        0F      MOV      r0,r6
        0x00003e2a:    e000        ..      B        0x3e2e ; pow + 878
        0x00003e2c:    e009        ..      B        0x3e42 ; pow + 898
        0x00003e2e:    9b01        ..      LDR      r3,[sp,#4]
        0x00003e30:    9a0a        ..      LDR      r2,[sp,#0x28]
        0x00003e32:    f7fcfb41    ..A.    BL       __aeabi_dsub ; 0x4b8
        0x00003e36:    4622        "F      MOV      r2,r4
        0x00003e38:    9b07        ..      LDR      r3,[sp,#0x1c]
        0x00003e3a:    f7fcfb43    ..C.    BL       __aeabi_drsub ; 0x4c4
        0x00003e3e:    460b        .F      MOV      r3,r1
        0x00003e40:    e181        ..      B        0x4146 ; pow + 1670
        0x00003e42:    2401        .$      MOVS     r4,#1
        0x00003e44:    2000        .       MOVS     r0,#0
        0x00003e46:    0524        $.      LSLS     r4,r4,#20
        0x00003e48:    42a1        .B      CMP      r1,r4
        0x00003e4a:    da07        ..      BGE      0x3e5c ; pow + 924
        0x00003e4c:    2235        5"      MOVS     r2,#0x35
        0x00003e4e:    4630        0F      MOV      r0,r6
        0x00003e50:    4619        .F      MOV      r1,r3
        0x00003e52:    f7fcfdd3    ....    BL       __ARM_scalbn ; 0x9fc
        0x00003e56:    4606        .F      MOV      r6,r0
        0x00003e58:    2034        4       MOVS     r0,#0x34
        0x00003e5a:    43c0        .C      MVNS     r0,r0
        0x00003e5c:    150a        ..      ASRS     r2,r1,#20
        0x00003e5e:    1812        ..      ADDS     r2,r2,r0
        0x00003e60:    4826        &H      LDR      r0,[pc,#152] ; [0x3efc] = 0xfffffc01
        0x00003e62:    1810        ..      ADDS     r0,r2,r0
        0x00003e64:    9003        ..      STR      r0,[sp,#0xc]
        0x00003e66:    0308        ..      LSLS     r0,r1,#12
        0x00003e68:    0b00        ..      LSRS     r0,r0,#12
        0x00003e6a:    4920         I      LDR      r1,[pc,#128] ; [0x3eec] = 0x3ff00000
        0x00003e6c:    4607        .F      MOV      r7,r0
        0x00003e6e:    430f        .C      ORRS     r7,r7,r1
        0x00003e70:    4930        0I      LDR      r1,[pc,#192] ; [0x3f34] = 0x3988e
        0x00003e72:    4288        .B      CMP      r0,r1
        0x00003e74:    dc01        ..      BGT      0x3e7a ; pow + 954
        0x00003e76:    2000        .       MOVS     r0,#0
        0x00003e78:    e003        ..      B        0x3e82 ; pow + 962
        0x00003e7a:    492f        /I      LDR      r1,[pc,#188] ; [0x3f38] = 0xbb67a
        0x00003e7c:    4288        .B      CMP      r0,r1
        0x00003e7e:    da02        ..      BGE      0x3e86 ; pow + 966
        0x00003e80:    2001        .       MOVS     r0,#1
        0x00003e82:    9011        ..      STR      r0,[sp,#0x44]
        0x00003e84:    e005        ..      B        0x3e92 ; pow + 978
        0x00003e86:    2000        .       MOVS     r0,#0
        0x00003e88:    9011        ..      STR      r0,[sp,#0x44]
        0x00003e8a:    9803        ..      LDR      r0,[sp,#0xc]
        0x00003e8c:    1c40        @.      ADDS     r0,r0,#1
        0x00003e8e:    1b3f        ?.      SUBS     r7,r7,r4
        0x00003e90:    9003        ..      STR      r0,[sp,#0xc]
        0x00003e92:    9702        ..      STR      r7,[sp,#8]
        0x00003e94:    9811        ..      LDR      r0,[sp,#0x44]
        0x00003e96:    4639        9F      MOV      r1,r7
        0x00003e98:    00c2        ..      LSLS     r2,r0,#3
        0x00003e9a:    4828        (H      LDR      r0,[pc,#160] ; [0x3f3c] = 0x3788
        0x00003e9c:    4478        xD      ADD      r0,r0,pc
        0x00003e9e:    1880        ..      ADDS     r0,r0,r2
        0x00003ea0:    920f        ..      STR      r2,[sp,#0x3c]
        0x00003ea2:    6843        Ch      LDR      r3,[r0,#4]
        0x00003ea4:    6802        .h      LDR      r2,[r0,#0]
        0x00003ea6:    4630        0F      MOV      r0,r6
        0x00003ea8:    930b        ..      STR      r3,[sp,#0x2c]
        0x00003eaa:    9200        ..      STR      r2,[sp,#0]
        0x00003eac:    f7fcfb04    ....    BL       __aeabi_dsub ; 0x4b8
        0x00003eb0:    9101        ..      STR      r1,[sp,#4]
        0x00003eb2:    900a        ..      STR      r0,[sp,#0x28]
        0x00003eb4:    4630        0F      MOV      r0,r6
        0x00003eb6:    9b0b        ..      LDR      r3,[sp,#0x2c]
        0x00003eb8:    9a00        ..      LDR      r2,[sp,#0]
        0x00003eba:    9902        ..      LDR      r1,[sp,#8]
        0x00003ebc:    f7fcfa58    ..X.    BL       __aeabi_dadd ; 0x370
        0x00003ec0:    4602        .F      MOV      r2,r0
        0x00003ec2:    460b        .F      MOV      r3,r1
        0x00003ec4:    2000        .       MOVS     r0,#0
        0x00003ec6:    4909        .I      LDR      r1,[pc,#36] ; [0x3eec] = 0x3ff00000
        0x00003ec8:    f7fcfd20    .. .    BL       __aeabi_ddiv ; 0x90c
        0x00003ecc:    9107        ..      STR      r1,[sp,#0x1c]
        0x00003ece:    9004        ..      STR      r0,[sp,#0x10]
        0x00003ed0:    9b01        ..      LDR      r3,[sp,#4]
        0x00003ed2:    9a0a        ..      LDR      r2,[sp,#0x28]
        0x00003ed4:    f7fcfafe    ....    BL       __aeabi_dmul ; 0x4d4
        0x00003ed8:    9105        ..      STR      r1,[sp,#0x14]
        0x00003eda:    2400        .$      MOVS     r4,#0
        0x00003edc:    9109        ..      STR      r1,[sp,#0x24]
        0x00003ede:    900c        ..      STR      r0,[sp,#0x30]
        0x00003ee0:    e02e        ..      B        0x3f40 ; pow + 1152
    $d
        0x00003ee2:    0000        ..      DCW    0
        0x00003ee4:    001fffff    ....    DCD    2097151
        0x00003ee8:    000fffff    ....    DCD    1048575
        0x00003eec:    3ff00000    ...?    DCD    1072693248
        0x00003ef0:    ffe00000    ....    DCD    4292870144
        0x00003ef4:    7ff00000    ....    DCD    2146435072
        0x00003ef8:    43400000    ..@C    DCD    1128267776
        0x00003efc:    fffffc01    ....    DCD    4294966273
        0x00003f00:    bff00000    ....    DCD    3220176896
        0x00003f04:    00003a78    x:..    DCD    14968
        0x00003f08:    3fe00000    ...?    DCD    1071644672
        0x00003f0c:    fff00000    ....    DCD    4293918720
        0x00003f10:    41e00000    ...A    DCD    1105199104
        0x00003f14:    43f00000    ...C    DCD    1139802112
        0x00003f18:    3fefffff    ...?    DCD    1072693247
        0x00003f1c:    55555555    UUUU    DCD    1431655765
        0x00003f20:    3fd55555    UU.?    DCD    1070945621
        0x00003f24:    3ff71547    G..?    DCD    1073157447
        0x00003f28:    652b82fe    ..+e    DCD    1697350398
        0x00003f2c:    f85ddf44    D.].    DCD    4166901572
        0x00003f30:    3e54ae0b    ..T>    DCD    1045736971
        0x00003f34:    0003988e    ....    DCD    235662
        0x00003f38:    000bb67a    z...    DCD    767610
        0x00003f3c:    00003788    .7..    DCD    14216
    $t
        0x00003f40:    48fe        .H      LDR      r0,[pc,#1016] ; [0x433c] = 0x376a
        0x00003f42:    4478        xD      ADD      r0,r0,pc
        0x00003f44:    6800        .h      LDR      r0,[r0,#0]
        0x00003f46:    900e        ..      STR      r0,[sp,#0x38]
        0x00003f48:    2101        .!      MOVS     r1,#1
        0x00003f4a:    1078        x.      ASRS     r0,r7,#1
        0x00003f4c:    0749        I.      LSLS     r1,r1,#29
        0x00003f4e:    4308        .C      ORRS     r0,r0,r1
        0x00003f50:    9911        ..      LDR      r1,[sp,#0x44]
        0x00003f52:    9b0b        ..      LDR      r3,[sp,#0x2c]
        0x00003f54:    0489        ..      LSLS     r1,r1,#18
        0x00003f56:    1840        @.      ADDS     r0,r0,r1
        0x00003f58:    2101        .!      MOVS     r1,#1
        0x00003f5a:    04c9        ..      LSLS     r1,r1,#19
        0x00003f5c:    1847        G.      ADDS     r7,r0,r1
        0x00003f5e:    4639        9F      MOV      r1,r7
        0x00003f60:    9a00        ..      LDR      r2,[sp,#0]
        0x00003f62:    980e        ..      LDR      r0,[sp,#0x38]
        0x00003f64:    f7fcfaa8    ....    BL       __aeabi_dsub ; 0x4b8
        0x00003f68:    4632        2F      MOV      r2,r6
        0x00003f6a:    9b02        ..      LDR      r3,[sp,#8]
        0x00003f6c:    f7fcfaaa    ....    BL       __aeabi_drsub ; 0x4c4
        0x00003f70:    4602        .F      MOV      r2,r0
        0x00003f72:    460b        .F      MOV      r3,r1
        0x00003f74:    4620         F      MOV      r0,r4
        0x00003f76:    9909        ..      LDR      r1,[sp,#0x24]
        0x00003f78:    f7fcfaac    ....    BL       __aeabi_dmul ; 0x4d4
        0x00003f7c:    4606        .F      MOV      r6,r0
        0x00003f7e:    9100        ..      STR      r1,[sp,#0]
        0x00003f80:    463b        ;F      MOV      r3,r7
        0x00003f82:    4620         F      MOV      r0,r4
        0x00003f84:    9a0e        ..      LDR      r2,[sp,#0x38]
        0x00003f86:    9909        ..      LDR      r1,[sp,#0x24]
        0x00003f88:    f7fcfaa4    ....    BL       __aeabi_dmul ; 0x4d4
        0x00003f8c:    9b01        ..      LDR      r3,[sp,#4]
        0x00003f8e:    9a0a        ..      LDR      r2,[sp,#0x28]
        0x00003f90:    f7fcfa98    ....    BL       __aeabi_drsub ; 0x4c4
        0x00003f94:    4632        2F      MOV      r2,r6
        0x00003f96:    9b00        ..      LDR      r3,[sp,#0]
        0x00003f98:    f7fcfa8e    ....    BL       __aeabi_dsub ; 0x4b8
        0x00003f9c:    9b07        ..      LDR      r3,[sp,#0x1c]
        0x00003f9e:    9a04        ..      LDR      r2,[sp,#0x10]
        0x00003fa0:    f7fcfa98    ....    BL       __aeabi_dmul ; 0x4d4
        0x00003fa4:    910b        ..      STR      r1,[sp,#0x2c]
        0x00003fa6:    9905        ..      LDR      r1,[sp,#0x14]
        0x00003fa8:    9a0c        ..      LDR      r2,[sp,#0x30]
        0x00003faa:    9012        ..      STR      r0,[sp,#0x48]
        0x00003fac:    460b        .F      MOV      r3,r1
        0x00003fae:    4610        .F      MOV      r0,r2
        0x00003fb0:    f7fcfa90    ....    BL       __aeabi_dmul ; 0x4d4
        0x00003fb4:    4606        .F      MOV      r6,r0
        0x00003fb6:    4602        .F      MOV      r2,r0
        0x00003fb8:    48e1        .H      LDR      r0,[pc,#900] ; [0x4340] = 0x3694
        0x00003fba:    460f        .F      MOV      r7,r1
        0x00003fbc:    460b        .F      MOV      r3,r1
        0x00003fbe:    2106        .!      MOVS     r1,#6
        0x00003fc0:    4478        xD      ADD      r0,r0,pc
        0x00003fc2:    f7fef90d    ....    BL       __kernel_poly ; 0x21e0
        0x00003fc6:    4632        2F      MOV      r2,r6
        0x00003fc8:    463b        ;F      MOV      r3,r7
        0x00003fca:    9101        ..      STR      r1,[sp,#4]
        0x00003fcc:    9004        ..      STR      r0,[sp,#0x10]
        0x00003fce:    4610        .F      MOV      r0,r2
        0x00003fd0:    4619        .F      MOV      r1,r3
        0x00003fd2:    f7fcfa7f    ....    BL       __aeabi_dmul ; 0x4d4
        0x00003fd6:    9b01        ..      LDR      r3,[sp,#4]
        0x00003fd8:    9a04        ..      LDR      r2,[sp,#0x10]
        0x00003fda:    f7fcfa7b    ..{.    BL       __aeabi_dmul ; 0x4d4
        0x00003fde:    4606        .F      MOV      r6,r0
        0x00003fe0:    460f        .F      MOV      r7,r1
        0x00003fe2:    4620         F      MOV      r0,r4
        0x00003fe4:    9b05        ..      LDR      r3,[sp,#0x14]
        0x00003fe6:    9a0c        ..      LDR      r2,[sp,#0x30]
        0x00003fe8:    9909        ..      LDR      r1,[sp,#0x24]
        0x00003fea:    f7fcf9c1    ....    BL       __aeabi_dadd ; 0x370
        0x00003fee:    9b0b        ..      LDR      r3,[sp,#0x2c]
        0x00003ff0:    9a12        ..      LDR      r2,[sp,#0x48]
        0x00003ff2:    f7fcfa6f    ..o.    BL       __aeabi_dmul ; 0x4d4
        0x00003ff6:    4632        2F      MOV      r2,r6
        0x00003ff8:    463b        ;F      MOV      r3,r7
        0x00003ffa:    f7fcf9b9    ....    BL       __aeabi_dadd ; 0x370
        0x00003ffe:    9101        ..      STR      r1,[sp,#4]
        0x00004000:    9004        ..      STR      r0,[sp,#0x10]
        0x00004002:    9909        ..      LDR      r1,[sp,#0x24]
        0x00004004:    4622        "F      MOV      r2,r4
        0x00004006:    460b        .F      MOV      r3,r1
        0x00004008:    4610        .F      MOV      r0,r2
        0x0000400a:    f7fcfa63    ..c.    BL       __aeabi_dmul ; 0x4d4
        0x0000400e:    4ecd        .N      LDR      r6,[pc,#820] ; [0x4344] = 0x40080000
        0x00004010:    2200        ."      MOVS     r2,#0
        0x00004012:    4633        3F      MOV      r3,r6
        0x00004014:    9102        ..      STR      r1,[sp,#8]
        0x00004016:    9000        ..      STR      r0,[sp,#0]
        0x00004018:    f7fcf9aa    ....    BL       __aeabi_dadd ; 0x370
        0x0000401c:    9b01        ..      LDR      r3,[sp,#4]
        0x0000401e:    9a04        ..      LDR      r2,[sp,#0x10]
        0x00004020:    f7fcf9a6    ....    BL       __aeabi_dadd ; 0x370
        0x00004024:    4622        "F      MOV      r2,r4
        0x00004026:    4633        3F      MOV      r3,r6
        0x00004028:    4620         F      MOV      r0,r4
        0x0000402a:    9106        ..      STR      r1,[sp,#0x18]
        0x0000402c:    f7fcfa44    ..D.    BL       __aeabi_dsub ; 0x4b8
        0x00004030:    9b02        ..      LDR      r3,[sp,#8]
        0x00004032:    9a00        ..      LDR      r2,[sp,#0]
        0x00004034:    f7fcfa40    ..@.    BL       __aeabi_dsub ; 0x4b8
        0x00004038:    9b01        ..      LDR      r3,[sp,#4]
        0x0000403a:    9a04        ..      LDR      r2,[sp,#0x10]
        0x0000403c:    f7fcfa42    ..B.    BL       __aeabi_drsub ; 0x4c4
        0x00004040:    4606        .F      MOV      r6,r0
        0x00004042:    9102        ..      STR      r1,[sp,#8]
        0x00004044:    4622        "F      MOV      r2,r4
        0x00004046:    4610        .F      MOV      r0,r2
        0x00004048:    9b06        ..      LDR      r3,[sp,#0x18]
        0x0000404a:    9909        ..      LDR      r1,[sp,#0x24]
        0x0000404c:    f7fcfa42    ..B.    BL       __aeabi_dmul ; 0x4d4
        0x00004050:    4607        .F      MOV      r7,r0
        0x00004052:    9101        ..      STR      r1,[sp,#4]
        0x00004054:    4630        0F      MOV      r0,r6
        0x00004056:    9b05        ..      LDR      r3,[sp,#0x14]
        0x00004058:    9a0c        ..      LDR      r2,[sp,#0x30]
        0x0000405a:    9902        ..      LDR      r1,[sp,#8]
        0x0000405c:    f7fcfa3a    ..:.    BL       __aeabi_dmul ; 0x4d4
        0x00004060:    4606        .F      MOV      r6,r0
        0x00004062:    9104        ..      STR      r1,[sp,#0x10]
        0x00004064:    4622        "F      MOV      r2,r4
        0x00004066:    9b06        ..      LDR      r3,[sp,#0x18]
        0x00004068:    990b        ..      LDR      r1,[sp,#0x2c]
        0x0000406a:    9812        ..      LDR      r0,[sp,#0x48]
        0x0000406c:    f7fcfa32    ..2.    BL       __aeabi_dmul ; 0x4d4
        0x00004070:    4632        2F      MOV      r2,r6
        0x00004072:    9b04        ..      LDR      r3,[sp,#0x10]
        0x00004074:    f7fcf97c    ..|.    BL       __aeabi_dadd ; 0x370
        0x00004078:    4602        .F      MOV      r2,r0
        0x0000407a:    460b        .F      MOV      r3,r1
        0x0000407c:    9107        ..      STR      r1,[sp,#0x1c]
        0x0000407e:    9004        ..      STR      r0,[sp,#0x10]
        0x00004080:    4638        8F      MOV      r0,r7
        0x00004082:    9901        ..      LDR      r1,[sp,#4]
        0x00004084:    f7fcf974    ..t.    BL       __aeabi_dadd ; 0x370
        0x00004088:    2000        .       MOVS     r0,#0
        0x0000408a:    460e        .F      MOV      r6,r1
        0x0000408c:    4604        .F      MOV      r4,r0
        0x0000408e:    463a        :F      MOV      r2,r7
        0x00004090:    9b01        ..      LDR      r3,[sp,#4]
        0x00004092:    f7fcfa11    ....    BL       __aeabi_dsub ; 0x4b8
        0x00004096:    9b07        ..      LDR      r3,[sp,#0x1c]
        0x00004098:    9a04        ..      LDR      r2,[sp,#0x10]
        0x0000409a:    f7fcfa13    ....    BL       __aeabi_drsub ; 0x4c4
        0x0000409e:    4607        .F      MOV      r7,r0
        0x000040a0:    2207        ."      MOVS     r2,#7
        0x000040a2:    910b        ..      STR      r1,[sp,#0x2c]
        0x000040a4:    0752        R.      LSLS     r2,r2,#29
        0x000040a6:    4ba8        .K      LDR      r3,[pc,#672] ; [0x4348] = 0x3feec709
        0x000040a8:    4620         F      MOV      r0,r4
        0x000040aa:    4631        1F      MOV      r1,r6
        0x000040ac:    f7fcfa12    ....    BL       __aeabi_dmul ; 0x4d4
        0x000040b0:    9105        ..      STR      r1,[sp,#0x14]
        0x000040b2:    900a        ..      STR      r0,[sp,#0x28]
        0x000040b4:    4aa5        .J      LDR      r2,[pc,#660] ; [0x434c] = 0xdc3a03fd
        0x000040b6:    4ba4        .K      LDR      r3,[pc,#656] ; [0x4348] = 0x3feec709
        0x000040b8:    4638        8F      MOV      r0,r7
        0x000040ba:    990b        ..      LDR      r1,[sp,#0x2c]
        0x000040bc:    f7fcfa0a    ....    BL       __aeabi_dmul ; 0x4d4
        0x000040c0:    4607        .F      MOV      r7,r0
        0x000040c2:    9100        ..      STR      r1,[sp,#0]
        0x000040c4:    4aa2        .J      LDR      r2,[pc,#648] ; [0x4350] = 0x145b01f5
        0x000040c6:    4ba3        .K      LDR      r3,[pc,#652] ; [0x4354] = 0xbe3e2fe0
        0x000040c8:    4620         F      MOV      r0,r4
        0x000040ca:    4631        1F      MOV      r1,r6
        0x000040cc:    f7fcfa02    ....    BL       __aeabi_dmul ; 0x4d4
        0x000040d0:    463a        :F      MOV      r2,r7
        0x000040d2:    9b00        ..      LDR      r3,[sp,#0]
        0x000040d4:    f7fcf94c    ..L.    BL       __aeabi_dadd ; 0x370
        0x000040d8:    4b9f        .K      LDR      r3,[pc,#636] ; [0x4358] = 0x356a
        0x000040da:    447b        {D      ADD      r3,r3,pc
        0x000040dc:    9a0f        ..      LDR      r2,[sp,#0x3c]
        0x000040de:    189b        ..      ADDS     r3,r3,r2
        0x000040e0:    681a        .h      LDR      r2,[r3,#0]
        0x000040e2:    685b        [h      LDR      r3,[r3,#4]
        0x000040e4:    f7fcf944    ..D.    BL       __aeabi_dadd ; 0x370
        0x000040e8:    9002        ..      STR      r0,[sp,#8]
        0x000040ea:    910b        ..      STR      r1,[sp,#0x2c]
        0x000040ec:    9803        ..      LDR      r0,[sp,#0xc]
        0x000040ee:    f7fcfced    ....    BL       __aeabi_i2d ; 0xacc
        0x000040f2:    9107        ..      STR      r1,[sp,#0x1c]
        0x000040f4:    9004        ..      STR      r0,[sp,#0x10]
        0x000040f6:    9b0b        ..      LDR      r3,[sp,#0x2c]
        0x000040f8:    9a02        ..      LDR      r2,[sp,#8]
        0x000040fa:    9905        ..      LDR      r1,[sp,#0x14]
        0x000040fc:    980a        ..      LDR      r0,[sp,#0x28]
        0x000040fe:    f7fcf937    ..7.    BL       __aeabi_dadd ; 0x370
        0x00004102:    4b96        .K      LDR      r3,[pc,#600] ; [0x435c] = 0x3530
        0x00004104:    447b        {D      ADD      r3,r3,pc
        0x00004106:    9a0f        ..      LDR      r2,[sp,#0x3c]
        0x00004108:    189b        ..      ADDS     r3,r3,r2
        0x0000410a:    681a        .h      LDR      r2,[r3,#0]
        0x0000410c:    685b        [h      LDR      r3,[r3,#4]
        0x0000410e:    9301        ..      STR      r3,[sp,#4]
        0x00004110:    920c        ..      STR      r2,[sp,#0x30]
        0x00004112:    f7fcf92d    ..-.    BL       __aeabi_dadd ; 0x370
        0x00004116:    9b07        ..      LDR      r3,[sp,#0x1c]
        0x00004118:    9a04        ..      LDR      r2,[sp,#0x10]
        0x0000411a:    f7fcf929    ..).    BL       __aeabi_dadd ; 0x370
        0x0000411e:    2600        .&      MOVS     r6,#0
        0x00004120:    460f        .F      MOV      r7,r1
        0x00004122:    4630        0F      MOV      r0,r6
        0x00004124:    9b07        ..      LDR      r3,[sp,#0x1c]
        0x00004126:    9a04        ..      LDR      r2,[sp,#0x10]
        0x00004128:    f7fcf9c6    ....    BL       __aeabi_dsub ; 0x4b8
        0x0000412c:    9b01        ..      LDR      r3,[sp,#4]
        0x0000412e:    9a0c        ..      LDR      r2,[sp,#0x30]
        0x00004130:    f7fcf9c2    ....    BL       __aeabi_dsub ; 0x4b8
        0x00004134:    9b05        ..      LDR      r3,[sp,#0x14]
        0x00004136:    9a0a        ..      LDR      r2,[sp,#0x28]
        0x00004138:    f7fcf9be    ....    BL       __aeabi_dsub ; 0x4b8
        0x0000413c:    9b0b        ..      LDR      r3,[sp,#0x2c]
        0x0000413e:    9a02        ..      LDR      r2,[sp,#8]
        0x00004140:    f7fcf9c0    ....    BL       __aeabi_drsub ; 0x4c4
        0x00004144:    460b        .F      MOV      r3,r1
        0x00004146:    2100        .!      MOVS     r1,#0
        0x00004148:    910c        ..      STR      r1,[sp,#0x30]
        0x0000414a:    990d        ..      LDR      r1,[sp,#0x34]
        0x0000414c:    4c84        .L      LDR      r4,[pc,#528] ; [0x4360] = 0x3ff00000
        0x0000414e:    1e6d        m.      SUBS     r5,r5,#1
        0x00004150:    4329        )C      ORRS     r1,r1,r5
        0x00004152:    d101        ..      BNE      0x4158 ; pow + 1688
        0x00004154:    4c83        .L      LDR      r4,[pc,#524] ; [0x4364] = 0xbff00000
        0x00004156:    910c        ..      STR      r1,[sp,#0x30]
        0x00004158:    9917        ..      LDR      r1,[sp,#0x5c]
        0x0000415a:    2200        ."      MOVS     r2,#0
        0x0000415c:    9208        ..      STR      r2,[sp,#0x20]
        0x0000415e:    4602        .F      MOV      r2,r0
        0x00004160:    460d        .F      MOV      r5,r1
        0x00004162:    9816        ..      LDR      r0,[sp,#0x58]
        0x00004164:    f7fcf9b6    ....    BL       __aeabi_dmul ; 0x4d4
        0x00004168:    9103        ..      STR      r1,[sp,#0xc]
        0x0000416a:    9004        ..      STR      r0,[sp,#0x10]
        0x0000416c:    462b        +F      MOV      r3,r5
        0x0000416e:    9a08        ..      LDR      r2,[sp,#0x20]
        0x00004170:    9917        ..      LDR      r1,[sp,#0x5c]
        0x00004172:    9816        ..      LDR      r0,[sp,#0x58]
        0x00004174:    f7fcf9a0    ....    BL       __aeabi_dsub ; 0x4b8
        0x00004178:    4632        2F      MOV      r2,r6
        0x0000417a:    463b        ;F      MOV      r3,r7
        0x0000417c:    f7fcf9aa    ....    BL       __aeabi_dmul ; 0x4d4
        0x00004180:    9b03        ..      LDR      r3,[sp,#0xc]
        0x00004182:    9a04        ..      LDR      r2,[sp,#0x10]
        0x00004184:    f7fcf8f4    ....    BL       __aeabi_dadd ; 0x370
        0x00004188:    910b        ..      STR      r1,[sp,#0x2c]
        0x0000418a:    900e        ..      STR      r0,[sp,#0x38]
        0x0000418c:    4632        2F      MOV      r2,r6
        0x0000418e:    463b        ;F      MOV      r3,r7
        0x00004190:    4629        )F      MOV      r1,r5
        0x00004192:    9808        ..      LDR      r0,[sp,#0x20]
        0x00004194:    f7fcf99e    ....    BL       __aeabi_dmul ; 0x4d4
        0x00004198:    4606        .F      MOV      r6,r0
        0x0000419a:    460f        .F      MOV      r7,r1
        0x0000419c:    9b0b        ..      LDR      r3,[sp,#0x2c]
        0x0000419e:    9a0e        ..      LDR      r2,[sp,#0x38]
        0x000041a0:    f7fcf8e6    ....    BL       __aeabi_dadd ; 0x370
        0x000041a4:    4a70        pJ      LDR      r2,[pc,#448] ; [0x4368] = 0x40900000
        0x000041a6:    460d        .F      MOV      r5,r1
        0x000041a8:    4291        .B      CMP      r1,r2
        0x000041aa:    db20         .      BLT      0x41ee ; pow + 1838
        0x000041ac:    4252        RB      RSBS     r2,r2,#0
        0x000041ae:    18aa        ..      ADDS     r2,r5,r2
        0x000041b0:    4302        .C      ORRS     r2,r2,r0
        0x000041b2:    d110        ..      BNE      0x41d6 ; pow + 1814
        0x000041b4:    4632        2F      MOV      r2,r6
        0x000041b6:    463b        ;F      MOV      r3,r7
        0x000041b8:    f7fcf97e    ..~.    BL       __aeabi_dsub ; 0x4b8
        0x000041bc:    9102        ..      STR      r1,[sp,#8]
        0x000041be:    9000        ..      STR      r0,[sp,#0]
        0x000041c0:    4a6a        jJ      LDR      r2,[pc,#424] ; [0x436c] = 0x652b82fe
        0x000041c2:    4b6b        kK      LDR      r3,[pc,#428] ; [0x4370] = 0x3c971547
        0x000041c4:    990b        ..      LDR      r1,[sp,#0x2c]
        0x000041c6:    980e        ..      LDR      r0,[sp,#0x38]
        0x000041c8:    f7fcf8d2    ....    BL       __aeabi_dadd ; 0x370
        0x000041cc:    9b02        ..      LDR      r3,[sp,#8]
        0x000041ce:    9a00        ..      LDR      r2,[sp,#0]
        0x000041d0:    f7fcfcc4    ....    BL       __aeabi_cdrcmple ; 0xb5c
        0x000041d4:    d22b        +.      BCS      0x422e ; pow + 1902
        0x000041d6:    2002        .       MOVS     r0,#2
        0x000041d8:    f7fef898    ....    BL       __set_errno ; 0x230c
        0x000041dc:    f7fef872    ..r.    BL       __mathlib_dbl_overflow ; 0x22c4
        0x000041e0:    0049        I.      LSLS     r1,r1,#1
        0x000041e2:    0849        I.      LSRS     r1,r1,#1
        0x000041e4:    0fe2        ..      LSRS     r2,r4,#31
        0x000041e6:    07d2        ..      LSLS     r2,r2,#31
        0x000041e8:    4311        .C      ORRS     r1,r1,r2
        0x000041ea:    b019        ..      ADD      sp,sp,#0x64
        0x000041ec:    bdf0        ..      POP      {r4-r7,pc}
        0x000041ee:    006a        j.      LSLS     r2,r5,#1
        0x000041f0:    4b60        `K      LDR      r3,[pc,#384] ; [0x4374] = 0x4090cc00
        0x000041f2:    0852        R.      LSRS     r2,r2,#1
        0x000041f4:    429a        .B      CMP      r2,r3
        0x000041f6:    d31a        ..      BCC      0x422e ; pow + 1902
        0x000041f8:    4a5f        _J      LDR      r2,[pc,#380] ; [0x4378] = 0x3f6f3400
        0x000041fa:    18aa        ..      ADDS     r2,r5,r2
        0x000041fc:    4302        .C      ORRS     r2,r2,r0
        0x000041fe:    d10c        ..      BNE      0x421a ; pow + 1882
        0x00004200:    e002        ..      B        0x4208 ; pow + 1864
        0x00004202:    4311        .C      ORRS     r1,r1,r2
        0x00004204:    b019        ..      ADD      sp,sp,#0x64
        0x00004206:    bdf0        ..      POP      {r4-r7,pc}
        0x00004208:    4632        2F      MOV      r2,r6
        0x0000420a:    463b        ;F      MOV      r3,r7
        0x0000420c:    f7fcf954    ..T.    BL       __aeabi_dsub ; 0x4b8
        0x00004210:    9b0b        ..      LDR      r3,[sp,#0x2c]
        0x00004212:    9a0e        ..      LDR      r2,[sp,#0x38]
        0x00004214:    f7fcfca2    ....    BL       __aeabi_cdrcmple ; 0xb5c
        0x00004218:    d809        ..      BHI      0x422e ; pow + 1902
        0x0000421a:    2002        .       MOVS     r0,#2
        0x0000421c:    f7fef876    ..v.    BL       __set_errno ; 0x230c
        0x00004220:    f7fef85a    ..Z.    BL       __mathlib_dbl_underflow ; 0x22d8
        0x00004224:    0049        I.      LSLS     r1,r1,#1
        0x00004226:    0849        I.      LSRS     r1,r1,#1
        0x00004228:    0fe2        ..      LSRS     r2,r4,#31
        0x0000422a:    07d2        ..      LSLS     r2,r2,#31
        0x0000422c:    e7e9        ..      B        0x4202 ; pow + 1858
        0x0000422e:    006a        j.      LSLS     r2,r5,#1
        0x00004230:    2300        .#      MOVS     r3,#0
        0x00004232:    0852        R.      LSRS     r2,r2,#1
        0x00004234:    4951        QI      LDR      r1,[pc,#324] ; [0x437c] = 0xfffffc01
        0x00004236:    9303        ..      STR      r3,[sp,#0xc]
        0x00004238:    0d10        ..      LSRS     r0,r2,#20
        0x0000423a:    4b51        QK      LDR      r3,[pc,#324] ; [0x4380] = 0x3fe00000
        0x0000423c:    1840        @.      ADDS     r0,r0,r1
        0x0000423e:    429a        .B      CMP      r2,r3
        0x00004240:    dd23        #.      BLE      0x428a ; pow + 1994
        0x00004242:    2201        ."      MOVS     r2,#1
        0x00004244:    0512        ..      LSLS     r2,r2,#20
        0x00004246:    1c40        @.      ADDS     r0,r0,#1
        0x00004248:    40c2        .@      LSRS     r2,r2,r0
        0x0000424a:    1950        P.      ADDS     r0,r2,r5
        0x0000424c:    0042        B.      LSLS     r2,r0,#1
        0x0000424e:    0d52        R.      LSRS     r2,r2,#21
        0x00004250:    1851        Q.      ADDS     r1,r2,r1
        0x00004252:    4a4c        LJ      LDR      r2,[pc,#304] ; [0x4384] = 0x3458
        0x00004254:    447a        zD      ADD      r2,r2,pc
        0x00004256:    6812        .h      LDR      r2,[r2,#0]
        0x00004258:    4603        .F      MOV      r3,r0
        0x0000425a:    4694        .F      MOV      r12,r2
        0x0000425c:    4a4a        JJ      LDR      r2,[pc,#296] ; [0x4388] = 0xfffff
        0x0000425e:    40ca        .@      LSRS     r2,r2,r1
        0x00004260:    4393        .C      BICS     r3,r3,r2
        0x00004262:    0302        ..      LSLS     r2,r0,#12
        0x00004264:    2001        .       MOVS     r0,#1
        0x00004266:    0b12        ..      LSRS     r2,r2,#12
        0x00004268:    0500        ..      LSLS     r0,r0,#20
        0x0000426a:    1810        ..      ADDS     r0,r2,r0
        0x0000426c:    2214        ."      MOVS     r2,#0x14
        0x0000426e:    1a51        Q.      SUBS     r1,r2,r1
        0x00004270:    40c8        .@      LSRS     r0,r0,r1
        0x00004272:    9003        ..      STR      r0,[sp,#0xc]
        0x00004274:    2d00        .-      CMP      r5,#0
        0x00004276:    da01        ..      BGE      0x427c ; pow + 1980
        0x00004278:    4240        @B      RSBS     r0,r0,#0
        0x0000427a:    9003        ..      STR      r0,[sp,#0xc]
        0x0000427c:    4662        bF      MOV      r2,r12
        0x0000427e:    4630        0F      MOV      r0,r6
        0x00004280:    4639        9F      MOV      r1,r7
        0x00004282:    f7fcf919    ....    BL       __aeabi_dsub ; 0x4b8
        0x00004286:    4606        .F      MOV      r6,r0
        0x00004288:    460f        .F      MOV      r7,r1
        0x0000428a:    4632        2F      MOV      r2,r6
        0x0000428c:    463b        ;F      MOV      r3,r7
        0x0000428e:    990b        ..      LDR      r1,[sp,#0x2c]
        0x00004290:    980e        ..      LDR      r0,[sp,#0x38]
        0x00004292:    f7fcf86d    ..m.    BL       __aeabi_dadd ; 0x370
        0x00004296:    2000        .       MOVS     r0,#0
        0x00004298:    460d        .F      MOV      r5,r1
        0x0000429a:    4602        .F      MOV      r2,r0
        0x0000429c:    4b3b        ;K      LDR      r3,[pc,#236] ; [0x438c] = 0x3fe62e43
        0x0000429e:    9004        ..      STR      r0,[sp,#0x10]
        0x000042a0:    f7fcf918    ....    BL       __aeabi_dmul ; 0x4d4
        0x000042a4:    9101        ..      STR      r1,[sp,#4]
        0x000042a6:    900a        ..      STR      r0,[sp,#0x28]
        0x000042a8:    4a39        9J      LDR      r2,[pc,#228] ; [0x4390] = 0xca86c39
        0x000042aa:    4b3a        :K      LDR      r3,[pc,#232] ; [0x4394] = 0xbe205c61
        0x000042ac:    4629        )F      MOV      r1,r5
        0x000042ae:    9804        ..      LDR      r0,[sp,#0x10]
        0x000042b0:    f7fcf910    ....    BL       __aeabi_dmul ; 0x4d4
        0x000042b4:    910d        ..      STR      r1,[sp,#0x34]
        0x000042b6:    9008        ..      STR      r0,[sp,#0x20]
        0x000042b8:    4632        2F      MOV      r2,r6
        0x000042ba:    463b        ;F      MOV      r3,r7
        0x000042bc:    4629        )F      MOV      r1,r5
        0x000042be:    9804        ..      LDR      r0,[sp,#0x10]
        0x000042c0:    f7fcf8fa    ....    BL       __aeabi_dsub ; 0x4b8
        0x000042c4:    9b0b        ..      LDR      r3,[sp,#0x2c]
        0x000042c6:    9a0e        ..      LDR      r2,[sp,#0x38]
        0x000042c8:    f7fcf8fc    ....    BL       __aeabi_drsub ; 0x4c4
        0x000042cc:    4a32        2J      LDR      r2,[pc,#200] ; [0x4398] = 0xfefa39ef
        0x000042ce:    4b33        3K      LDR      r3,[pc,#204] ; [0x439c] = 0x3fe62e42
        0x000042d0:    f7fcf900    ....    BL       __aeabi_dmul ; 0x4d4
        0x000042d4:    9b0d        ..      LDR      r3,[sp,#0x34]
        0x000042d6:    9a08        ..      LDR      r2,[sp,#0x20]
        0x000042d8:    f7fcf84a    ..J.    BL       __aeabi_dadd ; 0x370
        0x000042dc:    4607        .F      MOV      r7,r0
        0x000042de:    460b        .F      MOV      r3,r1
        0x000042e0:    4602        .F      MOV      r2,r0
        0x000042e2:    9107        ..      STR      r1,[sp,#0x1c]
        0x000042e4:    9901        ..      LDR      r1,[sp,#4]
        0x000042e6:    980a        ..      LDR      r0,[sp,#0x28]
        0x000042e8:    f7fcf842    ..B.    BL       __aeabi_dadd ; 0x370
        0x000042ec:    4605        .F      MOV      r5,r0
        0x000042ee:    460e        .F      MOV      r6,r1
        0x000042f0:    9b01        ..      LDR      r3,[sp,#4]
        0x000042f2:    9a0a        ..      LDR      r2,[sp,#0x28]
        0x000042f4:    f7fcf8e0    ....    BL       __aeabi_dsub ; 0x4b8
        0x000042f8:    463a        :F      MOV      r2,r7
        0x000042fa:    9b07        ..      LDR      r3,[sp,#0x1c]
        0x000042fc:    f7fcf8e2    ....    BL       __aeabi_drsub ; 0x4c4
        0x00004300:    4633        3F      MOV      r3,r6
        0x00004302:    462a        *F      MOV      r2,r5
        0x00004304:    910b        ..      STR      r1,[sp,#0x2c]
        0x00004306:    900e        ..      STR      r0,[sp,#0x38]
        0x00004308:    4619        .F      MOV      r1,r3
        0x0000430a:    4610        .F      MOV      r0,r2
        0x0000430c:    f7fcf8e2    ....    BL       __aeabi_dmul ; 0x4d4
        0x00004310:    4607        .F      MOV      r7,r0
        0x00004312:    4602        .F      MOV      r2,r0
        0x00004314:    4822        "H      LDR      r0,[pc,#136] ; [0x43a0] = 0x3368
        0x00004316:    460b        .F      MOV      r3,r1
        0x00004318:    9107        ..      STR      r1,[sp,#0x1c]
        0x0000431a:    2105        .!      MOVS     r1,#5
        0x0000431c:    4478        xD      ADD      r0,r0,pc
        0x0000431e:    f7fdff5f    .._.    BL       __kernel_poly ; 0x21e0
        0x00004322:    463a        :F      MOV      r2,r7
        0x00004324:    9b07        ..      LDR      r3,[sp,#0x1c]
        0x00004326:    f7fcf8d5    ....    BL       __aeabi_dmul ; 0x4d4
        0x0000432a:    4633        3F      MOV      r3,r6
        0x0000432c:    462a        *F      MOV      r2,r5
        0x0000432e:    f7fcf8c9    ....    BL       __aeabi_drsub ; 0x4c4
        0x00004332:    4607        .F      MOV      r7,r0
        0x00004334:    9109        ..      STR      r1,[sp,#0x24]
        0x00004336:    4631        1F      MOV      r1,r6
        0x00004338:    4628        (F      MOV      r0,r5
        0x0000433a:    e033        3.      B        0x43a4 ; pow + 2276
    $d
        0x0000433c:    0000376a    j7..    DCD    14186
        0x00004340:    00003694    .6..    DCD    13972
        0x00004344:    40080000    ...@    DCD    1074266112
        0x00004348:    3feec709    ...?    DCD    1072613129
        0x0000434c:    dc3a03fd    ..:.    DCD    3694789629
        0x00004350:    145b01f5    ..[.    DCD    341508597
        0x00004354:    be3e2fe0    ./>.    DCD    3191746528
        0x00004358:    0000356a    j5..    DCD    13674
        0x0000435c:    00003530    05..    DCD    13616
        0x00004360:    3ff00000    ...?    DCD    1072693248
        0x00004364:    bff00000    ....    DCD    3220176896
        0x00004368:    40900000    ...@    DCD    1083179008
        0x0000436c:    652b82fe    ..+e    DCD    1697350398
        0x00004370:    3c971547    G..<    DCD    1016534343
        0x00004374:    4090cc00    ...@    DCD    1083231232
        0x00004378:    3f6f3400    .4o?    DCD    1064252416
        0x0000437c:    fffffc01    ....    DCD    4294966273
        0x00004380:    3fe00000    ...?    DCD    1071644672
        0x00004384:    00003458    X4..    DCD    13400
        0x00004388:    000fffff    ....    DCD    1048575
        0x0000438c:    3fe62e43    C..?    DCD    1072049731
        0x00004390:    0ca86c39    9l..    DCD    212364345
        0x00004394:    be205c61    a\ .    DCD    3189791841
        0x00004398:    fefa39ef    .9..    DCD    4277811695
        0x0000439c:    3fe62e42    B..?    DCD    1072049730
        0x000043a0:    00003368    h3..    DCD    13160
    $t
        0x000043a4:    9b0b        ..      LDR      r3,[sp,#0x2c]
        0x000043a6:    9a0e        ..      LDR      r2,[sp,#0x38]
        0x000043a8:    f7fcf894    ....    BL       __aeabi_dmul ; 0x4d4
        0x000043ac:    9b0b        ..      LDR      r3,[sp,#0x2c]
        0x000043ae:    9a0e        ..      LDR      r2,[sp,#0x38]
        0x000043b0:    f7fbffde    ....    BL       __aeabi_dadd ; 0x370
        0x000043b4:    9004        ..      STR      r0,[sp,#0x10]
        0x000043b6:    2301        .#      MOVS     r3,#1
        0x000043b8:    9107        ..      STR      r1,[sp,#0x1c]
        0x000043ba:    2200        ."      MOVS     r2,#0
        0x000043bc:    079b        ..      LSLS     r3,r3,#30
        0x000043be:    4638        8F      MOV      r0,r7
        0x000043c0:    9909        ..      LDR      r1,[sp,#0x24]
        0x000043c2:    f7fcf879    ..y.    BL       __aeabi_dsub ; 0x4b8
        0x000043c6:    9101        ..      STR      r1,[sp,#4]
        0x000043c8:    9008        ..      STR      r0,[sp,#0x20]
        0x000043ca:    463a        :F      MOV      r2,r7
        0x000043cc:    4631        1F      MOV      r1,r6
        0x000043ce:    4628        (F      MOV      r0,r5
        0x000043d0:    9b09        ..      LDR      r3,[sp,#0x24]
        0x000043d2:    f7fcf87f    ....    BL       __aeabi_dmul ; 0x4d4
        0x000043d6:    9b01        ..      LDR      r3,[sp,#4]
        0x000043d8:    9a08        ..      LDR      r2,[sp,#0x20]
        0x000043da:    f7fcfa97    ....    BL       __aeabi_ddiv ; 0x90c
        0x000043de:    9b07        ..      LDR      r3,[sp,#0x1c]
        0x000043e0:    9a04        ..      LDR      r2,[sp,#0x10]
        0x000043e2:    f7fcf869    ..i.    BL       __aeabi_dsub ; 0x4b8
        0x000043e6:    4633        3F      MOV      r3,r6
        0x000043e8:    462a        *F      MOV      r2,r5
        0x000043ea:    f7fcf865    ..e.    BL       __aeabi_dsub ; 0x4b8
        0x000043ee:    2200        ."      MOVS     r2,#0
        0x000043f0:    4b12        .K      LDR      r3,[pc,#72] ; [0x443c] = 0x3ff00000
        0x000043f2:    f7fcf867    ..g.    BL       __aeabi_drsub ; 0x4c4
        0x000043f6:    4606        .F      MOV      r6,r0
        0x000043f8:    9803        ..      LDR      r0,[sp,#0xc]
        0x000043fa:    460d        .F      MOV      r5,r1
        0x000043fc:    0500        ..      LSLS     r0,r0,#20
        0x000043fe:    1941        A.      ADDS     r1,r0,r5
        0x00004400:    1509        ..      ASRS     r1,r1,#20
        0x00004402:    2900        .)      CMP      r1,#0
        0x00004404:    dc11        ..      BGT      0x442a ; pow + 2410
        0x00004406:    4630        0F      MOV      r0,r6
        0x00004408:    4629        )F      MOV      r1,r5
        0x0000440a:    9a03        ..      LDR      r2,[sp,#0xc]
        0x0000440c:    f7fcfaf6    ....    BL       __ARM_scalbn ; 0x9fc
        0x00004410:    f7fdfed0    ....    BL       __ARM_fpclassify ; 0x21b4
        0x00004414:    2804        .(      CMP      r0,#4
        0x00004416:    d101        ..      BNE      0x441c ; pow + 2396
        0x00004418:    f7fdff5e    ..^.    BL       __mathlib_dbl_underflow ; 0x22d8
        0x0000441c:    4630        0F      MOV      r0,r6
        0x0000441e:    4629        )F      MOV      r1,r5
        0x00004420:    9a03        ..      LDR      r2,[sp,#0xc]
        0x00004422:    f7fcfaeb    ....    BL       __ARM_scalbn ; 0x9fc
        0x00004426:    4606        .F      MOV      r6,r0
        0x00004428:    e000        ..      B        0x442c ; pow + 2412
        0x0000442a:    1829        ).      ADDS     r1,r5,r0
        0x0000442c:    460b        .F      MOV      r3,r1
        0x0000442e:    4632        2F      MOV      r2,r6
        0x00004430:    4621        !F      MOV      r1,r4
        0x00004432:    980c        ..      LDR      r0,[sp,#0x30]
        0x00004434:    f7fcf84e    ..N.    BL       __aeabi_dmul ; 0x4d4
        0x00004438:    b019        ..      ADD      sp,sp,#0x64
        0x0000443a:    bdf0        ..      POP      {r4-r7,pc}
    $d
        0x0000443c:    3ff00000    ...?    DCD    1072693248
    $t
    i.procNoise
    procNoise
        0x00004440:    b5f3        ..      PUSH     {r0,r1,r4-r7,lr}
        0x00004442:    b087        ..      SUB      sp,sp,#0x1c
        0x00004444:    4606        .F      MOV      r6,r0
        0x00004446:    2000        .       MOVS     r0,#0
        0x00004448:    9006        ..      STR      r0,[sp,#0x18]
        0x0000444a:    9005        ..      STR      r0,[sp,#0x14]
        0x0000444c:    2700        .'      MOVS     r7,#0
        0x0000444e:    9004        ..      STR      r0,[sp,#0x10]
        0x00004450:    4844        DH      LDR      r0,[pc,#272] ; [0x4564] = 0x200003dc
        0x00004452:    2100        .!      MOVS     r1,#0
        0x00004454:    6001        .`      STR      r1,[r0,#0]
        0x00004456:    6041        A`      STR      r1,[r0,#4]
        0x00004458:    6081        .`      STR      r1,[r0,#8]
        0x0000445a:    6006        .`      STR      r6,[r0,#0]
        0x0000445c:    9808        ..      LDR      r0,[sp,#0x20]
        0x0000445e:    0080        ..      LSLS     r0,r0,#2
        0x00004460:    1980        ..      ADDS     r0,r0,r6
        0x00004462:    4940        @I      LDR      r1,[pc,#256] ; [0x4564] = 0x200003dc
        0x00004464:    6048        H`      STR      r0,[r1,#4]
        0x00004466:    4608        .F      MOV      r0,r1
        0x00004468:    6086        .`      STR      r6,[r0,#8]
        0x0000446a:    2000        .       MOVS     r0,#0
        0x0000446c:    493e        >I      LDR      r1,[pc,#248] ; [0x4568] = 0x200003d0
        0x0000446e:    8008        ..      STRH     r0,[r1,#0]
        0x00004470:    8048        H.      STRH     r0,[r1,#2]
        0x00004472:    8088        ..      STRH     r0,[r1,#4]
        0x00004474:    6088        .`      STR      r0,[r1,#8]
        0x00004476:    2500        .%      MOVS     r5,#0
        0x00004478:    e00c        ..      B        0x4494 ; procNoise + 84
        0x0000447a:    483a        :H      LDR      r0,[pc,#232] ; [0x4564] = 0x200003dc
        0x0000447c:    6880        .h      LDR      r0,[r0,#8]
        0x0000447e:    00a9        ..      LSLS     r1,r5,#2
        0x00004480:    1840        @.      ADDS     r0,r0,r1
        0x00004482:    9002        ..      STR      r0,[sp,#8]
        0x00004484:    9802        ..      LDR      r0,[sp,#8]
        0x00004486:    f7fcfddb    ....    BL       Flash_Read ; 0x1040
        0x0000448a:    4604        .F      MOV      r4,r0
        0x0000448c:    9906        ..      LDR      r1,[sp,#0x18]
        0x0000448e:    1908        ..      ADDS     r0,r1,r4
        0x00004490:    9006        ..      STR      r0,[sp,#0x18]
        0x00004492:    1c6d        m.      ADDS     r5,r5,#1
        0x00004494:    204b        K       MOVS     r0,#0x4b
        0x00004496:    0100        ..      LSLS     r0,r0,#4
        0x00004498:    4285        .B      CMP      r5,r0
        0x0000449a:    dbee        ..      BLT      0x447a ; procNoise + 58
        0x0000449c:    4601        .F      MOV      r1,r0
        0x0000449e:    9806        ..      LDR      r0,[sp,#0x18]
        0x000044a0:    f7fbfe5a    ..Z.    BL       __aeabi_idiv ; 0x158
        0x000044a4:    b200        ..      SXTH     r0,r0
        0x000044a6:    4930        0I      LDR      r1,[pc,#192] ; [0x4568] = 0x200003d0
        0x000044a8:    8008        ..      STRH     r0,[r1,#0]
        0x000044aa:    2000        .       MOVS     r0,#0
        0x000044ac:    9006        ..      STR      r0,[sp,#0x18]
        0x000044ae:    2500        .%      MOVS     r5,#0
        0x000044b0:    e036        6.      B        0x4520 ; procNoise + 224
        0x000044b2:    2000        .       MOVS     r0,#0
        0x000044b4:    9003        ..      STR      r0,[sp,#0xc]
        0x000044b6:    e02b        +.      B        0x4510 ; procNoise + 208
        0x000044b8:    482a        *H      LDR      r0,[pc,#168] ; [0x4564] = 0x200003dc
        0x000044ba:    6880        .h      LDR      r0,[r0,#8]
        0x000044bc:    00a9        ..      LSLS     r1,r5,#2
        0x000044be:    1841        A.      ADDS     r1,r0,r1
        0x000044c0:    9803        ..      LDR      r0,[sp,#0xc]
        0x000044c2:    0080        ..      LSLS     r0,r0,#2
        0x000044c4:    1808        ..      ADDS     r0,r1,r0
        0x000044c6:    9002        ..      STR      r0,[sp,#8]
        0x000044c8:    9802        ..      LDR      r0,[sp,#8]
        0x000044ca:    f7fcfdb9    ....    BL       Flash_Read ; 0x1040
        0x000044ce:    4604        .F      MOV      r4,r0
        0x000044d0:    4925        %I      LDR      r1,[pc,#148] ; [0x4568] = 0x200003d0
        0x000044d2:    2000        .       MOVS     r0,#0
        0x000044d4:    5e08        .^      LDRSH    r0,[r1,r0]
        0x000044d6:    42a0        .B      CMP      r0,r4
        0x000044d8:    da03        ..      BGE      0x44e2 ; procNoise + 162
        0x000044da:    2000        .       MOVS     r0,#0
        0x000044dc:    5e08        .^      LDRSH    r0,[r1,r0]
        0x000044de:    1a27        '.      SUBS     r7,r4,r0
        0x000044e0:    e003        ..      B        0x44ea ; procNoise + 170
        0x000044e2:    4921        !I      LDR      r1,[pc,#132] ; [0x4568] = 0x200003d0
        0x000044e4:    2000        .       MOVS     r0,#0
        0x000044e6:    5e08        .^      LDRSH    r0,[r1,r0]
        0x000044e8:    1b07        ..      SUBS     r7,r0,r4
        0x000044ea:    2f00        ./      CMP      r7,#0
        0x000044ec:    da06        ..      BGE      0x44fc ; procNoise + 188
        0x000044ee:    481e        .H      LDR      r0,[pc,#120] ; [0x4568] = 0x200003d0
        0x000044f0:    2100        .!      MOVS     r1,#0
        0x000044f2:    5e41        A^      LDRSH    r1,[r0,r1]
        0x000044f4:    4622        "F      MOV      r2,r4
        0x000044f6:    a01d        ..      ADR      r0,{pc}+0x76 ; 0x456c
        0x000044f8:    f7fdfe34    ..4.    BL       __0printf ; 0x2164
        0x000044fc:    9804        ..      LDR      r0,[sp,#0x10]
        0x000044fe:    4287        .B      CMP      r7,r0
        0x00004500:    dd00        ..      BLE      0x4504 ; procNoise + 196
        0x00004502:    9704        ..      STR      r7,[sp,#0x10]
        0x00004504:    9805        ..      LDR      r0,[sp,#0x14]
        0x00004506:    19c0        ..      ADDS     r0,r0,r7
        0x00004508:    9005        ..      STR      r0,[sp,#0x14]
        0x0000450a:    9803        ..      LDR      r0,[sp,#0xc]
        0x0000450c:    1c40        @.      ADDS     r0,r0,#1
        0x0000450e:    9003        ..      STR      r0,[sp,#0xc]
        0x00004510:    9803        ..      LDR      r0,[sp,#0xc]
        0x00004512:    2878        x(      CMP      r0,#0x78
        0x00004514:    dbd0        ..      BLT      0x44b8 ; procNoise + 120
        0x00004516:    9904        ..      LDR      r1,[sp,#0x10]
        0x00004518:    9806        ..      LDR      r0,[sp,#0x18]
        0x0000451a:    1840        @.      ADDS     r0,r0,r1
        0x0000451c:    9006        ..      STR      r0,[sp,#0x18]
        0x0000451e:    3578        x5      ADDS     r5,r5,#0x78
        0x00004520:    204b        K       MOVS     r0,#0x4b
        0x00004522:    0100        ..      LSLS     r0,r0,#4
        0x00004524:    4285        .B      CMP      r5,r0
        0x00004526:    dbc4        ..      BLT      0x44b2 ; procNoise + 114
        0x00004528:    210a        .!      MOVS     r1,#0xa
        0x0000452a:    9806        ..      LDR      r0,[sp,#0x18]
        0x0000452c:    f7fbfe14    ....    BL       __aeabi_idiv ; 0x158
        0x00004530:    b200        ..      SXTH     r0,r0
        0x00004532:    490d        .I      LDR      r1,[pc,#52] ; [0x4568] = 0x200003d0
        0x00004534:    8048        H.      STRH     r0,[r1,#2]
        0x00004536:    210a        .!      MOVS     r1,#0xa
        0x00004538:    9805        ..      LDR      r0,[sp,#0x14]
        0x0000453a:    f7fbfe0d    ....    BL       __aeabi_idiv ; 0x158
        0x0000453e:    210b        .!      MOVS     r1,#0xb
        0x00004540:    4348        HC      MULS     r0,r1,r0
        0x00004542:    210a        .!      MOVS     r1,#0xa
        0x00004544:    9001        ..      STR      r0,[sp,#4]
        0x00004546:    f7fbfe07    ....    BL       __aeabi_idiv ; 0x158
        0x0000454a:    4907        .I      LDR      r1,[pc,#28] ; [0x4568] = 0x200003d0
        0x0000454c:    6088        .`      STR      r0,[r1,#8]
        0x0000454e:    2001        .       MOVS     r0,#1
        0x00004550:    8088        ..      STRH     r0,[r1,#4]
        0x00004552:    4804        .H      LDR      r0,[pc,#16] ; [0x4564] = 0x200003dc
        0x00004554:    6880        .h      LDR      r0,[r0,#8]
        0x00004556:    214b        K!      MOVS     r1,#0x4b
        0x00004558:    0189        ..      LSLS     r1,r1,#6
        0x0000455a:    1840        @.      ADDS     r0,r0,r1
        0x0000455c:    4901        .I      LDR      r1,[pc,#4] ; [0x4564] = 0x200003dc
        0x0000455e:    6088        .`      STR      r0,[r1,#8]
        0x00004560:    b009        ..      ADD      sp,sp,#0x24
        0x00004562:    bdf0        ..      POP      {r4-r7,pc}
    $d
        0x00004564:    200003dc    ...     DCD    536871900
        0x00004568:    200003d0    ...     DCD    536871888
        0x0000456c:    6f727245    Erro    DCD    1869771333
        0x00004570:    70203a72    r: p    DCD    1881160306
        0x00004574:    4e636f72    rocN    DCD    1315139442
        0x00004578:    6573696f    oise    DCD    1702062447
        0x0000457c:    64696d20     mid    DCD    1684630816
        0x00004580:    64253d64    d=%d    DCD    1680162148
        0x00004584:    6c617620     val    DCD    1818326560
        0x00004588:    0a64253d    =%d.    DCD    174335293
        0x0000458c:    00000000    ....    DCD    0
    $t
    i.sqrt
    sqrt
        0x00004590:    b5f8        ..      PUSH     {r3-r7,lr}
        0x00004592:    4606        .F      MOV      r6,r0
        0x00004594:    460c        .F      MOV      r4,r1
        0x00004596:    f7fcfa47    ..G.    BL       _dsqrt ; 0xa28
        0x0000459a:    0005        ..      MOVS     r5,r0
        0x0000459c:    460f        .F      MOV      r7,r1
        0x0000459e:    d000        ..      BEQ      0x45a2 ; sqrt + 18
        0x000045a0:    2001        .       MOVS     r0,#1
        0x000045a2:    4301        .C      ORRS     r1,r1,r0
        0x000045a4:    0049        I.      LSLS     r1,r1,#1
        0x000045a6:    480b        .H      LDR      r0,[pc,#44] ; [0x45d4] = 0x7ff00000
        0x000045a8:    0849        I.      LSRS     r1,r1,#1
        0x000045aa:    1a41        A.      SUBS     r1,r0,r1
        0x000045ac:    0fc9        ..      LSRS     r1,r1,#31
        0x000045ae:    d00d        ..      BEQ      0x45cc ; sqrt + 60
        0x000045b0:    2e00        ..      CMP      r6,#0
        0x000045b2:    d001        ..      BEQ      0x45b8 ; sqrt + 40
        0x000045b4:    2101        .!      MOVS     r1,#1
        0x000045b6:    e000        ..      B        0x45ba ; sqrt + 42
        0x000045b8:    2100        .!      MOVS     r1,#0
        0x000045ba:    430c        .C      ORRS     r4,r4,r1
        0x000045bc:    0061        a.      LSLS     r1,r4,#1
        0x000045be:    0849        I.      LSRS     r1,r1,#1
        0x000045c0:    1a40        @.      SUBS     r0,r0,r1
        0x000045c2:    0fc0        ..      LSRS     r0,r0,#31
        0x000045c4:    d102        ..      BNE      0x45cc ; sqrt + 60
        0x000045c6:    2001        .       MOVS     r0,#1
        0x000045c8:    f7fdfea0    ....    BL       __set_errno ; 0x230c
        0x000045cc:    4628        (F      MOV      r0,r5
        0x000045ce:    4639        9F      MOV      r1,r7
        0x000045d0:    bdf8        ..      POP      {r3-r7,pc}
    $d
        0x000045d2:    0000        ..      DCW    0
        0x000045d4:    7ff00000    ....    DCD    2146435072
    $t
    i.stop_Flash
    stop_Flash
        0x000045d8:    b510        ..      PUSH     {r4,lr}
        0x000045da:    f7fcfcbb    ....    BL       FMC_DisableLDUpdate ; 0xf54
        0x000045de:    f7fcfcaf    ....    BL       FMC_Close ; 0xf40
        0x000045e2:    f7fdfc13    ....    BL       SYS_LockReg ; 0x1e0c
        0x000045e6:    bd10        ..      POP      {r4,pc}
    i.sub
    sub
        0x000045e8:    b40f        ..      PUSH     {r0-r3}
        0x000045ea:    b51c        ..      PUSH     {r2-r4,lr}
        0x000045ec:    4604        .F      MOV      r4,r0
        0x000045ee:    9907        ..      LDR      r1,[sp,#0x1c]
        0x000045f0:    9805        ..      LDR      r0,[sp,#0x14]
        0x000045f2:    f7fbfe3a    ..:.    BL       __aeabi_fsub ; 0x26a
        0x000045f6:    9000        ..      STR      r0,[sp,#0]
        0x000045f8:    9908        ..      LDR      r1,[sp,#0x20]
        0x000045fa:    9806        ..      LDR      r0,[sp,#0x18]
        0x000045fc:    f7fbfe35    ..5.    BL       __aeabi_fsub ; 0x26a
        0x00004600:    9001        ..      STR      r0,[sp,#4]
        0x00004602:    9901        ..      LDR      r1,[sp,#4]
        0x00004604:    9800        ..      LDR      r0,[sp,#0]
        0x00004606:    6061        a`      STR      r1,[r4,#4]
        0x00004608:    6020         `      STR      r0,[r4,#0]
        0x0000460a:    bc1c        ..      POP      {r2-r4}
        0x0000460c:    bc08        ..      POP      {r3}
        0x0000460e:    b004        ..      ADD      sp,sp,#0x10
        0x00004610:    4718        .G      BX       r3
        0x00004612:    0000        ..      MOVS     r0,r0
    i.vad
    vad
        0x00004614:    b5f8        ..      PUSH     {r3-r7,lr}
        0x00004616:    2000        .       MOVS     r0,#0
        0x00004618:    9000        ..      STR      r0,[sp,#0]
        0x0000461a:    4935        5I      LDR      r1,[pc,#212] ; [0x46f0] = 0x20000120
        0x0000461c:    6008        .`      STR      r0,[r1,#0]
        0x0000461e:    6048        H`      STR      r0,[r1,#4]
        0x00004620:    4834        4H      LDR      r0,[pc,#208] ; [0x46f4] = 0x200003dc
        0x00004622:    6880        .h      LDR      r0,[r0,#8]
        0x00004624:    4604        .F      MOV      r4,r0
        0x00004626:    34ff        .4      ADDS     r4,r4,#0xff
        0x00004628:    34e1        .4      ADDS     r4,r4,#0xe1
        0x0000462a:    e037        7.      B        0x469c ; vad + 136
        0x0000462c:    4620         F      MOV      r0,r4
        0x0000462e:    f7fefb6f    ..o.    BL       cal_zeros ; 0x2d10
        0x00004632:    4607        .F      MOV      r7,r0
        0x00004634:    4620         F      MOV      r0,r4
        0x00004636:    f7fefb39    ..9.    BL       cal_sumabs ; 0x2cac
        0x0000463a:    4605        .F      MOV      r5,r0
        0x0000463c:    492e        .I      LDR      r1,[pc,#184] ; [0x46f8] = 0x200003d0
        0x0000463e:    2004        .       MOVS     r0,#4
        0x00004640:    5e08        .^      LDRSH    r0,[r1,r0]
        0x00004642:    42b8        .B      CMP      r0,r7
        0x00004644:    d303        ..      BCC      0x464e ; vad + 58
        0x00004646:    4608        .F      MOV      r0,r1
        0x00004648:    6880        .h      LDR      r0,[r0,#8]
        0x0000464a:    42a8        .B      CMP      r0,r5
        0x0000464c:    d20a        ..      BCS      0x4664 ; vad + 80
        0x0000464e:    4828        (H      LDR      r0,[pc,#160] ; [0x46f0] = 0x20000120
        0x00004650:    6800        .h      LDR      r0,[r0,#0]
        0x00004652:    2800        .(      CMP      r0,#0
        0x00004654:    d104        ..      BNE      0x4660 ; vad + 76
        0x00004656:    4620         F      MOV      r0,r4
        0x00004658:    38ff        .8      SUBS     r0,r0,#0xff
        0x0000465a:    38e1        .8      SUBS     r0,r0,#0xe1
        0x0000465c:    4924        $I      LDR      r1,[pc,#144] ; [0x46f0] = 0x20000120
        0x0000465e:    6008        .`      STR      r0,[r1,#0]
        0x00004660:    2600        .&      MOVS     r6,#0
        0x00004662:    e019        ..      B        0x4698 ; vad + 132
        0x00004664:    4822        "H      LDR      r0,[pc,#136] ; [0x46f0] = 0x20000120
        0x00004666:    6800        .h      LDR      r0,[r0,#0]
        0x00004668:    2800        .(      CMP      r0,#0
        0x0000466a:    d015        ..      BEQ      0x4698 ; vad + 132
        0x0000466c:    4820         H      LDR      r0,[pc,#128] ; [0x46f0] = 0x20000120
        0x0000466e:    6800        .h      LDR      r0,[r0,#0]
        0x00004670:    1a20         .      SUBS     r0,r4,r0
        0x00004672:    2137        7!      MOVS     r1,#0x37
        0x00004674:    0149        I.      LSLS     r1,r1,#5
        0x00004676:    4288        .B      CMP      r0,r1
        0x00004678:    d204        ..      BCS      0x4684 ; vad + 112
        0x0000467a:    2000        .       MOVS     r0,#0
        0x0000467c:    491c        .I      LDR      r1,[pc,#112] ; [0x46f0] = 0x20000120
        0x0000467e:    6008        .`      STR      r0,[r1,#0]
        0x00004680:    6048        H`      STR      r0,[r1,#4]
        0x00004682:    e009        ..      B        0x4698 ; vad + 132
        0x00004684:    3678        x6      ADDS     r6,r6,#0x78
        0x00004686:    204b        K       MOVS     r0,#0x4b
        0x00004688:    00c0        ..      LSLS     r0,r0,#3
        0x0000468a:    4286        .B      CMP      r6,r0
        0x0000468c:    d304        ..      BCC      0x4698 ; vad + 132
        0x0000468e:    00b0        ..      LSLS     r0,r6,#2
        0x00004690:    1a20         .      SUBS     r0,r4,r0
        0x00004692:    4917        .I      LDR      r1,[pc,#92] ; [0x46f0] = 0x20000120
        0x00004694:    6048        H`      STR      r0,[r1,#4]
        0x00004696:    e005        ..      B        0x46a4 ; vad + 144
        0x00004698:    34ff        .4      ADDS     r4,r4,#0xff
        0x0000469a:    34e1        .4      ADDS     r4,r4,#0xe1
        0x0000469c:    4815        .H      LDR      r0,[pc,#84] ; [0x46f4] = 0x200003dc
        0x0000469e:    6840        @h      LDR      r0,[r0,#4]
        0x000046a0:    42a0        .B      CMP      r0,r4
        0x000046a2:    d8c3        ..      BHI      0x462c ; vad + 24
        0x000046a4:    bf00        ..      NOP      
        0x000046a6:    4812        .H      LDR      r0,[pc,#72] ; [0x46f0] = 0x20000120
        0x000046a8:    6840        @h      LDR      r0,[r0,#4]
        0x000046aa:    2800        .(      CMP      r0,#0
        0x000046ac:    d110        ..      BNE      0x46d0 ; vad + 188
        0x000046ae:    a013        ..      ADR      r0,{pc}+0x4e ; 0x46fc
        0x000046b0:    f7fdfd58    ..X.    BL       __0printf ; 0x2164
        0x000046b4:    480e        .H      LDR      r0,[pc,#56] ; [0x46f0] = 0x20000120
        0x000046b6:    6801        .h      LDR      r1,[r0,#0]
        0x000046b8:    a016        ..      ADR      r0,{pc}+0x5c ; 0x4714
        0x000046ba:    f7fdfd53    ..S.    BL       __0printf ; 0x2164
        0x000046be:    480c        .H      LDR      r0,[pc,#48] ; [0x46f0] = 0x20000120
        0x000046c0:    6841        Ah      LDR      r1,[r0,#4]
        0x000046c2:    a018        ..      ADR      r0,{pc}+0x62 ; 0x4724
        0x000046c4:    f7fdfd4e    ..N.    BL       __0printf ; 0x2164
        0x000046c8:    2000        .       MOVS     r0,#0
        0x000046ca:    43c0        .C      MVNS     r0,r0
        0x000046cc:    9000        ..      STR      r0,[sp,#0]
        0x000046ce:    e00c        ..      B        0x46ea ; vad + 214
        0x000046d0:    a018        ..      ADR      r0,{pc}+0x64 ; 0x4734
        0x000046d2:    f7fdfd47    ..G.    BL       __0printf ; 0x2164
        0x000046d6:    4806        .H      LDR      r0,[pc,#24] ; [0x46f0] = 0x20000120
        0x000046d8:    6801        .h      LDR      r1,[r0,#0]
        0x000046da:    a00e        ..      ADR      r0,{pc}+0x3a ; 0x4714
        0x000046dc:    f7fdfd42    ..B.    BL       __0printf ; 0x2164
        0x000046e0:    4803        .H      LDR      r0,[pc,#12] ; [0x46f0] = 0x20000120
        0x000046e2:    6841        Ah      LDR      r1,[r0,#4]
        0x000046e4:    a00f        ..      ADR      r0,{pc}+0x40 ; 0x4724
        0x000046e6:    f7fdfd3d    ..=.    BL       __0printf ; 0x2164
        0x000046ea:    9800        ..      LDR      r0,[sp,#0]
        0x000046ec:    b200        ..      SXTH     r0,r0
        0x000046ee:    bdf8        ..      POP      {r3-r7,pc}
    $d
        0x000046f0:    20000120     ..     DCD    536871200
        0x000046f4:    200003dc    ...     DCD    536871900
        0x000046f8:    200003d0    ...     DCD    536871888
        0x000046fc:    20646156    Vad     DCD    543449430
        0x00004700:    63656843    Chec    DCD    1667590211
        0x00004704:    6552206b    k Re    DCD    1699881067
        0x00004708:    746c7573    sult    DCD    1953265011
        0x0000470c:    4146203a    : FA    DCD    1095114810
        0x00004710:    000a4c49    IL..    DCD    674889
        0x00004714:    41676542    BegA    DCD    1097295170
        0x00004718:    20726464    ddr     DCD    544367716
        0x0000471c:    6425203d    = %d    DCD    1680154685
        0x00004720:    0000000a    ....    DCD    10
        0x00004724:    41646e45    EndA    DCD    1097100869
        0x00004728:    20726464    ddr     DCD    544367716
        0x0000472c:    6425203d    = %d    DCD    1680154685
        0x00004730:    0000000a    ....    DCD    10
        0x00004734:    20646156    Vad     DCD    543449430
        0x00004738:    63656843    Chec    DCD    1667590211
        0x0000473c:    6552206b    k Re    DCD    1699881067
        0x00004740:    746c7573    sult    DCD    1953265011
        0x00004744:    5553203a    : SU    DCD    1431511098
        0x00004748:    53454343    CCES    DCD    1397048131
        0x0000474c:    00000a53    S...    DCD    2643
    $d.realdata
    .constdata
        0x00004750:    00003e80    .>..    DCD    16000
        0x00004754:    00008000    ....    DCD    32768
        0x00004758:    00000000    ....    DCD    0
        0x0000475c:    00000000    ....    DCD    0
        0x00004760:    02ee0000    ....    DCD    49152000
    .constdata
    MFC_HAM_FRAMES
        0x00004764:    3da3d70a    ...=    DCD    1034147594
        0x00004768:    3da4a8c1    ...=    DCD    1034201281
        0x0000476c:    3da6b50b    ...=    DCD    1034335499
        0x00004770:    3daa64c3    .d.=    DCD    1034577091
        0x00004774:    3daf837b    {..=    DCD    1034912635
        0x00004778:    3db61134    4..=    DCD    1035342132
        0x0000477c:    3dbe425b    [B.=    DCD    1035879003
        0x00004780:    3dc7ae14    ...=    DCD    1036496404
        0x00004784:    3dd288ce    ...=    DCD    1037207758
        0x00004788:    3dded289    ...=    DCD    1038013065
        0x0000478c:    3dec8b44    D..=    DCD    1038912324
        0x00004790:    3dfb7e91    .~.=    DCD    1039892113
        0x00004794:    3e05f06f    o..>    DCD    1040576623
        0x00004798:    3e0ebee0    ...>    DCD    1041153760
        0x0000479c:    3e182a99    .*.>    DCD    1041771161
        0x000047a0:    3e224dd3    .M">    DCD    1042435539
        0x000047a4:    3e2cf41f    ..,>    DCD    1043133471
        0x000047a8:    3e3851ec    .Q8>    DCD    1043878380
        0x000047ac:    3e441893    ..D>    DCD    1044650131
        0x000047b0:    3e5096bc    ..P>    DCD    1045468860
        0x000047b4:    3e5d7dbf    .}]>    DCD    1046314431
        0x000047b8:    3e6b020c    ..k>    DCD    1047200268
        0x000047bc:    3e79096c    l.y>    DCD    1048119660
        0x000047c0:    3e83bcd3    ...>    DCD    1048820947
        0x000047c4:    3e8b295f    _).>    DCD    1049307487
        0x000047c8:    3e92d773    s..>    DCD    1049810803
        0x000047cc:    3e9ab9f5    ...>    DCD    1050327541
        0x000047d0:    3ea2c3ca    ...>    DCD    1050854346
        0x000047d4:    3eab020c    ...>    DCD    1051394572
        0x000047d8:    3eb367a1    .g.>    DCD    1051944865
        0x000047dc:    3ebbf488    ...>    DCD    1052505224
        0x000047e0:    3ec4a8c1    ...>    DCD    1053075649
        0x000047e4:    3ecd7732    2w.>    DCD    1053652786
        0x000047e8:    3ed65fd9    ._.>    DCD    1054236633
        0x000047ec:    3edf6fd2    .o.>    DCD    1054830546
        0x000047f0:    3ee88ce7    ...>    DCD    1055427815
        0x000047f4:    3ef1b717    ...>    DCD    1056028439
        0x000047f8:    3efaee63    c..>    DCD    1056632419
        0x000047fc:    3f021965    e..?    DCD    1057102181
        0x00004800:    3f06c227    '..?    DCD    1057407527
        0x00004804:    3f0b645a    Zd.?    DCD    1057711194
        0x00004808:    3f100d1b    ...?    DCD    1058016539
        0x0000480c:    3f14af4f    O..?    DCD    1058320207
        0x00004810:    3f195183    .Q.?    DCD    1058623875
        0x00004814:    3f1ded29    )..?    DCD    1058925865
        0x00004818:    3f228241    A."?    DCD    1059226177
        0x0000481c:    3f270a3d    =.'?    DCD    1059523133
        0x00004820:    3f2b851f    ..+?    DCD    1059816735
        0x00004824:    3f2ff2e5    ../?    DCD    1060106981
        0x00004828:    3f34538f    .S4?    DCD    1060393871
        0x0000482c:    3f38a71e    ..8?    DCD    1060677406
        0x00004830:    3f3ce076    v.<?    DCD    1060954230
        0x00004834:    3f410cb3    ..A?    DCD    1061227699
        0x00004838:    3f451eb8    ..E?    DCD    1061494456
        0x0000483c:    3f491d15    ..I?    DCD    1061756181
        0x00004840:    3f4cfaad    ..L?    DCD    1062009517
        0x00004844:    3f50c49c    ..P?    DCD    1062257820
        0x00004848:    3f546dc6    .mT?    DCD    1062497734
        0x0000484c:    3f57fcb9    ..W?    DCD    1062730937
        0x00004850:    3f5b6ae8    .j[?    DCD    1062955752
        0x00004854:    3f5ebee0    ..^?    DCD    1063173856
        0x00004858:    3f61eb85    ..a?    DCD    1063381893
        0x0000485c:    3f64f0d8    ..d?    DCD    1063579864
        0x00004860:    3f67d567    g.g?    DCD    1063769447
        0x00004864:    3f6a9931    1.j?    DCD    1063950641
        0x00004868:    3f6d2f1b    ./m?    DCD    1064120091
        0x0000486c:    3f6fa440    @.o?    DCD    1064281152
        0x00004870:    3f71eb85    ..q?    DCD    1064430469
        0x00004874:    3f740b78    x.t?    DCD    1064569720
        0x00004878:    3f760419    ..v?    DCD    1064698905
        0x0000487c:    3f77ced9    ..w?    DCD    1064816345
        0x00004880:    3f796bba    .ky?    DCD    1064922042
        0x00004884:    3f7adaba    ..z?    DCD    1065015994
        0x00004888:    3f7c2268    h"|?    DCD    1065099880
        0x0000488c:    3f7d3c36    6<}?    DCD    1065172022
        0x00004890:    3f7e2196    .!~?    DCD    1065230742
        0x00004894:    3f7edfa4    ..~?    DCD    1065279396
        0x00004898:    3f7f6fd2    .o.?    DCD    1065316306
        0x0000489c:    3f7fcb92    ...?    DCD    1065339794
        0x000048a0:    3f7ff972    r..?    DCD    1065351538
        0x000048a4:    00000000    ....    DCD    0
        0x000048a8:    00000000    ....    DCD    0
        0x000048ac:    00000000    ....    DCD    0
        0x000048b0:    00000000    ....    DCD    0
        0x000048b4:    00000000    ....    DCD    0
        0x000048b8:    00000000    ....    DCD    0
        0x000048bc:    00000000    ....    DCD    0
        0x000048c0:    00000000    ....    DCD    0
        0x000048c4:    00000000    ....    DCD    0
        0x000048c8:    00000000    ....    DCD    0
        0x000048cc:    00000000    ....    DCD    0
        0x000048d0:    00000000    ....    DCD    0
        0x000048d4:    00000000    ....    DCD    0
        0x000048d8:    00000000    ....    DCD    0
        0x000048dc:    00000000    ....    DCD    0
        0x000048e0:    00000000    ....    DCD    0
        0x000048e4:    00000000    ....    DCD    0
        0x000048e8:    00000000    ....    DCD    0
        0x000048ec:    00000000    ....    DCD    0
        0x000048f0:    00000000    ....    DCD    0
        0x000048f4:    00000000    ....    DCD    0
        0x000048f8:    00000000    ....    DCD    0
        0x000048fc:    00000000    ....    DCD    0
        0x00004900:    00000000    ....    DCD    0
        0x00004904:    00000000    ....    DCD    0
        0x00004908:    00000000    ....    DCD    0
        0x0000490c:    00000000    ....    DCD    0
        0x00004910:    00000000    ....    DCD    0
        0x00004914:    00000000    ....    DCD    0
        0x00004918:    00000000    ....    DCD    0
        0x0000491c:    00000000    ....    DCD    0
        0x00004920:    00000000    ....    DCD    0
        0x00004924:    00000000    ....    DCD    0
        0x00004928:    00000000    ....    DCD    0
        0x0000492c:    00000000    ....    DCD    0
        0x00004930:    00000000    ....    DCD    0
        0x00004934:    00000000    ....    DCD    0
        0x00004938:    00000000    ....    DCD    0
        0x0000493c:    00000000    ....    DCD    0
        0x00004940:    00000000    ....    DCD    0
    MFC_BIT_REVSER
        0x00004944:    01000000    ....    DCD    16777216
        0x00004948:    01800080    ....    DCD    25165952
        0x0000494c:    01400040    @.@.    DCD    20971584
        0x00004950:    01c000c0    ....    DCD    29360320
        0x00004954:    01200020     . .    DCD    18874400
        0x00004958:    01a000a0    ....    DCD    27263136
        0x0000495c:    01600060    `.`.    DCD    23068768
        0x00004960:    01e000e0    ....    DCD    31457504
        0x00004964:    01100010    ....    DCD    17825808
        0x00004968:    01900090    ....    DCD    26214544
        0x0000496c:    01500050    P.P.    DCD    22020176
        0x00004970:    01d000d0    ....    DCD    30408912
        0x00004974:    01300030    0.0.    DCD    19922992
        0x00004978:    01b000b0    ....    DCD    28311728
        0x0000497c:    01700070    p.p.    DCD    24117360
        0x00004980:    01f000f0    ....    DCD    32506096
        0x00004984:    01080008    ....    DCD    17301512
        0x00004988:    01880088    ....    DCD    25690248
        0x0000498c:    01480048    H.H.    DCD    21495880
        0x00004990:    01c800c8    ....    DCD    29884616
        0x00004994:    01280028    (.(.    DCD    19398696
        0x00004998:    01a800a8    ....    DCD    27787432
        0x0000499c:    01680068    h.h.    DCD    23593064
        0x000049a0:    01e800e8    ....    DCD    31981800
        0x000049a4:    01180018    ....    DCD    18350104
        0x000049a8:    01980098    ....    DCD    26738840
        0x000049ac:    01580058    X.X.    DCD    22544472
        0x000049b0:    01d800d8    ....    DCD    30933208
        0x000049b4:    01380038    8.8.    DCD    20447288
        0x000049b8:    01b800b8    ....    DCD    28836024
        0x000049bc:    01780078    x.x.    DCD    24641656
        0x000049c0:    01f800f8    ....    DCD    33030392
        0x000049c4:    01040004    ....    DCD    17039364
        0x000049c8:    01840084    ....    DCD    25428100
        0x000049cc:    01440044    D.D.    DCD    21233732
        0x000049d0:    01c400c4    ....    DCD    29622468
        0x000049d4:    01240024    $.$.    DCD    19136548
        0x000049d8:    01a400a4    ....    DCD    27525284
        0x000049dc:    01640064    d.d.    DCD    23330916
        0x000049e0:    01e400e4    ....    DCD    31719652
        0x000049e4:    01140014    ....    DCD    18087956
        0x000049e8:    01940094    ....    DCD    26476692
        0x000049ec:    01540054    T.T.    DCD    22282324
        0x000049f0:    01d400d4    ....    DCD    30671060
        0x000049f4:    01340034    4.4.    DCD    20185140
        0x000049f8:    01b400b4    ....    DCD    28573876
        0x000049fc:    01740074    t.t.    DCD    24379508
        0x00004a00:    01f400f4    ....    DCD    32768244
        0x00004a04:    010c000c    ....    DCD    17563660
        0x00004a08:    018c008c    ....    DCD    25952396
        0x00004a0c:    014c004c    L.L.    DCD    21758028
        0x00004a10:    01cc00cc    ....    DCD    30146764
        0x00004a14:    012c002c    ,.,.    DCD    19660844
        0x00004a18:    01ac00ac    ....    DCD    28049580
        0x00004a1c:    016c006c    l.l.    DCD    23855212
        0x00004a20:    01ec00ec    ....    DCD    32243948
        0x00004a24:    011c001c    ....    DCD    18612252
        0x00004a28:    019c009c    ....    DCD    27000988
        0x00004a2c:    015c005c    \.\.    DCD    22806620
        0x00004a30:    01dc00dc    ....    DCD    31195356
        0x00004a34:    013c003c    <.<.    DCD    20709436
        0x00004a38:    01bc00bc    ....    DCD    29098172
        0x00004a3c:    017c007c    |.|.    DCD    24903804
        0x00004a40:    01fc00fc    ....    DCD    33292540
        0x00004a44:    01020002    ....    DCD    16908290
        0x00004a48:    01820082    ....    DCD    25297026
        0x00004a4c:    01420042    B.B.    DCD    21102658
        0x00004a50:    01c200c2    ....    DCD    29491394
        0x00004a54:    01220022    ".".    DCD    19005474
        0x00004a58:    01a200a2    ....    DCD    27394210
        0x00004a5c:    01620062    b.b.    DCD    23199842
        0x00004a60:    01e200e2    ....    DCD    31588578
        0x00004a64:    01120012    ....    DCD    17956882
        0x00004a68:    01920092    ....    DCD    26345618
        0x00004a6c:    01520052    R.R.    DCD    22151250
        0x00004a70:    01d200d2    ....    DCD    30539986
        0x00004a74:    01320032    2.2.    DCD    20054066
        0x00004a78:    01b200b2    ....    DCD    28442802
        0x00004a7c:    01720072    r.r.    DCD    24248434
        0x00004a80:    01f200f2    ....    DCD    32637170
        0x00004a84:    010a000a    ....    DCD    17432586
        0x00004a88:    018a008a    ....    DCD    25821322
        0x00004a8c:    014a004a    J.J.    DCD    21626954
        0x00004a90:    01ca00ca    ....    DCD    30015690
        0x00004a94:    012a002a    *.*.    DCD    19529770
        0x00004a98:    01aa00aa    ....    DCD    27918506
        0x00004a9c:    016a006a    j.j.    DCD    23724138
        0x00004aa0:    01ea00ea    ....    DCD    32112874
        0x00004aa4:    011a001a    ....    DCD    18481178
        0x00004aa8:    019a009a    ....    DCD    26869914
        0x00004aac:    015a005a    Z.Z.    DCD    22675546
        0x00004ab0:    01da00da    ....    DCD    31064282
        0x00004ab4:    013a003a    :.:.    DCD    20578362
        0x00004ab8:    01ba00ba    ....    DCD    28967098
        0x00004abc:    017a007a    z.z.    DCD    24772730
        0x00004ac0:    01fa00fa    ....    DCD    33161466
        0x00004ac4:    01060006    ....    DCD    17170438
        0x00004ac8:    01860086    ....    DCD    25559174
        0x00004acc:    01460046    F.F.    DCD    21364806
        0x00004ad0:    01c600c6    ....    DCD    29753542
        0x00004ad4:    01260026    &.&.    DCD    19267622
        0x00004ad8:    01a600a6    ....    DCD    27656358
        0x00004adc:    01660066    f.f.    DCD    23461990
        0x00004ae0:    01e600e6    ....    DCD    31850726
        0x00004ae4:    01160016    ....    DCD    18219030
        0x00004ae8:    01960096    ....    DCD    26607766
        0x00004aec:    01560056    V.V.    DCD    22413398
        0x00004af0:    01d600d6    ....    DCD    30802134
        0x00004af4:    01360036    6.6.    DCD    20316214
        0x00004af8:    01b600b6    ....    DCD    28704950
        0x00004afc:    01760076    v.v.    DCD    24510582
        0x00004b00:    01f600f6    ....    DCD    32899318
        0x00004b04:    010e000e    ....    DCD    17694734
        0x00004b08:    018e008e    ....    DCD    26083470
        0x00004b0c:    014e004e    N.N.    DCD    21889102
        0x00004b10:    01ce00ce    ....    DCD    30277838
        0x00004b14:    012e002e    ....    DCD    19791918
        0x00004b18:    01ae00ae    ....    DCD    28180654
        0x00004b1c:    016e006e    n.n.    DCD    23986286
        0x00004b20:    01ee00ee    ....    DCD    32375022
        0x00004b24:    011e001e    ....    DCD    18743326
        0x00004b28:    019e009e    ....    DCD    27132062
        0x00004b2c:    015e005e    ^.^.    DCD    22937694
        0x00004b30:    01de00de    ....    DCD    31326430
        0x00004b34:    013e003e    >.>.    DCD    20840510
        0x00004b38:    01be00be    ....    DCD    29229246
        0x00004b3c:    017e007e    ~.~.    DCD    25034878
        0x00004b40:    01fe00fe    ....    DCD    33423614
        0x00004b44:    01010001    ....    DCD    16842753
        0x00004b48:    01810081    ....    DCD    25231489
        0x00004b4c:    01410041    A.A.    DCD    21037121
        0x00004b50:    01c100c1    ....    DCD    29425857
        0x00004b54:    01210021    !.!.    DCD    18939937
        0x00004b58:    01a100a1    ....    DCD    27328673
        0x00004b5c:    01610061    a.a.    DCD    23134305
        0x00004b60:    01e100e1    ....    DCD    31523041
        0x00004b64:    01110011    ....    DCD    17891345
        0x00004b68:    01910091    ....    DCD    26280081
        0x00004b6c:    01510051    Q.Q.    DCD    22085713
        0x00004b70:    01d100d1    ....    DCD    30474449
        0x00004b74:    01310031    1.1.    DCD    19988529
        0x00004b78:    01b100b1    ....    DCD    28377265
        0x00004b7c:    01710071    q.q.    DCD    24182897
        0x00004b80:    01f100f1    ....    DCD    32571633
        0x00004b84:    01090009    ....    DCD    17367049
        0x00004b88:    01890089    ....    DCD    25755785
        0x00004b8c:    01490049    I.I.    DCD    21561417
        0x00004b90:    01c900c9    ....    DCD    29950153
        0x00004b94:    01290029    ).).    DCD    19464233
        0x00004b98:    01a900a9    ....    DCD    27852969
        0x00004b9c:    01690069    i.i.    DCD    23658601
        0x00004ba0:    01e900e9    ....    DCD    32047337
        0x00004ba4:    01190019    ....    DCD    18415641
        0x00004ba8:    01990099    ....    DCD    26804377
        0x00004bac:    01590059    Y.Y.    DCD    22610009
        0x00004bb0:    01d900d9    ....    DCD    30998745
        0x00004bb4:    01390039    9.9.    DCD    20512825
        0x00004bb8:    01b900b9    ....    DCD    28901561
        0x00004bbc:    01790079    y.y.    DCD    24707193
        0x00004bc0:    01f900f9    ....    DCD    33095929
        0x00004bc4:    01050005    ....    DCD    17104901
        0x00004bc8:    01850085    ....    DCD    25493637
        0x00004bcc:    01450045    E.E.    DCD    21299269
        0x00004bd0:    01c500c5    ....    DCD    29688005
        0x00004bd4:    01250025    %.%.    DCD    19202085
        0x00004bd8:    01a500a5    ....    DCD    27590821
        0x00004bdc:    01650065    e.e.    DCD    23396453
        0x00004be0:    01e500e5    ....    DCD    31785189
        0x00004be4:    01150015    ....    DCD    18153493
        0x00004be8:    01950095    ....    DCD    26542229
        0x00004bec:    01550055    U.U.    DCD    22347861
        0x00004bf0:    01d500d5    ....    DCD    30736597
        0x00004bf4:    01350035    5.5.    DCD    20250677
        0x00004bf8:    01b500b5    ....    DCD    28639413
        0x00004bfc:    01750075    u.u.    DCD    24445045
        0x00004c00:    01f500f5    ....    DCD    32833781
        0x00004c04:    010d000d    ....    DCD    17629197
        0x00004c08:    018d008d    ....    DCD    26017933
        0x00004c0c:    014d004d    M.M.    DCD    21823565
        0x00004c10:    01cd00cd    ....    DCD    30212301
        0x00004c14:    012d002d    -.-.    DCD    19726381
        0x00004c18:    01ad00ad    ....    DCD    28115117
        0x00004c1c:    016d006d    m.m.    DCD    23920749
        0x00004c20:    01ed00ed    ....    DCD    32309485
        0x00004c24:    011d001d    ....    DCD    18677789
        0x00004c28:    019d009d    ....    DCD    27066525
        0x00004c2c:    015d005d    ].].    DCD    22872157
        0x00004c30:    01dd00dd    ....    DCD    31260893
        0x00004c34:    013d003d    =.=.    DCD    20774973
        0x00004c38:    01bd00bd    ....    DCD    29163709
        0x00004c3c:    017d007d    }.}.    DCD    24969341
        0x00004c40:    01fd00fd    ....    DCD    33358077
        0x00004c44:    01030003    ....    DCD    16973827
        0x00004c48:    01830083    ....    DCD    25362563
        0x00004c4c:    01430043    C.C.    DCD    21168195
        0x00004c50:    01c300c3    ....    DCD    29556931
        0x00004c54:    01230023    #.#.    DCD    19071011
        0x00004c58:    01a300a3    ....    DCD    27459747
        0x00004c5c:    01630063    c.c.    DCD    23265379
        0x00004c60:    01e300e3    ....    DCD    31654115
        0x00004c64:    01130013    ....    DCD    18022419
        0x00004c68:    01930093    ....    DCD    26411155
        0x00004c6c:    01530053    S.S.    DCD    22216787
        0x00004c70:    01d300d3    ....    DCD    30605523
        0x00004c74:    01330033    3.3.    DCD    20119603
        0x00004c78:    01b300b3    ....    DCD    28508339
        0x00004c7c:    01730073    s.s.    DCD    24313971
        0x00004c80:    01f300f3    ....    DCD    32702707
        0x00004c84:    010b000b    ....    DCD    17498123
        0x00004c88:    018b008b    ....    DCD    25886859
        0x00004c8c:    014b004b    K.K.    DCD    21692491
        0x00004c90:    01cb00cb    ....    DCD    30081227
        0x00004c94:    012b002b    +.+.    DCD    19595307
        0x00004c98:    01ab00ab    ....    DCD    27984043
        0x00004c9c:    016b006b    k.k.    DCD    23789675
        0x00004ca0:    01eb00eb    ....    DCD    32178411
        0x00004ca4:    011b001b    ....    DCD    18546715
        0x00004ca8:    019b009b    ....    DCD    26935451
        0x00004cac:    015b005b    [.[.    DCD    22741083
        0x00004cb0:    01db00db    ....    DCD    31129819
        0x00004cb4:    013b003b    ;.;.    DCD    20643899
        0x00004cb8:    01bb00bb    ....    DCD    29032635
        0x00004cbc:    017b007b    {.{.    DCD    24838267
        0x00004cc0:    01fb00fb    ....    DCD    33227003
        0x00004cc4:    01070007    ....    DCD    17235975
        0x00004cc8:    01870087    ....    DCD    25624711
        0x00004ccc:    01470047    G.G.    DCD    21430343
        0x00004cd0:    01c700c7    ....    DCD    29819079
        0x00004cd4:    01270027    '.'.    DCD    19333159
        0x00004cd8:    01a700a7    ....    DCD    27721895
        0x00004cdc:    01670067    g.g.    DCD    23527527
        0x00004ce0:    01e700e7    ....    DCD    31916263
        0x00004ce4:    01170017    ....    DCD    18284567
        0x00004ce8:    01970097    ....    DCD    26673303
        0x00004cec:    01570057    W.W.    DCD    22478935
        0x00004cf0:    01d700d7    ....    DCD    30867671
        0x00004cf4:    01370037    7.7.    DCD    20381751
        0x00004cf8:    01b700b7    ....    DCD    28770487
        0x00004cfc:    01770077    w.w.    DCD    24576119
        0x00004d00:    01f700f7    ....    DCD    32964855
        0x00004d04:    010f000f    ....    DCD    17760271
        0x00004d08:    018f008f    ....    DCD    26149007
        0x00004d0c:    014f004f    O.O.    DCD    21954639
        0x00004d10:    01cf00cf    ....    DCD    30343375
        0x00004d14:    012f002f    /./.    DCD    19857455
        0x00004d18:    01af00af    ....    DCD    28246191
        0x00004d1c:    016f006f    o.o.    DCD    24051823
        0x00004d20:    01ef00ef    ....    DCD    32440559
        0x00004d24:    011f001f    ....    DCD    18808863
        0x00004d28:    019f009f    ....    DCD    27197599
        0x00004d2c:    015f005f    _._.    DCD    23003231
        0x00004d30:    01df00df    ....    DCD    31391967
        0x00004d34:    013f003f    ?.?.    DCD    20906047
        0x00004d38:    01bf00bf    ....    DCD    29294783
        0x00004d3c:    017f007f    ....    DCD    25100415
        0x00004d40:    01ff00ff    ....    DCD    33489151
        0x00004d44:    00000000    ....    DCD    0
        0x00004d48:    00000000    ....    DCD    0
        0x00004d4c:    00000000    ....    DCD    0
        0x00004d50:    00000000    ....    DCD    0
        0x00004d54:    00000000    ....    DCD    0
        0x00004d58:    00000000    ....    DCD    0
        0x00004d5c:    00000000    ....    DCD    0
        0x00004d60:    00000000    ....    DCD    0
        0x00004d64:    00000000    ....    DCD    0
        0x00004d68:    00000000    ....    DCD    0
        0x00004d6c:    00000000    ....    DCD    0
        0x00004d70:    00000000    ....    DCD    0
        0x00004d74:    00000000    ....    DCD    0
        0x00004d78:    00000000    ....    DCD    0
        0x00004d7c:    00000000    ....    DCD    0
        0x00004d80:    00000000    ....    DCD    0
        0x00004d84:    00000000    ....    DCD    0
        0x00004d88:    00000000    ....    DCD    0
        0x00004d8c:    00000000    ....    DCD    0
        0x00004d90:    00000000    ....    DCD    0
        0x00004d94:    00000000    ....    DCD    0
        0x00004d98:    00000000    ....    DCD    0
        0x00004d9c:    00000000    ....    DCD    0
        0x00004da0:    00000000    ....    DCD    0
        0x00004da4:    00000000    ....    DCD    0
        0x00004da8:    00000000    ....    DCD    0
        0x00004dac:    00000000    ....    DCD    0
        0x00004db0:    00000000    ....    DCD    0
        0x00004db4:    00000000    ....    DCD    0
        0x00004db8:    00000000    ....    DCD    0
        0x00004dbc:    00000000    ....    DCD    0
        0x00004dc0:    00000000    ....    DCD    0
        0x00004dc4:    00000000    ....    DCD    0
        0x00004dc8:    00000000    ....    DCD    0
        0x00004dcc:    00000000    ....    DCD    0
        0x00004dd0:    00000000    ....    DCD    0
        0x00004dd4:    00000000    ....    DCD    0
        0x00004dd8:    00000000    ....    DCD    0
        0x00004ddc:    00000000    ....    DCD    0
        0x00004de0:    00000000    ....    DCD    0
        0x00004de4:    00000000    ....    DCD    0
        0x00004de8:    00000000    ....    DCD    0
        0x00004dec:    00000000    ....    DCD    0
        0x00004df0:    00000000    ....    DCD    0
        0x00004df4:    00000000    ....    DCD    0
        0x00004df8:    00000000    ....    DCD    0
        0x00004dfc:    00000000    ....    DCD    0
        0x00004e00:    00000000    ....    DCD    0
        0x00004e04:    00000000    ....    DCD    0
        0x00004e08:    00000000    ....    DCD    0
        0x00004e0c:    00000000    ....    DCD    0
        0x00004e10:    00000000    ....    DCD    0
        0x00004e14:    00000000    ....    DCD    0
        0x00004e18:    00000000    ....    DCD    0
        0x00004e1c:    00000000    ....    DCD    0
        0x00004e20:    00000000    ....    DCD    0
        0x00004e24:    00000000    ....    DCD    0
        0x00004e28:    00000000    ....    DCD    0
        0x00004e2c:    00000000    ....    DCD    0
        0x00004e30:    00000000    ....    DCD    0
        0x00004e34:    00000000    ....    DCD    0
        0x00004e38:    00000000    ....    DCD    0
        0x00004e3c:    00000000    ....    DCD    0
        0x00004e40:    00000000    ....    DCD    0
        0x00004e44:    00000000    ....    DCD    0
        0x00004e48:    00000000    ....    DCD    0
        0x00004e4c:    00000000    ....    DCD    0
        0x00004e50:    00000000    ....    DCD    0
        0x00004e54:    00000000    ....    DCD    0
        0x00004e58:    00000000    ....    DCD    0
        0x00004e5c:    00000000    ....    DCD    0
        0x00004e60:    00000000    ....    DCD    0
        0x00004e64:    00000000    ....    DCD    0
        0x00004e68:    00000000    ....    DCD    0
        0x00004e6c:    00000000    ....    DCD    0
        0x00004e70:    00000000    ....    DCD    0
        0x00004e74:    00000000    ....    DCD    0
        0x00004e78:    00000000    ....    DCD    0
        0x00004e7c:    00000000    ....    DCD    0
        0x00004e80:    00000000    ....    DCD    0
        0x00004e84:    00000000    ....    DCD    0
        0x00004e88:    00000000    ....    DCD    0
        0x00004e8c:    00000000    ....    DCD    0
        0x00004e90:    00000000    ....    DCD    0
        0x00004e94:    00000000    ....    DCD    0
        0x00004e98:    00000000    ....    DCD    0
        0x00004e9c:    00000000    ....    DCD    0
        0x00004ea0:    00000000    ....    DCD    0
        0x00004ea4:    00000000    ....    DCD    0
        0x00004ea8:    00000000    ....    DCD    0
        0x00004eac:    00000000    ....    DCD    0
        0x00004eb0:    00000000    ....    DCD    0
        0x00004eb4:    00000000    ....    DCD    0
        0x00004eb8:    00000000    ....    DCD    0
        0x00004ebc:    00000000    ....    DCD    0
        0x00004ec0:    00000000    ....    DCD    0
        0x00004ec4:    00000000    ....    DCD    0
        0x00004ec8:    00000000    ....    DCD    0
        0x00004ecc:    00000000    ....    DCD    0
        0x00004ed0:    00000000    ....    DCD    0
        0x00004ed4:    00000000    ....    DCD    0
        0x00004ed8:    00000000    ....    DCD    0
        0x00004edc:    00000000    ....    DCD    0
        0x00004ee0:    00000000    ....    DCD    0
        0x00004ee4:    00000000    ....    DCD    0
        0x00004ee8:    00000000    ....    DCD    0
        0x00004eec:    00000000    ....    DCD    0
        0x00004ef0:    00000000    ....    DCD    0
        0x00004ef4:    00000000    ....    DCD    0
        0x00004ef8:    00000000    ....    DCD    0
        0x00004efc:    00000000    ....    DCD    0
        0x00004f00:    00000000    ....    DCD    0
        0x00004f04:    00000000    ....    DCD    0
        0x00004f08:    00000000    ....    DCD    0
        0x00004f0c:    00000000    ....    DCD    0
        0x00004f10:    00000000    ....    DCD    0
        0x00004f14:    00000000    ....    DCD    0
        0x00004f18:    00000000    ....    DCD    0
        0x00004f1c:    00000000    ....    DCD    0
        0x00004f20:    00000000    ....    DCD    0
        0x00004f24:    00000000    ....    DCD    0
        0x00004f28:    00000000    ....    DCD    0
        0x00004f2c:    00000000    ....    DCD    0
        0x00004f30:    00000000    ....    DCD    0
        0x00004f34:    00000000    ....    DCD    0
        0x00004f38:    00000000    ....    DCD    0
        0x00004f3c:    00000000    ....    DCD    0
        0x00004f40:    00000000    ....    DCD    0
        0x00004f44:    00000000    ....    DCD    0
        0x00004f48:    00000000    ....    DCD    0
        0x00004f4c:    00000000    ....    DCD    0
        0x00004f50:    00000000    ....    DCD    0
        0x00004f54:    00000000    ....    DCD    0
        0x00004f58:    00000000    ....    DCD    0
        0x00004f5c:    00000000    ....    DCD    0
        0x00004f60:    00000000    ....    DCD    0
        0x00004f64:    00000000    ....    DCD    0
        0x00004f68:    00000000    ....    DCD    0
        0x00004f6c:    00000000    ....    DCD    0
        0x00004f70:    00000000    ....    DCD    0
        0x00004f74:    00000000    ....    DCD    0
        0x00004f78:    00000000    ....    DCD    0
        0x00004f7c:    00000000    ....    DCD    0
        0x00004f80:    00000000    ....    DCD    0
        0x00004f84:    00000000    ....    DCD    0
        0x00004f88:    00000000    ....    DCD    0
        0x00004f8c:    00000000    ....    DCD    0
        0x00004f90:    00000000    ....    DCD    0
        0x00004f94:    00000000    ....    DCD    0
        0x00004f98:    00000000    ....    DCD    0
        0x00004f9c:    00000000    ....    DCD    0
        0x00004fa0:    00000000    ....    DCD    0
        0x00004fa4:    00000000    ....    DCD    0
        0x00004fa8:    00000000    ....    DCD    0
        0x00004fac:    00000000    ....    DCD    0
        0x00004fb0:    00000000    ....    DCD    0
        0x00004fb4:    00000000    ....    DCD    0
        0x00004fb8:    00000000    ....    DCD    0
        0x00004fbc:    00000000    ....    DCD    0
        0x00004fc0:    00000000    ....    DCD    0
        0x00004fc4:    00000000    ....    DCD    0
        0x00004fc8:    00000000    ....    DCD    0
        0x00004fcc:    00000000    ....    DCD    0
        0x00004fd0:    00000000    ....    DCD    0
        0x00004fd4:    00000000    ....    DCD    0
        0x00004fd8:    00000000    ....    DCD    0
        0x00004fdc:    00000000    ....    DCD    0
        0x00004fe0:    00000000    ....    DCD    0
        0x00004fe4:    00000000    ....    DCD    0
        0x00004fe8:    00000000    ....    DCD    0
        0x00004fec:    00000000    ....    DCD    0
        0x00004ff0:    00000000    ....    DCD    0
        0x00004ff4:    00000000    ....    DCD    0
        0x00004ff8:    00000000    ....    DCD    0
        0x00004ffc:    00000000    ....    DCD    0
        0x00005000:    00000000    ....    DCD    0
        0x00005004:    00000000    ....    DCD    0
        0x00005008:    00000000    ....    DCD    0
        0x0000500c:    00000000    ....    DCD    0
        0x00005010:    00000000    ....    DCD    0
        0x00005014:    00000000    ....    DCD    0
        0x00005018:    00000000    ....    DCD    0
        0x0000501c:    00000000    ....    DCD    0
        0x00005020:    00000000    ....    DCD    0
        0x00005024:    00000000    ....    DCD    0
        0x00005028:    00000000    ....    DCD    0
        0x0000502c:    00000000    ....    DCD    0
        0x00005030:    00000000    ....    DCD    0
        0x00005034:    00000000    ....    DCD    0
        0x00005038:    00000000    ....    DCD    0
        0x0000503c:    00000000    ....    DCD    0
        0x00005040:    00000000    ....    DCD    0
        0x00005044:    00000000    ....    DCD    0
        0x00005048:    00000000    ....    DCD    0
        0x0000504c:    00000000    ....    DCD    0
        0x00005050:    00000000    ....    DCD    0
        0x00005054:    00000000    ....    DCD    0
        0x00005058:    00000000    ....    DCD    0
        0x0000505c:    00000000    ....    DCD    0
        0x00005060:    00000000    ....    DCD    0
        0x00005064:    00000000    ....    DCD    0
        0x00005068:    00000000    ....    DCD    0
        0x0000506c:    00000000    ....    DCD    0
        0x00005070:    00000000    ....    DCD    0
        0x00005074:    00000000    ....    DCD    0
        0x00005078:    00000000    ....    DCD    0
        0x0000507c:    00000000    ....    DCD    0
        0x00005080:    00000000    ....    DCD    0
        0x00005084:    00000000    ....    DCD    0
        0x00005088:    00000000    ....    DCD    0
        0x0000508c:    00000000    ....    DCD    0
        0x00005090:    00000000    ....    DCD    0
        0x00005094:    00000000    ....    DCD    0
        0x00005098:    00000000    ....    DCD    0
        0x0000509c:    00000000    ....    DCD    0
        0x000050a0:    00000000    ....    DCD    0
        0x000050a4:    00000000    ....    DCD    0
        0x000050a8:    00000000    ....    DCD    0
        0x000050ac:    00000000    ....    DCD    0
        0x000050b0:    00000000    ....    DCD    0
        0x000050b4:    00000000    ....    DCD    0
        0x000050b8:    00000000    ....    DCD    0
        0x000050bc:    00000000    ....    DCD    0
        0x000050c0:    00000000    ....    DCD    0
        0x000050c4:    00000000    ....    DCD    0
        0x000050c8:    00000000    ....    DCD    0
        0x000050cc:    00000000    ....    DCD    0
        0x000050d0:    00000000    ....    DCD    0
        0x000050d4:    00000000    ....    DCD    0
        0x000050d8:    00000000    ....    DCD    0
        0x000050dc:    00000000    ....    DCD    0
        0x000050e0:    00000000    ....    DCD    0
        0x000050e4:    00000000    ....    DCD    0
        0x000050e8:    00000000    ....    DCD    0
        0x000050ec:    00000000    ....    DCD    0
        0x000050f0:    00000000    ....    DCD    0
        0x000050f4:    00000000    ....    DCD    0
        0x000050f8:    00000000    ....    DCD    0
        0x000050fc:    00000000    ....    DCD    0
        0x00005100:    00000000    ....    DCD    0
        0x00005104:    00000000    ....    DCD    0
        0x00005108:    00000000    ....    DCD    0
        0x0000510c:    00000000    ....    DCD    0
        0x00005110:    00000000    ....    DCD    0
        0x00005114:    00000000    ....    DCD    0
        0x00005118:    00000000    ....    DCD    0
        0x0000511c:    00000000    ....    DCD    0
        0x00005120:    00000000    ....    DCD    0
        0x00005124:    00000000    ....    DCD    0
        0x00005128:    00000000    ....    DCD    0
        0x0000512c:    00000000    ....    DCD    0
        0x00005130:    00000000    ....    DCD    0
        0x00005134:    00000000    ....    DCD    0
        0x00005138:    00000000    ....    DCD    0
        0x0000513c:    00000000    ....    DCD    0
        0x00005140:    00000000    ....    DCD    0
    MFC_TRG_CENTER
        0x00005144:    0015000a    ....    DCD    1376266
        0x00005148:    002c0020     .,.    DCD    2883616
        0x0000514c:    00450038    8.E.    DCD    4522040
        0x00005150:    00610053    S.a.    DCD    6357075
        0x00005154:    00810071    q...    DCD    8454257
        0x00005158:    00a40092    ....    DCD    10748050
        0x0000515c:    00cb00b7    ....    DCD    13303991
        0x00005160:    00f600e0    ....    DCD    16122080
        0x00005164:    0127010e    ..'.    DCD    19333390
        0x00005168:    015d0141    A.].    DCD    22872385
        0x0000516c:    0199017a    z...    DCD    26804602
        0x00005170:    01dc01ba    ....    DCD    31195578
    MFC_FFT_COFFIC
        0x00005174:    3f800000    ...?    DCD    1065353216
        0x00005178:    00000000    ....    DCD    0
        0x0000517c:    3f800000    ...?    DCD    1065353216
        0x00005180:    00000000    ....    DCD    0
        0x00005184:    00000000    ....    DCD    0
        0x00005188:    bf800000    ....    DCD    3212836864
        0x0000518c:    3f800000    ...?    DCD    1065353216
        0x00005190:    00000000    ....    DCD    0
        0x00005194:    3f3504f7    ..5?    DCD    1060439287
        0x00005198:    bf3504f7    ..5.    DCD    3207922935
        0x0000519c:    00000000    ....    DCD    0
        0x000051a0:    bf800000    ....    DCD    3212836864
        0x000051a4:    bf3504f7    ..5.    DCD    3207922935
        0x000051a8:    bf3504f7    ..5.    DCD    3207922935
        0x000051ac:    3f800000    ...?    DCD    1065353216
        0x000051b0:    00000000    ....    DCD    0
        0x000051b4:    3f6c8366    f.l?    DCD    1064076134
        0x000051b8:    bec3ef07    ....    DCD    3200511751
        0x000051bc:    3f3504f7    ..5?    DCD    1060439287
        0x000051c0:    bf3504f7    ..5.    DCD    3207922935
        0x000051c4:    3ec3ef07    ...>    DCD    1053028103
        0x000051c8:    bf6c8366    f.l.    DCD    3211559782
        0x000051cc:    00000000    ....    DCD    0
        0x000051d0:    bf800000    ....    DCD    3212836864
        0x000051d4:    bec3ef07    ....    DCD    3200511751
        0x000051d8:    bf6c8366    f.l.    DCD    3211559782
        0x000051dc:    bf3504f7    ..5.    DCD    3207922935
        0x000051e0:    bf3504f7    ..5.    DCD    3207922935
        0x000051e4:    bf6c8366    f.l.    DCD    3211559782
        0x000051e8:    bec3ef07    ....    DCD    3200511751
        0x000051ec:    3f800000    ...?    DCD    1065353216
        0x000051f0:    00000000    ....    DCD    0
        0x000051f4:    3f7b14ba    ..{?    DCD    1065030842
        0x000051f8:    be47c5ac    ..G.    DCD    3192374700
        0x000051fc:    3f6c8366    f.l?    DCD    1064076134
        0x00005200:    bec3ef07    ....    DCD    3200511751
        0x00005204:    3f54db38    8.T?    DCD    1062525752
        0x00005208:    bf0e39d6    .9..    DCD    3205380566
        0x0000520c:    3f3504f7    ..5?    DCD    1060439287
        0x00005210:    bf3504f7    ..5.    DCD    3207922935
        0x00005214:    3f0e39d6    .9.?    DCD    1057896918
        0x00005218:    bf54db38    8.T.    DCD    3210009400
        0x0000521c:    3ec3ef07    ...>    DCD    1053028103
        0x00005220:    bf6c8366    f.l.    DCD    3211559782
        0x00005224:    3e47c5ac    ..G>    DCD    1044891052
        0x00005228:    bf7b14ba    ..{.    DCD    3212514490
        0x0000522c:    00000000    ....    DCD    0
        0x00005230:    bf800000    ....    DCD    3212836864
        0x00005234:    be47c5ac    ..G.    DCD    3192374700
        0x00005238:    bf7b14ba    ..{.    DCD    3212514490
        0x0000523c:    bec3ef07    ....    DCD    3200511751
        0x00005240:    bf6c8366    f.l.    DCD    3211559782
        0x00005244:    bf0e39d6    .9..    DCD    3205380566
        0x00005248:    bf54db38    8.T.    DCD    3210009400
        0x0000524c:    bf3504f7    ..5.    DCD    3207922935
        0x00005250:    bf3504f7    ..5.    DCD    3207922935
        0x00005254:    bf54db38    8.T.    DCD    3210009400
        0x00005258:    bf0e39d6    .9..    DCD    3205380566
        0x0000525c:    bf6c8366    f.l.    DCD    3211559782
        0x00005260:    bec3ef07    ....    DCD    3200511751
        0x00005264:    bf7b14ba    ..{.    DCD    3212514490
        0x00005268:    be47c5ac    ..G.    DCD    3192374700
        0x0000526c:    3f800000    ...?    DCD    1065353216
        0x00005270:    00000000    ....    DCD    0
        0x00005274:    3f7ec472    r.~?    DCD    1065272434
        0x00005278:    bdc8bd23    #...    DCD    3184049443
        0x0000527c:    3f7b14ba    ..{?    DCD    1065030842
        0x00005280:    be47c5ac    ..G.    DCD    3192374700
        0x00005284:    3f74fa05    ..t?    DCD    1064630789
        0x00005288:    be94a03c    <...    DCD    3197411388
        0x0000528c:    3f6c8366    f.l?    DCD    1064076134
        0x00005290:    bec3ef07    ....    DCD    3200511751
        0x00005294:    3f61c593    ..a?    DCD    1063372179
        0x00005298:    bef15af3    .Z..    DCD    3203488499
        0x0000529c:    3f54db38    8.T?    DCD    1062525752
        0x000052a0:    bf0e39d6    .9..    DCD    3205380566
        0x000052a4:    3f45e3fc    ..E?    DCD    1061544956
        0x000052a8:    bf226794    .g".    DCD    3206702996
        0x000052ac:    3f3504f7    ..5?    DCD    1060439287
        0x000052b0:    bf3504f7    ..5.    DCD    3207922935
        0x000052b4:    3f226794    .g"?    DCD    1059219348
        0x000052b8:    bf45e3fc    ..E.    DCD    3209028604
        0x000052bc:    3f0e39d6    .9.?    DCD    1057896918
        0x000052c0:    bf54db38    8.T.    DCD    3210009400
        0x000052c4:    3ef15af3    .Z.>    DCD    1056004851
        0x000052c8:    bf61c593    ..a.    DCD    3210855827
        0x000052cc:    3ec3ef07    ...>    DCD    1053028103
        0x000052d0:    bf6c8366    f.l.    DCD    3211559782
        0x000052d4:    3e94a03c    <..>    DCD    1049927740
        0x000052d8:    bf74fa05    ..t.    DCD    3212114437
        0x000052dc:    3e47c5ac    ..G>    DCD    1044891052
        0x000052e0:    bf7b14ba    ..{.    DCD    3212514490
        0x000052e4:    3dc8bd23    #..=    DCD    1036565795
        0x000052e8:    bf7ec472    r.~.    DCD    3212756082
        0x000052ec:    00000000    ....    DCD    0
        0x000052f0:    bf800000    ....    DCD    3212836864
        0x000052f4:    bdc8bd23    #...    DCD    3184049443
        0x000052f8:    bf7ec472    r.~.    DCD    3212756082
        0x000052fc:    be47c5ac    ..G.    DCD    3192374700
        0x00005300:    bf7b14ba    ..{.    DCD    3212514490
        0x00005304:    be94a03c    <...    DCD    3197411388
        0x00005308:    bf74fa05    ..t.    DCD    3212114437
        0x0000530c:    bec3ef07    ....    DCD    3200511751
        0x00005310:    bf6c8366    f.l.    DCD    3211559782
        0x00005314:    bef15af3    .Z..    DCD    3203488499
        0x00005318:    bf61c593    ..a.    DCD    3210855827
        0x0000531c:    bf0e39d6    .9..    DCD    3205380566
        0x00005320:    bf54db38    8.T.    DCD    3210009400
        0x00005324:    bf226794    .g".    DCD    3206702996
        0x00005328:    bf45e3fc    ..E.    DCD    3209028604
        0x0000532c:    bf3504f7    ..5.    DCD    3207922935
        0x00005330:    bf3504f7    ..5.    DCD    3207922935
        0x00005334:    bf45e3fc    ..E.    DCD    3209028604
        0x00005338:    bf226794    .g".    DCD    3206702996
        0x0000533c:    bf54db38    8.T.    DCD    3210009400
        0x00005340:    bf0e39d6    .9..    DCD    3205380566
        0x00005344:    bf61c593    ..a.    DCD    3210855827
        0x00005348:    bef15af3    .Z..    DCD    3203488499
        0x0000534c:    bf6c8366    f.l.    DCD    3211559782
        0x00005350:    bec3ef07    ....    DCD    3200511751
        0x00005354:    bf74fa05    ..t.    DCD    3212114437
        0x00005358:    be94a03c    <...    DCD    3197411388
        0x0000535c:    bf7b14ba    ..{.    DCD    3212514490
        0x00005360:    be47c5ac    ..G.    DCD    3192374700
        0x00005364:    bf7ec472    r.~.    DCD    3212756082
        0x00005368:    bdc8bd23    #...    DCD    3184049443
        0x0000536c:    3f800000    ...?    DCD    1065353216
        0x00005370:    00000000    ....    DCD    0
        0x00005374:    3f7fb107    ...?    DCD    1065332999
        0x00005378:    bd48fb87    ..H.    DCD    3175676807
        0x0000537c:    3f7ec472    r.~?    DCD    1065272434
        0x00005380:    bdc8bd23    #...    DCD    3184049443
        0x00005384:    3f7d3ab4    .:}?    DCD    1065171636
        0x00005388:    be164064    d@..    DCD    3189129316
        0x0000538c:    3f7b14ba    ..{?    DCD    1065030842
        0x00005390:    be47c5ac    ..G.    DCD    3192374700
        0x00005394:    3f7853f4    .Sx?    DCD    1064850420
        0x00005398:    be78cfc0    ..x.    DCD    3195588544
        0x0000539c:    3f74fa05    ..t?    DCD    1064630789
        0x000053a0:    be94a03c    <...    DCD    3197411388
        0x000053a4:    3f710907    ..q?    DCD    1064372487
        0x000053a8:    beac7cd9    .|..    DCD    3198975193
        0x000053ac:    3f6c8366    f.l?    DCD    1064076134
        0x000053b0:    bec3ef07    ....    DCD    3200511751
        0x000053b4:    3f676bd3    .kg?    DCD    1063742419
        0x000053b8:    bedae87d    }...    DCD    3202017405
        0x000053bc:    3f61c593    ..a?    DCD    1063372179
        0x000053c0:    bef15af3    .Z..    DCD    3203488499
        0x000053c4:    3f5b9421    !.[?    DCD    1062966305
        0x000053c8:    bf039c41    A...    DCD    3204684865
        0x000053cc:    3f54db38    8.T?    DCD    1062525752
        0x000053d0:    bf0e39d6    .9..    DCD    3205380566
        0x000053d4:    3f4d9f0a    ..M?    DCD    1062051594
        0x000053d8:    bf187fbb    ....    DCD    3206053819
        0x000053dc:    3f45e3fc    ..E?    DCD    1061544956
        0x000053e0:    bf226794    .g".    DCD    3206702996
        0x000053e4:    3f3daef7    ..=?    DCD    1061007095
        0x000053e8:    bf2beb4a    J.+.    DCD    3207326538
        0x000053ec:    3f3504f7    ..5?    DCD    1060439287
        0x000053f0:    bf3504f7    ..5.    DCD    3207922935
        0x000053f4:    3f2beb4a    J.+?    DCD    1059842890
        0x000053f8:    bf3daef7    ..=.    DCD    3208490743
        0x000053fc:    3f226794    .g"?    DCD    1059219348
        0x00005400:    bf45e3fc    ..E.    DCD    3209028604
        0x00005404:    3f187fbb    ...?    DCD    1058570171
        0x00005408:    bf4d9f0a    ..M.    DCD    3209535242
        0x0000540c:    3f0e39d6    .9.?    DCD    1057896918
        0x00005410:    bf54db38    8.T.    DCD    3210009400
        0x00005414:    3f039c41    A..?    DCD    1057201217
        0x00005418:    bf5b9421    !.[.    DCD    3210449953
        0x0000541c:    3ef15af3    .Z.>    DCD    1056004851
        0x00005420:    bf61c593    ..a.    DCD    3210855827
        0x00005424:    3edae87d    }..>    DCD    1054533757
        0x00005428:    bf676bd3    .kg.    DCD    3211226067
        0x0000542c:    3ec3ef07    ...>    DCD    1053028103
        0x00005430:    bf6c8366    f.l.    DCD    3211559782
        0x00005434:    3eac7cd9    .|.>    DCD    1051491545
        0x00005438:    bf710907    ..q.    DCD    3211856135
        0x0000543c:    3e94a03c    <..>    DCD    1049927740
        0x00005440:    bf74fa05    ..t.    DCD    3212114437
        0x00005444:    3e78cfc0    ..x>    DCD    1048104896
        0x00005448:    bf7853f4    .Sx.    DCD    3212334068
        0x0000544c:    3e47c5ac    ..G>    DCD    1044891052
        0x00005450:    bf7b14ba    ..{.    DCD    3212514490
        0x00005454:    3e164064    d@.>    DCD    1041645668
        0x00005458:    bf7d3ab4    .:}.    DCD    3212655284
        0x0000545c:    3dc8bd23    #..=    DCD    1036565795
        0x00005460:    bf7ec472    r.~.    DCD    3212756082
        0x00005464:    3d48fb87    ..H=    DCD    1028193159
        0x00005468:    bf7fb107    ....    DCD    3212816647
        0x0000546c:    00000000    ....    DCD    0
        0x00005470:    bf800000    ....    DCD    3212836864
        0x00005474:    bd48fb87    ..H.    DCD    3175676807
        0x00005478:    bf7fb107    ....    DCD    3212816647
        0x0000547c:    bdc8bd23    #...    DCD    3184049443
        0x00005480:    bf7ec472    r.~.    DCD    3212756082
        0x00005484:    be164064    d@..    DCD    3189129316
        0x00005488:    bf7d3ab4    .:}.    DCD    3212655284
        0x0000548c:    be47c5ac    ..G.    DCD    3192374700
        0x00005490:    bf7b14ba    ..{.    DCD    3212514490
        0x00005494:    be78cfc0    ..x.    DCD    3195588544
        0x00005498:    bf7853f4    .Sx.    DCD    3212334068
        0x0000549c:    be94a03c    <...    DCD    3197411388
        0x000054a0:    bf74fa05    ..t.    DCD    3212114437
        0x000054a4:    beac7cd9    .|..    DCD    3198975193
        0x000054a8:    bf710907    ..q.    DCD    3211856135
        0x000054ac:    bec3ef07    ....    DCD    3200511751
        0x000054b0:    bf6c8366    f.l.    DCD    3211559782
        0x000054b4:    bedae87d    }...    DCD    3202017405
        0x000054b8:    bf676bd3    .kg.    DCD    3211226067
        0x000054bc:    bef15af3    .Z..    DCD    3203488499
        0x000054c0:    bf61c593    ..a.    DCD    3210855827
        0x000054c4:    bf039c41    A...    DCD    3204684865
        0x000054c8:    bf5b9421    !.[.    DCD    3210449953
        0x000054cc:    bf0e39d6    .9..    DCD    3205380566
        0x000054d0:    bf54db38    8.T.    DCD    3210009400
        0x000054d4:    bf187fbb    ....    DCD    3206053819
        0x000054d8:    bf4d9f0a    ..M.    DCD    3209535242
        0x000054dc:    bf226794    .g".    DCD    3206702996
        0x000054e0:    bf45e3fc    ..E.    DCD    3209028604
        0x000054e4:    bf2beb4a    J.+.    DCD    3207326538
        0x000054e8:    bf3daef7    ..=.    DCD    3208490743
        0x000054ec:    bf3504f7    ..5.    DCD    3207922935
        0x000054f0:    bf3504f7    ..5.    DCD    3207922935
        0x000054f4:    bf3daef7    ..=.    DCD    3208490743
        0x000054f8:    bf2beb4a    J.+.    DCD    3207326538
        0x000054fc:    bf45e3fc    ..E.    DCD    3209028604
        0x00005500:    bf226794    .g".    DCD    3206702996
        0x00005504:    bf4d9f0a    ..M.    DCD    3209535242
        0x00005508:    bf187fbb    ....    DCD    3206053819
        0x0000550c:    bf54db38    8.T.    DCD    3210009400
        0x00005510:    bf0e39d6    .9..    DCD    3205380566
        0x00005514:    bf5b9421    !.[.    DCD    3210449953
        0x00005518:    bf039c41    A...    DCD    3204684865
        0x0000551c:    bf61c593    ..a.    DCD    3210855827
        0x00005520:    bef15af3    .Z..    DCD    3203488499
        0x00005524:    bf676bd3    .kg.    DCD    3211226067
        0x00005528:    bedae87d    }...    DCD    3202017405
        0x0000552c:    bf6c8366    f.l.    DCD    3211559782
        0x00005530:    bec3ef07    ....    DCD    3200511751
        0x00005534:    bf710907    ..q.    DCD    3211856135
        0x00005538:    beac7cd9    .|..    DCD    3198975193
        0x0000553c:    bf74fa05    ..t.    DCD    3212114437
        0x00005540:    be94a03c    <...    DCD    3197411388
        0x00005544:    bf7853f4    .Sx.    DCD    3212334068
        0x00005548:    be78cfc0    ..x.    DCD    3195588544
        0x0000554c:    bf7b14ba    ..{.    DCD    3212514490
        0x00005550:    be47c5ac    ..G.    DCD    3192374700
        0x00005554:    bf7d3ab4    .:}.    DCD    3212655284
        0x00005558:    be164064    d@..    DCD    3189129316
        0x0000555c:    bf7ec472    r.~.    DCD    3212756082
        0x00005560:    bdc8bd23    #...    DCD    3184049443
        0x00005564:    bf7fb107    ....    DCD    3212816647
        0x00005568:    bd48fb87    ..H.    DCD    3175676807
        0x0000556c:    3f800000    ...?    DCD    1065353216
        0x00005570:    00000000    ....    DCD    0
        0x00005574:    3f7fec46    F..?    DCD    1065348166
        0x00005578:    bcc90a35    5...    DCD    3167291957
        0x0000557c:    3f7fb107    ...?    DCD    1065332999
        0x00005580:    bd48fb87    ..H.    DCD    3175676807
        0x00005584:    3f7f4e66    fN.?    DCD    1065307750
        0x00005588:    bd96a93f    ?...    DCD    3180767551
        0x0000558c:    3f7ec472    r.~?    DCD    1065272434
        0x00005590:    bdc8bd23    #...    DCD    3184049443
        0x00005594:    3f7e132b    +.~?    DCD    1065227051
        0x00005598:    bdfab29e    ....    DCD    3187323550
        0x0000559c:    3f7d3ab4    .:}?    DCD    1065171636
        0x000055a0:    be164064    d@..    DCD    3189129316
        0x000055a4:    3f7c3b2e    .;|?    DCD    1065106222
        0x000055a8:    be2f10aa    ../.    DCD    3190755498
        0x000055ac:    3f7b14ba    ..{?    DCD    1065030842
        0x000055b0:    be47c5ac    ..G.    DCD    3192374700
        0x000055b4:    3f79c79b    ..y?    DCD    1064945563
        0x000055b8:    be605c03    .\`.    DCD    3193986051
        0x000055bc:    3f7853f4    .Sx?    DCD    1064850420
        0x000055c0:    be78cfc0    ..x.    DCD    3195588544
        0x000055c4:    3f76ba06    ..v?    DCD    1064745478
        0x000055c8:    be888e9b    ....    DCD    3196620443
        0x000055cc:    3f74fa05    ..t?    DCD    1064630789
        0x000055d0:    be94a03c    <...    DCD    3197411388
        0x000055d4:    3f731444    D.s?    DCD    1064506436
        0x000055d8:    bea09aed    ....    DCD    3198196461
        0x000055dc:    3f710907    ..q?    DCD    1064372487
        0x000055e0:    beac7cd9    .|..    DCD    3198975193
        0x000055e4:    3f6ed8a1    ..n?    DCD    1064229025
        0x000055e8:    beb84428    (D..    DCD    3199747112
        0x000055ec:    3f6c8366    f.l?    DCD    1064076134
        0x000055f0:    bec3ef07    ....    DCD    3200511751
        0x000055f4:    3f6a09ab    ..j?    DCD    1063913899
        0x000055f8:    becf7bc0    .{..    DCD    3201268672
        0x000055fc:    3f676bd3    .kg?    DCD    1063742419
        0x00005600:    bedae87d    }...    DCD    3202017405
        0x00005604:    3f64aa54    T.d?    DCD    1063561812
        0x00005608:    bee6336a    j3..    DCD    3202757482
        0x0000560c:    3f61c593    ..a?    DCD    1063372179
        0x00005610:    bef15af3    .Z..    DCD    3203488499
        0x00005614:    3f5ebe06    ..^?    DCD    1063173638
        0x00005618:    befc5d20     ]..    DCD    3204209952
        0x0000561c:    3f5b9421    !.[?    DCD    1062966305
        0x00005620:    bf039c41    A...    DCD    3204684865
        0x00005624:    3f58485a    ZHX?    DCD    1062750298
        0x00005628:    bf08f5a1    ....    DCD    3205035425
        0x0000562c:    3f54db38    8.T?    DCD    1062525752
        0x00005630:    bf0e39d6    .9..    DCD    3205380566
        0x00005634:    3f514d40    @MQ?    DCD    1062292800
        0x00005638:    bf136827    'h..    DCD    3205720103
        0x0000563c:    3f4d9f0a    ..M?    DCD    1062051594
        0x00005640:    bf187fbb    ....    DCD    3206053819
        0x00005644:    3f49d10b    ..I?    DCD    1061802251
        0x00005648:    bf1d7fd8    ....    DCD    3206381528
        0x0000564c:    3f45e3fc    ..E?    DCD    1061544956
        0x00005650:    bf226794    .g".    DCD    3206702996
        0x00005654:    3f41d873    s.A?    DCD    1061279859
        0x00005658:    bf273659    Y6'.    DCD    3207018073
        0x0000565c:    3f3daef7    ..=?    DCD    1061007095
        0x00005660:    bf2beb4a    J.+.    DCD    3207326538
        0x00005664:    3f396840    @h9?    DCD    1060726848
        0x00005668:    bf3085c2    ..0.    DCD    3207628226
        0x0000566c:    3f3504f7    ..5?    DCD    1060439287
        0x00005670:    bf3504f7    ..5.    DCD    3207922935
        0x00005674:    3f3085c2    ..0?    DCD    1060144578
        0x00005678:    bf396840    @h9.    DCD    3208210496
        0x0000567c:    3f2beb4a    J.+?    DCD    1059842890
        0x00005680:    bf3daef7    ..=.    DCD    3208490743
        0x00005684:    3f273659    Y6'?    DCD    1059534425
        0x00005688:    bf41d873    s.A.    DCD    3208763507
        0x0000568c:    3f226794    .g"?    DCD    1059219348
        0x00005690:    bf45e3fc    ..E.    DCD    3209028604
        0x00005694:    3f1d7fd8    ...?    DCD    1058897880
        0x00005698:    bf49d10b    ..I.    DCD    3209285899
        0x0000569c:    3f187fbb    ...?    DCD    1058570171
        0x000056a0:    bf4d9f0a    ..M.    DCD    3209535242
        0x000056a4:    3f136827    'h.?    DCD    1058236455
        0x000056a8:    bf514d40    @MQ.    DCD    3209776448
        0x000056ac:    3f0e39d6    .9.?    DCD    1057896918
        0x000056b0:    bf54db38    8.T.    DCD    3210009400
        0x000056b4:    3f08f5a1    ...?    DCD    1057551777
        0x000056b8:    bf58485a    ZHX.    DCD    3210233946
        0x000056bc:    3f039c41    A..?    DCD    1057201217
        0x000056c0:    bf5b9421    !.[.    DCD    3210449953
        0x000056c4:    3efc5d20     ].>    DCD    1056726304
        0x000056c8:    bf5ebe06    ..^.    DCD    3210657286
        0x000056cc:    3ef15af3    .Z.>    DCD    1056004851
        0x000056d0:    bf61c593    ..a.    DCD    3210855827
        0x000056d4:    3ee6336a    j3.>    DCD    1055273834
        0x000056d8:    bf64aa54    T.d.    DCD    3211045460
        0x000056dc:    3edae87d    }..>    DCD    1054533757
        0x000056e0:    bf676bd3    .kg.    DCD    3211226067
        0x000056e4:    3ecf7bc0    .{.>    DCD    1053785024
        0x000056e8:    bf6a09ab    ..j.    DCD    3211397547
        0x000056ec:    3ec3ef07    ...>    DCD    1053028103
        0x000056f0:    bf6c8366    f.l.    DCD    3211559782
        0x000056f4:    3eb84428    (D.>    DCD    1052263464
        0x000056f8:    bf6ed8a1    ..n.    DCD    3211712673
        0x000056fc:    3eac7cd9    .|.>    DCD    1051491545
        0x00005700:    bf710907    ..q.    DCD    3211856135
        0x00005704:    3ea09aed    ...>    DCD    1050712813
        0x00005708:    bf731444    D.s.    DCD    3211990084
        0x0000570c:    3e94a03c    <..>    DCD    1049927740
        0x00005710:    bf74fa05    ..t.    DCD    3212114437
        0x00005714:    3e888e9b    ...>    DCD    1049136795
        0x00005718:    bf76ba06    ..v.    DCD    3212229126
        0x0000571c:    3e78cfc0    ..x>    DCD    1048104896
        0x00005720:    bf7853f4    .Sx.    DCD    3212334068
        0x00005724:    3e605c03    .\`>    DCD    1046502403
        0x00005728:    bf79c79b    ..y.    DCD    3212429211
        0x0000572c:    3e47c5ac    ..G>    DCD    1044891052
        0x00005730:    bf7b14ba    ..{.    DCD    3212514490
        0x00005734:    3e2f10aa    ../>    DCD    1043271850
        0x00005738:    bf7c3b2e    .;|.    DCD    3212589870
        0x0000573c:    3e164064    d@.>    DCD    1041645668
        0x00005740:    bf7d3ab4    .:}.    DCD    3212655284
        0x00005744:    3dfab29e    ...=    DCD    1039839902
        0x00005748:    bf7e132b    +.~.    DCD    3212710699
        0x0000574c:    3dc8bd23    #..=    DCD    1036565795
        0x00005750:    bf7ec472    r.~.    DCD    3212756082
        0x00005754:    3d96a93f    ?..=    DCD    1033283903
        0x00005758:    bf7f4e66    fN..    DCD    3212791398
        0x0000575c:    3d48fb87    ..H=    DCD    1028193159
        0x00005760:    bf7fb107    ....    DCD    3212816647
        0x00005764:    3cc90a35    5..<    DCD    1019808309
        0x00005768:    bf7fec46    F...    DCD    3212831814
        0x0000576c:    00000000    ....    DCD    0
        0x00005770:    bf800000    ....    DCD    3212836864
        0x00005774:    bcc90a35    5...    DCD    3167291957
        0x00005778:    bf7fec46    F...    DCD    3212831814
        0x0000577c:    bd48fb87    ..H.    DCD    3175676807
        0x00005780:    bf7fb107    ....    DCD    3212816647
        0x00005784:    bd96a93f    ?...    DCD    3180767551
        0x00005788:    bf7f4e66    fN..    DCD    3212791398
        0x0000578c:    bdc8bd23    #...    DCD    3184049443
        0x00005790:    bf7ec472    r.~.    DCD    3212756082
        0x00005794:    bdfab29e    ....    DCD    3187323550
        0x00005798:    bf7e132b    +.~.    DCD    3212710699
        0x0000579c:    be164064    d@..    DCD    3189129316
        0x000057a0:    bf7d3ab4    .:}.    DCD    3212655284
        0x000057a4:    be2f10aa    ../.    DCD    3190755498
        0x000057a8:    bf7c3b2e    .;|.    DCD    3212589870
        0x000057ac:    be47c5ac    ..G.    DCD    3192374700
        0x000057b0:    bf7b14ba    ..{.    DCD    3212514490
        0x000057b4:    be605c03    .\`.    DCD    3193986051
        0x000057b8:    bf79c79b    ..y.    DCD    3212429211
        0x000057bc:    be78cfc0    ..x.    DCD    3195588544
        0x000057c0:    bf7853f4    .Sx.    DCD    3212334068
        0x000057c4:    be888e9b    ....    DCD    3196620443
        0x000057c8:    bf76ba06    ..v.    DCD    3212229126
        0x000057cc:    be94a03c    <...    DCD    3197411388
        0x000057d0:    bf74fa05    ..t.    DCD    3212114437
        0x000057d4:    bea09aed    ....    DCD    3198196461
        0x000057d8:    bf731444    D.s.    DCD    3211990084
        0x000057dc:    beac7cd9    .|..    DCD    3198975193
        0x000057e0:    bf710907    ..q.    DCD    3211856135
        0x000057e4:    beb84428    (D..    DCD    3199747112
        0x000057e8:    bf6ed8a1    ..n.    DCD    3211712673
        0x000057ec:    bec3ef07    ....    DCD    3200511751
        0x000057f0:    bf6c8366    f.l.    DCD    3211559782
        0x000057f4:    becf7bc0    .{..    DCD    3201268672
        0x000057f8:    bf6a09ab    ..j.    DCD    3211397547
        0x000057fc:    bedae87d    }...    DCD    3202017405
        0x00005800:    bf676bd3    .kg.    DCD    3211226067
        0x00005804:    bee6336a    j3..    DCD    3202757482
        0x00005808:    bf64aa54    T.d.    DCD    3211045460
        0x0000580c:    bef15af3    .Z..    DCD    3203488499
        0x00005810:    bf61c593    ..a.    DCD    3210855827
        0x00005814:    befc5d20     ]..    DCD    3204209952
        0x00005818:    bf5ebe06    ..^.    DCD    3210657286
        0x0000581c:    bf039c41    A...    DCD    3204684865
        0x00005820:    bf5b9421    !.[.    DCD    3210449953
        0x00005824:    bf08f5a1    ....    DCD    3205035425
        0x00005828:    bf58485a    ZHX.    DCD    3210233946
        0x0000582c:    bf0e39d6    .9..    DCD    3205380566
        0x00005830:    bf54db38    8.T.    DCD    3210009400
        0x00005834:    bf136827    'h..    DCD    3205720103
        0x00005838:    bf514d40    @MQ.    DCD    3209776448
        0x0000583c:    bf187fbb    ....    DCD    3206053819
        0x00005840:    bf4d9f0a    ..M.    DCD    3209535242
        0x00005844:    bf1d7fd8    ....    DCD    3206381528
        0x00005848:    bf49d10b    ..I.    DCD    3209285899
        0x0000584c:    bf226794    .g".    DCD    3206702996
        0x00005850:    bf45e3fc    ..E.    DCD    3209028604
        0x00005854:    bf273659    Y6'.    DCD    3207018073
        0x00005858:    bf41d873    s.A.    DCD    3208763507
        0x0000585c:    bf2beb4a    J.+.    DCD    3207326538
        0x00005860:    bf3daef7    ..=.    DCD    3208490743
        0x00005864:    bf3085c2    ..0.    DCD    3207628226
        0x00005868:    bf396840    @h9.    DCD    3208210496
        0x0000586c:    bf3504f7    ..5.    DCD    3207922935
        0x00005870:    bf3504f7    ..5.    DCD    3207922935
        0x00005874:    bf396840    @h9.    DCD    3208210496
        0x00005878:    bf3085c2    ..0.    DCD    3207628226
        0x0000587c:    bf3daef7    ..=.    DCD    3208490743
        0x00005880:    bf2beb4a    J.+.    DCD    3207326538
        0x00005884:    bf41d873    s.A.    DCD    3208763507
        0x00005888:    bf273659    Y6'.    DCD    3207018073
        0x0000588c:    bf45e3fc    ..E.    DCD    3209028604
        0x00005890:    bf226794    .g".    DCD    3206702996
        0x00005894:    bf49d10b    ..I.    DCD    3209285899
        0x00005898:    bf1d7fd8    ....    DCD    3206381528
        0x0000589c:    bf4d9f0a    ..M.    DCD    3209535242
        0x000058a0:    bf187fbb    ....    DCD    3206053819
        0x000058a4:    bf514d40    @MQ.    DCD    3209776448
        0x000058a8:    bf136827    'h..    DCD    3205720103
        0x000058ac:    bf54db38    8.T.    DCD    3210009400
        0x000058b0:    bf0e39d6    .9..    DCD    3205380566
        0x000058b4:    bf58485a    ZHX.    DCD    3210233946
        0x000058b8:    bf08f5a1    ....    DCD    3205035425
        0x000058bc:    bf5b9421    !.[.    DCD    3210449953
        0x000058c0:    bf039c41    A...    DCD    3204684865
        0x000058c4:    bf5ebe06    ..^.    DCD    3210657286
        0x000058c8:    befc5d20     ]..    DCD    3204209952
        0x000058cc:    bf61c593    ..a.    DCD    3210855827
        0x000058d0:    bef15af3    .Z..    DCD    3203488499
        0x000058d4:    bf64aa54    T.d.    DCD    3211045460
        0x000058d8:    bee6336a    j3..    DCD    3202757482
        0x000058dc:    bf676bd3    .kg.    DCD    3211226067
        0x000058e0:    bedae87d    }...    DCD    3202017405
        0x000058e4:    bf6a09ab    ..j.    DCD    3211397547
        0x000058e8:    becf7bc0    .{..    DCD    3201268672
        0x000058ec:    bf6c8366    f.l.    DCD    3211559782
        0x000058f0:    bec3ef07    ....    DCD    3200511751
        0x000058f4:    bf6ed8a1    ..n.    DCD    3211712673
        0x000058f8:    beb84428    (D..    DCD    3199747112
        0x000058fc:    bf710907    ..q.    DCD    3211856135
        0x00005900:    beac7cd9    .|..    DCD    3198975193
        0x00005904:    bf731444    D.s.    DCD    3211990084
        0x00005908:    bea09aed    ....    DCD    3198196461
        0x0000590c:    bf74fa05    ..t.    DCD    3212114437
        0x00005910:    be94a03c    <...    DCD    3197411388
        0x00005914:    bf76ba06    ..v.    DCD    3212229126
        0x00005918:    be888e9b    ....    DCD    3196620443
        0x0000591c:    bf7853f4    .Sx.    DCD    3212334068
        0x00005920:    be78cfc0    ..x.    DCD    3195588544
        0x00005924:    bf79c79b    ..y.    DCD    3212429211
        0x00005928:    be605c03    .\`.    DCD    3193986051
        0x0000592c:    bf7b14ba    ..{.    DCD    3212514490
        0x00005930:    be47c5ac    ..G.    DCD    3192374700
        0x00005934:    bf7c3b2e    .;|.    DCD    3212589870
        0x00005938:    be2f10aa    ../.    DCD    3190755498
        0x0000593c:    bf7d3ab4    .:}.    DCD    3212655284
        0x00005940:    be164064    d@..    DCD    3189129316
        0x00005944:    bf7e132b    +.~.    DCD    3212710699
        0x00005948:    bdfab29e    ....    DCD    3187323550
        0x0000594c:    bf7ec472    r.~.    DCD    3212756082
        0x00005950:    bdc8bd23    #...    DCD    3184049443
        0x00005954:    bf7f4e66    fN..    DCD    3212791398
        0x00005958:    bd96a93f    ?...    DCD    3180767551
        0x0000595c:    bf7fb107    ....    DCD    3212816647
        0x00005960:    bd48fb87    ..H.    DCD    3175676807
        0x00005964:    bf7fec46    F...    DCD    3212831814
        0x00005968:    bcc90a35    5...    DCD    3167291957
        0x0000596c:    3f800000    ...?    DCD    1065353216
        0x00005970:    00000000    ....    DCD    0
        0x00005974:    3f7ffb16    ...?    DCD    1065351958
        0x00005978:    bc491080    ..I.    DCD    3158904960
        0x0000597c:    3f7fec46    F..?    DCD    1065348166
        0x00005980:    bcc90a35    5...    DCD    3167291957
        0x00005984:    3f7fd391    ...?    DCD    1065341841
        0x00005988:    bd16c2f0    ....    DCD    3172385520
        0x0000598c:    3f7fb107    ...?    DCD    1065332999
        0x00005990:    bd48fb87    ..H.    DCD    3175676807
        0x00005994:    3f7f84a9    ...?    DCD    1065321641
        0x00005998:    bd7b2bbb    .+{.    DCD    3178965947
        0x0000599c:    3f7f4e66    fN.?    DCD    1065307750
        0x000059a0:    bd96a93f    ?...    DCD    3180767551
        0x000059a4:    3f7f0e5e    ^..?    DCD    1065291358
        0x000059a8:    bdafb656    V...    DCD    3182409302
        0x000059ac:    3f7ec472    r.~?    DCD    1065272434
        0x000059b0:    bdc8bd23    #...    DCD    3184049443
        0x000059b4:    3f7e70b0    .p~?    DCD    1065250992
        0x000059b8:    bde1bc12    ....    DCD    3185687570
        0x000059bc:    3f7e132b    +.~?    DCD    1065227051
        0x000059c0:    bdfab29e    ....    DCD    3187323550
        0x000059c4:    3f7dabd2    ..}?    DCD    1065200594
        0x000059c8:    be09cf9a    ....    DCD    3188314010
        0x000059cc:    3f7d3ab4    .:}?    DCD    1065171636
        0x000059d0:    be164064    d@..    DCD    3189129316
        0x000059d4:    3f7cbfc2    ..|?    DCD    1065140162
        0x000059d8:    be22abac    ..".    DCD    3189943212
        0x000059dc:    3f7c3b2e    .;|?    DCD    1065106222
        0x000059e0:    be2f10aa    ../.    DCD    3190755498
        0x000059e4:    3f7bacc5    ..{?    DCD    1065069765
        0x000059e8:    be3b6ed6    .n;.    DCD    3191566038
        0x000059ec:    3f7b14ba    ..{?    DCD    1065030842
        0x000059f0:    be47c5ac    ..G.    DCD    3192374700
        0x000059f4:    3f7a72fc    .rz?    DCD    1064989436
        0x000059f8:    be5414e8    ..T.    DCD    3193181416
        0x000059fc:    3f79c79b    ..y?    DCD    1064945563
        0x00005a00:    be605c03    .\`.    DCD    3193986051
        0x00005a04:    3f791299    ..y?    DCD    1064899225
        0x00005a08:    be6c9a78    x.l.    DCD    3194788472
        0x00005a0c:    3f7853f4    .Sx?    DCD    1064850420
        0x00005a10:    be78cfc0    ..x.    DCD    3195588544
        0x00005a14:    3f778bbd    ..w?    DCD    1064799165
        0x00005a18:    be827dcc    .}..    DCD    3196222924
        0x00005a1c:    3f76ba06    ..v?    DCD    1064745478
        0x00005a20:    be888e9b    ....    DCD    3196620443
        0x00005a24:    3f75dece    ..u?    DCD    1064689358
        0x00005a28:    be8e9a2c    ,...    DCD    3197016620
        0x00005a2c:    3f74fa05    ..t?    DCD    1064630789
        0x00005a30:    be94a03c    <...    DCD    3197411388
        0x00005a34:    3f740bdd    ..t?    DCD    1064569821
        0x00005a38:    be9aa088    ....    DCD    3197804680
        0x00005a3c:    3f731444    D.s?    DCD    1064506436
        0x00005a40:    bea09aed    ....    DCD    3198196461
        0x00005a44:    3f72134d    M.r?    DCD    1064440653
        0x00005a48:    bea68f08    ....    DCD    3198586632
        0x00005a4c:    3f710907    ..q?    DCD    1064372487
        0x00005a50:    beac7cd9    .|..    DCD    3198975193
        0x00005a54:    3f6ff573    s.o?    DCD    1064301939
        0x00005a58:    beb263fa    .c..    DCD    3199362042
        0x00005a5c:    3f6ed8a1    ..n?    DCD    1064229025
        0x00005a60:    beb84428    (D..    DCD    3199747112
        0x00005a64:    3f6db292    ..m?    DCD    1064153746
        0x00005a68:    bebe1d43    C...    DCD    3200130371
        0x00005a6c:    3f6c8366    f.l?    DCD    1064076134
        0x00005a70:    bec3ef07    ....    DCD    3200511751
        0x00005a74:    3f6b4b0e    .Kk?    DCD    1063996174
        0x00005a78:    bec9b952    R...    DCD    3200891218
        0x00005a7c:    3f6a09ab    ..j?    DCD    1063913899
        0x00005a80:    becf7bc0    .{..    DCD    3201268672
        0x00005a84:    3f68bf3c    <.h?    DCD    1063829308
        0x00005a88:    bed53650    P6..    DCD    3201644112
        0x00005a8c:    3f676bd3    .kg?    DCD    1063742419
        0x00005a90:    bedae87d    }...    DCD    3202017405
        0x00005a94:    3f660f80    ..f?    DCD    1063653248
        0x00005a98:    bee09247    G...    DCD    3202388551
        0x00005a9c:    3f64aa54    T.d?    DCD    1063561812
        0x00005aa0:    bee6336a    j3..    DCD    3202757482
        0x00005aa4:    3f633c60    `<c?    DCD    1063468128
        0x00005aa8:    beebcbc5    ....    DCD    3203124165
        0x00005aac:    3f61c593    ..a?    DCD    1063372179
        0x00005ab0:    bef15af3    .Z..    DCD    3203488499
        0x00005ab4:    3f604620     F`?    DCD    1063274016
        0x00005ab8:    bef6e0d2    ....    DCD    3203850450
        0x00005abc:    3f5ebe06    ..^?    DCD    1063173638
        0x00005ac0:    befc5d20     ]..    DCD    3204209952
        0x00005ac4:    3f5d2d56    V-]?    DCD    1063071062
        0x00005ac8:    bf00e7de    ....    DCD    3204507614
        0x00005acc:    3f5b9421    !.[?    DCD    1062966305
        0x00005ad0:    bf039c41    A...    DCD    3204684865
        0x00005ad4:    3f59f267    g.Y?    DCD    1062859367
        0x00005ad8:    bf064b88    .K..    DCD    3204860808
        0x00005adc:    3f58485a    ZHX?    DCD    1062750298
        0x00005ae0:    bf08f5a1    ....    DCD    3205035425
        0x00005ae4:    3f5695ea    ..V?    DCD    1062639082
        0x00005ae8:    bf0b9a6b    k...    DCD    3205208683
        0x00005aec:    3f54db38    8.T?    DCD    1062525752
        0x00005af0:    bf0e39d6    .9..    DCD    3205380566
        0x00005af4:    3f531844    D.S?    DCD    1062410308
        0x00005af8:    bf10d3d0    ....    DCD    3205551056
        0x00005afc:    3f514d40    @MQ?    DCD    1062292800
        0x00005b00:    bf136827    'h..    DCD    3205720103
        0x00005b04:    3f4f7a1c    .zO?    DCD    1062173212
        0x00005b08:    bf15f6dc    ....    DCD    3205887708
        0x00005b0c:    3f4d9f0a    ..M?    DCD    1062051594
        0x00005b10:    bf187fbb    ....    DCD    3206053819
        0x00005b14:    3f4bbbf9    ..K?    DCD    1061927929
        0x00005b18:    bf1b02c5    ....    DCD    3206218437
        0x00005b1c:    3f49d10b    ..I?    DCD    1061802251
        0x00005b20:    bf1d7fd8    ....    DCD    3206381528
        0x00005b24:    3f47de61    a.G?    DCD    1061674593
        0x00005b28:    bf1ff6c2    ....    DCD    3206543042
        0x00005b2c:    3f45e3fc    ..E?    DCD    1061544956
        0x00005b30:    bf226794    .g".    DCD    3206702996
        0x00005b34:    3f43e1fc    ..C?    DCD    1061413372
        0x00005b38:    bf24d22d    -.$.    DCD    3206861357
        0x00005b3c:    3f41d873    s.A?    DCD    1061279859
        0x00005b40:    bf273659    Y6'.    DCD    3207018073
        0x00005b44:    3f3fc760    `.??    DCD    1061144416
        0x00005b48:    bf299418    ..).    DCD    3207173144
        0x00005b4c:    3f3daef7    ..=?    DCD    1061007095
        0x00005b50:    bf2beb4a    J.+.    DCD    3207326538
        0x00005b54:    3f3b8f36    6.;?    DCD    1060867894
        0x00005b58:    bf2e3bde    .;..    DCD    3207478238
        0x00005b5c:    3f396840    @h9?    DCD    1060726848
        0x00005b60:    bf3085c2    ..0.    DCD    3207628226
        0x00005b64:    3f373a26    &:7?    DCD    1060583974
        0x00005b68:    bf32c8c5    ..2.    DCD    3207776453
        0x00005b6c:    3f3504f7    ..5?    DCD    1060439287
        0x00005b70:    bf3504f7    ..5.    DCD    3207922935
        0x00005b74:    3f32c8c5    ..2?    DCD    1060292805
        0x00005b78:    bf373a26    &:7.    DCD    3208067622
        0x00005b7c:    3f3085c2    ..0?    DCD    1060144578
        0x00005b80:    bf396840    @h9.    DCD    3208210496
        0x00005b84:    3f2e3bde    .;.?    DCD    1059994590
        0x00005b88:    bf3b8f36    6.;.    DCD    3208351542
        0x00005b8c:    3f2beb4a    J.+?    DCD    1059842890
        0x00005b90:    bf3daef7    ..=.    DCD    3208490743
        0x00005b94:    3f299418    ..)?    DCD    1059689496
        0x00005b98:    bf3fc760    `.?.    DCD    3208628064
        0x00005b9c:    3f273659    Y6'?    DCD    1059534425
        0x00005ba0:    bf41d873    s.A.    DCD    3208763507
        0x00005ba4:    3f24d22d    -.$?    DCD    1059377709
        0x00005ba8:    bf43e1fc    ..C.    DCD    3208897020
        0x00005bac:    3f226794    .g"?    DCD    1059219348
        0x00005bb0:    bf45e3fc    ..E.    DCD    3209028604
        0x00005bb4:    3f1ff6c2    ...?    DCD    1059059394
        0x00005bb8:    bf47de61    a.G.    DCD    3209158241
        0x00005bbc:    3f1d7fd8    ...?    DCD    1058897880
        0x00005bc0:    bf49d10b    ..I.    DCD    3209285899
        0x00005bc4:    3f1b02c5    ...?    DCD    1058734789
        0x00005bc8:    bf4bbbf9    ..K.    DCD    3209411577
        0x00005bcc:    3f187fbb    ...?    DCD    1058570171
        0x00005bd0:    bf4d9f0a    ..M.    DCD    3209535242
        0x00005bd4:    3f15f6dc    ...?    DCD    1058404060
        0x00005bd8:    bf4f7a1c    .zO.    DCD    3209656860
        0x00005bdc:    3f136827    'h.?    DCD    1058236455
        0x00005be0:    bf514d40    @MQ.    DCD    3209776448
        0x00005be4:    3f10d3d0    ...?    DCD    1058067408
        0x00005be8:    bf531844    D.S.    DCD    3209893956
        0x00005bec:    3f0e39d6    .9.?    DCD    1057896918
        0x00005bf0:    bf54db38    8.T.    DCD    3210009400
        0x00005bf4:    3f0b9a6b    k..?    DCD    1057725035
        0x00005bf8:    bf5695ea    ..V.    DCD    3210122730
        0x00005bfc:    3f08f5a1    ...?    DCD    1057551777
        0x00005c00:    bf58485a    ZHX.    DCD    3210233946
        0x00005c04:    3f064b88    .K.?    DCD    1057377160
        0x00005c08:    bf59f267    g.Y.    DCD    3210343015
        0x00005c0c:    3f039c41    A..?    DCD    1057201217
        0x00005c10:    bf5b9421    !.[.    DCD    3210449953
        0x00005c14:    3f00e7de    ...?    DCD    1057023966
        0x00005c18:    bf5d2d56    V-].    DCD    3210554710
        0x00005c1c:    3efc5d20     ].>    DCD    1056726304
        0x00005c20:    bf5ebe06    ..^.    DCD    3210657286
        0x00005c24:    3ef6e0d2    ...>    DCD    1056366802
        0x00005c28:    bf604620     F`.    DCD    3210757664
        0x00005c2c:    3ef15af3    .Z.>    DCD    1056004851
        0x00005c30:    bf61c593    ..a.    DCD    3210855827
        0x00005c34:    3eebcbc5    ...>    DCD    1055640517
        0x00005c38:    bf633c60    `<c.    DCD    3210951776
        0x00005c3c:    3ee6336a    j3.>    DCD    1055273834
        0x00005c40:    bf64aa54    T.d.    DCD    3211045460
        0x00005c44:    3ee09247    G..>    DCD    1054904903
        0x00005c48:    bf660f80    ..f.    DCD    3211136896
        0x00005c4c:    3edae87d    }..>    DCD    1054533757
        0x00005c50:    bf676bd3    .kg.    DCD    3211226067
        0x00005c54:    3ed53650    P6.>    DCD    1054160464
        0x00005c58:    bf68bf3c    <.h.    DCD    3211312956
        0x00005c5c:    3ecf7bc0    .{.>    DCD    1053785024
        0x00005c60:    bf6a09ab    ..j.    DCD    3211397547
        0x00005c64:    3ec9b952    R..>    DCD    1053407570
        0x00005c68:    bf6b4b0e    .Kk.    DCD    3211479822
        0x00005c6c:    3ec3ef07    ...>    DCD    1053028103
        0x00005c70:    bf6c8366    f.l.    DCD    3211559782
        0x00005c74:    3ebe1d43    C..>    DCD    1052646723
        0x00005c78:    bf6db292    ..m.    DCD    3211637394
        0x00005c7c:    3eb84428    (D.>    DCD    1052263464
        0x00005c80:    bf6ed8a1    ..n.    DCD    3211712673
        0x00005c84:    3eb263fa    .c.>    DCD    1051878394
        0x00005c88:    bf6ff573    s.o.    DCD    3211785587
        0x00005c8c:    3eac7cd9    .|.>    DCD    1051491545
        0x00005c90:    bf710907    ..q.    DCD    3211856135
        0x00005c94:    3ea68f08    ...>    DCD    1051102984
        0x00005c98:    bf72134d    M.r.    DCD    3211924301
        0x00005c9c:    3ea09aed    ...>    DCD    1050712813
        0x00005ca0:    bf731444    D.s.    DCD    3211990084
        0x00005ca4:    3e9aa088    ...>    DCD    1050321032
        0x00005ca8:    bf740bdd    ..t.    DCD    3212053469
        0x00005cac:    3e94a03c    <..>    DCD    1049927740
        0x00005cb0:    bf74fa05    ..t.    DCD    3212114437
        0x00005cb4:    3e8e9a2c    ,..>    DCD    1049532972
        0x00005cb8:    bf75dece    ..u.    DCD    3212173006
        0x00005cbc:    3e888e9b    ...>    DCD    1049136795
        0x00005cc0:    bf76ba06    ..v.    DCD    3212229126
        0x00005cc4:    3e827dcc    .}.>    DCD    1048739276
        0x00005cc8:    bf778bbd    ..w.    DCD    3212282813
        0x00005ccc:    3e78cfc0    ..x>    DCD    1048104896
        0x00005cd0:    bf7853f4    .Sx.    DCD    3212334068
        0x00005cd4:    3e6c9a78    x.l>    DCD    1047304824
        0x00005cd8:    bf791299    ..y.    DCD    3212382873
        0x00005cdc:    3e605c03    .\`>    DCD    1046502403
        0x00005ce0:    bf79c79b    ..y.    DCD    3212429211
        0x00005ce4:    3e5414e8    ..T>    DCD    1045697768
        0x00005ce8:    bf7a72fc    .rz.    DCD    3212473084
        0x00005cec:    3e47c5ac    ..G>    DCD    1044891052
        0x00005cf0:    bf7b14ba    ..{.    DCD    3212514490
        0x00005cf4:    3e3b6ed6    .n;>    DCD    1044082390
        0x00005cf8:    bf7bacc5    ..{.    DCD    3212553413
        0x00005cfc:    3e2f10aa    ../>    DCD    1043271850
        0x00005d00:    bf7c3b2e    .;|.    DCD    3212589870
        0x00005d04:    3e22abac    ..">    DCD    1042459564
        0x00005d08:    bf7cbfc2    ..|.    DCD    3212623810
        0x00005d0c:    3e164064    d@.>    DCD    1041645668
        0x00005d10:    bf7d3ab4    .:}.    DCD    3212655284
        0x00005d14:    3e09cf9a    ...>    DCD    1040830362
        0x00005d18:    bf7dabd2    ..}.    DCD    3212684242
        0x00005d1c:    3dfab29e    ...=    DCD    1039839902
        0x00005d20:    bf7e132b    +.~.    DCD    3212710699
        0x00005d24:    3de1bc12    ...=    DCD    1038203922
        0x00005d28:    bf7e70b0    .p~.    DCD    3212734640
        0x00005d2c:    3dc8bd23    #..=    DCD    1036565795
        0x00005d30:    bf7ec472    r.~.    DCD    3212756082
        0x00005d34:    3dafb656    V..=    DCD    1034925654
        0x00005d38:    bf7f0e5e    ^...    DCD    3212775006
        0x00005d3c:    3d96a93f    ?..=    DCD    1033283903
        0x00005d40:    bf7f4e66    fN..    DCD    3212791398
        0x00005d44:    3d7b2bbb    .+{=    DCD    1031482299
        0x00005d48:    bf7f84a9    ....    DCD    3212805289
        0x00005d4c:    3d48fb87    ..H=    DCD    1028193159
        0x00005d50:    bf7fb107    ....    DCD    3212816647
        0x00005d54:    3d16c2f0    ...=    DCD    1024901872
        0x00005d58:    bf7fd391    ....    DCD    3212825489
        0x00005d5c:    3cc90a35    5..<    DCD    1019808309
        0x00005d60:    bf7fec46    F...    DCD    3212831814
        0x00005d64:    3c491080    ..I<    DCD    1011421312
        0x00005d68:    bf7ffb16    ....    DCD    3212835606
        0x00005d6c:    00000000    ....    DCD    0
        0x00005d70:    bf800000    ....    DCD    3212836864
        0x00005d74:    bc491080    ..I.    DCD    3158904960
        0x00005d78:    bf7ffb16    ....    DCD    3212835606
        0x00005d7c:    bcc90a35    5...    DCD    3167291957
        0x00005d80:    bf7fec46    F...    DCD    3212831814
        0x00005d84:    bd16c2f0    ....    DCD    3172385520
        0x00005d88:    bf7fd391    ....    DCD    3212825489
        0x00005d8c:    bd48fb87    ..H.    DCD    3175676807
        0x00005d90:    bf7fb107    ....    DCD    3212816647
        0x00005d94:    bd7b2bbb    .+{.    DCD    3178965947
        0x00005d98:    bf7f84a9    ....    DCD    3212805289
        0x00005d9c:    bd96a93f    ?...    DCD    3180767551
        0x00005da0:    bf7f4e66    fN..    DCD    3212791398
        0x00005da4:    bdafb656    V...    DCD    3182409302
        0x00005da8:    bf7f0e5e    ^...    DCD    3212775006
        0x00005dac:    bdc8bd23    #...    DCD    3184049443
        0x00005db0:    bf7ec472    r.~.    DCD    3212756082
        0x00005db4:    bde1bc12    ....    DCD    3185687570
        0x00005db8:    bf7e70b0    .p~.    DCD    3212734640
        0x00005dbc:    bdfab29e    ....    DCD    3187323550
        0x00005dc0:    bf7e132b    +.~.    DCD    3212710699
        0x00005dc4:    be09cf9a    ....    DCD    3188314010
        0x00005dc8:    bf7dabd2    ..}.    DCD    3212684242
        0x00005dcc:    be164064    d@..    DCD    3189129316
        0x00005dd0:    bf7d3ab4    .:}.    DCD    3212655284
        0x00005dd4:    be22abac    ..".    DCD    3189943212
        0x00005dd8:    bf7cbfc2    ..|.    DCD    3212623810
        0x00005ddc:    be2f10aa    ../.    DCD    3190755498
        0x00005de0:    bf7c3b2e    .;|.    DCD    3212589870
        0x00005de4:    be3b6ed6    .n;.    DCD    3191566038
        0x00005de8:    bf7bacc5    ..{.    DCD    3212553413
        0x00005dec:    be47c5ac    ..G.    DCD    3192374700
        0x00005df0:    bf7b14ba    ..{.    DCD    3212514490
        0x00005df4:    be5414e8    ..T.    DCD    3193181416
        0x00005df8:    bf7a72fc    .rz.    DCD    3212473084
        0x00005dfc:    be605c03    .\`.    DCD    3193986051
        0x00005e00:    bf79c79b    ..y.    DCD    3212429211
        0x00005e04:    be6c9a78    x.l.    DCD    3194788472
        0x00005e08:    bf791299    ..y.    DCD    3212382873
        0x00005e0c:    be78cfc0    ..x.    DCD    3195588544
        0x00005e10:    bf7853f4    .Sx.    DCD    3212334068
        0x00005e14:    be827dcc    .}..    DCD    3196222924
        0x00005e18:    bf778bbd    ..w.    DCD    3212282813
        0x00005e1c:    be888e9b    ....    DCD    3196620443
        0x00005e20:    bf76ba06    ..v.    DCD    3212229126
        0x00005e24:    be8e9a2c    ,...    DCD    3197016620
        0x00005e28:    bf75dece    ..u.    DCD    3212173006
        0x00005e2c:    be94a03c    <...    DCD    3197411388
        0x00005e30:    bf74fa05    ..t.    DCD    3212114437
        0x00005e34:    be9aa088    ....    DCD    3197804680
        0x00005e38:    bf740bdd    ..t.    DCD    3212053469
        0x00005e3c:    bea09aed    ....    DCD    3198196461
        0x00005e40:    bf731444    D.s.    DCD    3211990084
        0x00005e44:    bea68f08    ....    DCD    3198586632
        0x00005e48:    bf72134d    M.r.    DCD    3211924301
        0x00005e4c:    beac7cd9    .|..    DCD    3198975193
        0x00005e50:    bf710907    ..q.    DCD    3211856135
        0x00005e54:    beb263fa    .c..    DCD    3199362042
        0x00005e58:    bf6ff573    s.o.    DCD    3211785587
        0x00005e5c:    beb84428    (D..    DCD    3199747112
        0x00005e60:    bf6ed8a1    ..n.    DCD    3211712673
        0x00005e64:    bebe1d43    C...    DCD    3200130371
        0x00005e68:    bf6db292    ..m.    DCD    3211637394
        0x00005e6c:    bec3ef07    ....    DCD    3200511751
        0x00005e70:    bf6c8366    f.l.    DCD    3211559782
        0x00005e74:    bec9b952    R...    DCD    3200891218
        0x00005e78:    bf6b4b0e    .Kk.    DCD    3211479822
        0x00005e7c:    becf7bc0    .{..    DCD    3201268672
        0x00005e80:    bf6a09ab    ..j.    DCD    3211397547
        0x00005e84:    bed53650    P6..    DCD    3201644112
        0x00005e88:    bf68bf3c    <.h.    DCD    3211312956
        0x00005e8c:    bedae87d    }...    DCD    3202017405
        0x00005e90:    bf676bd3    .kg.    DCD    3211226067
        0x00005e94:    bee09247    G...    DCD    3202388551
        0x00005e98:    bf660f80    ..f.    DCD    3211136896
        0x00005e9c:    bee6336a    j3..    DCD    3202757482
        0x00005ea0:    bf64aa54    T.d.    DCD    3211045460
        0x00005ea4:    beebcbc5    ....    DCD    3203124165
        0x00005ea8:    bf633c60    `<c.    DCD    3210951776
        0x00005eac:    bef15af3    .Z..    DCD    3203488499
        0x00005eb0:    bf61c593    ..a.    DCD    3210855827
        0x00005eb4:    bef6e0d2    ....    DCD    3203850450
        0x00005eb8:    bf604620     F`.    DCD    3210757664
        0x00005ebc:    befc5d20     ]..    DCD    3204209952
        0x00005ec0:    bf5ebe06    ..^.    DCD    3210657286
        0x00005ec4:    bf00e7de    ....    DCD    3204507614
        0x00005ec8:    bf5d2d56    V-].    DCD    3210554710
        0x00005ecc:    bf039c41    A...    DCD    3204684865
        0x00005ed0:    bf5b9421    !.[.    DCD    3210449953
        0x00005ed4:    bf064b88    .K..    DCD    3204860808
        0x00005ed8:    bf59f267    g.Y.    DCD    3210343015
        0x00005edc:    bf08f5a1    ....    DCD    3205035425
        0x00005ee0:    bf58485a    ZHX.    DCD    3210233946
        0x00005ee4:    bf0b9a6b    k...    DCD    3205208683
        0x00005ee8:    bf5695ea    ..V.    DCD    3210122730
        0x00005eec:    bf0e39d6    .9..    DCD    3205380566
        0x00005ef0:    bf54db38    8.T.    DCD    3210009400
        0x00005ef4:    bf10d3d0    ....    DCD    3205551056
        0x00005ef8:    bf531844    D.S.    DCD    3209893956
        0x00005efc:    bf136827    'h..    DCD    3205720103
        0x00005f00:    bf514d40    @MQ.    DCD    3209776448
        0x00005f04:    bf15f6dc    ....    DCD    3205887708
        0x00005f08:    bf4f7a1c    .zO.    DCD    3209656860
        0x00005f0c:    bf187fbb    ....    DCD    3206053819
        0x00005f10:    bf4d9f0a    ..M.    DCD    3209535242
        0x00005f14:    bf1b02c5    ....    DCD    3206218437
        0x00005f18:    bf4bbbf9    ..K.    DCD    3209411577
        0x00005f1c:    bf1d7fd8    ....    DCD    3206381528
        0x00005f20:    bf49d10b    ..I.    DCD    3209285899
        0x00005f24:    bf1ff6c2    ....    DCD    3206543042
        0x00005f28:    bf47de61    a.G.    DCD    3209158241
        0x00005f2c:    bf226794    .g".    DCD    3206702996
        0x00005f30:    bf45e3fc    ..E.    DCD    3209028604
        0x00005f34:    bf24d22d    -.$.    DCD    3206861357
        0x00005f38:    bf43e1fc    ..C.    DCD    3208897020
        0x00005f3c:    bf273659    Y6'.    DCD    3207018073
        0x00005f40:    bf41d873    s.A.    DCD    3208763507
        0x00005f44:    bf299418    ..).    DCD    3207173144
        0x00005f48:    bf3fc760    `.?.    DCD    3208628064
        0x00005f4c:    bf2beb4a    J.+.    DCD    3207326538
        0x00005f50:    bf3daef7    ..=.    DCD    3208490743
        0x00005f54:    bf2e3bde    .;..    DCD    3207478238
        0x00005f58:    bf3b8f36    6.;.    DCD    3208351542
        0x00005f5c:    bf3085c2    ..0.    DCD    3207628226
        0x00005f60:    bf396840    @h9.    DCD    3208210496
        0x00005f64:    bf32c8c5    ..2.    DCD    3207776453
        0x00005f68:    bf373a26    &:7.    DCD    3208067622
        0x00005f6c:    bf3504f7    ..5.    DCD    3207922935
        0x00005f70:    bf3504f7    ..5.    DCD    3207922935
        0x00005f74:    bf373a26    &:7.    DCD    3208067622
        0x00005f78:    bf32c8c5    ..2.    DCD    3207776453
        0x00005f7c:    bf396840    @h9.    DCD    3208210496
        0x00005f80:    bf3085c2    ..0.    DCD    3207628226
        0x00005f84:    bf3b8f36    6.;.    DCD    3208351542
        0x00005f88:    bf2e3bde    .;..    DCD    3207478238
        0x00005f8c:    bf3daef7    ..=.    DCD    3208490743
        0x00005f90:    bf2beb4a    J.+.    DCD    3207326538
        0x00005f94:    bf3fc760    `.?.    DCD    3208628064
        0x00005f98:    bf299418    ..).    DCD    3207173144
        0x00005f9c:    bf41d873    s.A.    DCD    3208763507
        0x00005fa0:    bf273659    Y6'.    DCD    3207018073
        0x00005fa4:    bf43e1fc    ..C.    DCD    3208897020
        0x00005fa8:    bf24d22d    -.$.    DCD    3206861357
        0x00005fac:    bf45e3fc    ..E.    DCD    3209028604
        0x00005fb0:    bf226794    .g".    DCD    3206702996
        0x00005fb4:    bf47de61    a.G.    DCD    3209158241
        0x00005fb8:    bf1ff6c2    ....    DCD    3206543042
        0x00005fbc:    bf49d10b    ..I.    DCD    3209285899
        0x00005fc0:    bf1d7fd8    ....    DCD    3206381528
        0x00005fc4:    bf4bbbf9    ..K.    DCD    3209411577
        0x00005fc8:    bf1b02c5    ....    DCD    3206218437
        0x00005fcc:    bf4d9f0a    ..M.    DCD    3209535242
        0x00005fd0:    bf187fbb    ....    DCD    3206053819
        0x00005fd4:    bf4f7a1c    .zO.    DCD    3209656860
        0x00005fd8:    bf15f6dc    ....    DCD    3205887708
        0x00005fdc:    bf514d40    @MQ.    DCD    3209776448
        0x00005fe0:    bf136827    'h..    DCD    3205720103
        0x00005fe4:    bf531844    D.S.    DCD    3209893956
        0x00005fe8:    bf10d3d0    ....    DCD    3205551056
        0x00005fec:    bf54db38    8.T.    DCD    3210009400
        0x00005ff0:    bf0e39d6    .9..    DCD    3205380566
        0x00005ff4:    bf5695ea    ..V.    DCD    3210122730
        0x00005ff8:    bf0b9a6b    k...    DCD    3205208683
        0x00005ffc:    bf58485a    ZHX.    DCD    3210233946
        0x00006000:    bf08f5a1    ....    DCD    3205035425
        0x00006004:    bf59f267    g.Y.    DCD    3210343015
        0x00006008:    bf064b88    .K..    DCD    3204860808
        0x0000600c:    bf5b9421    !.[.    DCD    3210449953
        0x00006010:    bf039c41    A...    DCD    3204684865
        0x00006014:    bf5d2d56    V-].    DCD    3210554710
        0x00006018:    bf00e7de    ....    DCD    3204507614
        0x0000601c:    bf5ebe06    ..^.    DCD    3210657286
        0x00006020:    befc5d20     ]..    DCD    3204209952
        0x00006024:    bf604620     F`.    DCD    3210757664
        0x00006028:    bef6e0d2    ....    DCD    3203850450
        0x0000602c:    bf61c593    ..a.    DCD    3210855827
        0x00006030:    bef15af3    .Z..    DCD    3203488499
        0x00006034:    bf633c60    `<c.    DCD    3210951776
        0x00006038:    beebcbc5    ....    DCD    3203124165
        0x0000603c:    bf64aa54    T.d.    DCD    3211045460
        0x00006040:    bee6336a    j3..    DCD    3202757482
        0x00006044:    bf660f80    ..f.    DCD    3211136896
        0x00006048:    bee09247    G...    DCD    3202388551
        0x0000604c:    bf676bd3    .kg.    DCD    3211226067
        0x00006050:    bedae87d    }...    DCD    3202017405
        0x00006054:    bf68bf3c    <.h.    DCD    3211312956
        0x00006058:    bed53650    P6..    DCD    3201644112
        0x0000605c:    bf6a09ab    ..j.    DCD    3211397547
        0x00006060:    becf7bc0    .{..    DCD    3201268672
        0x00006064:    bf6b4b0e    .Kk.    DCD    3211479822
        0x00006068:    bec9b952    R...    DCD    3200891218
        0x0000606c:    bf6c8366    f.l.    DCD    3211559782
        0x00006070:    bec3ef07    ....    DCD    3200511751
        0x00006074:    bf6db292    ..m.    DCD    3211637394
        0x00006078:    bebe1d43    C...    DCD    3200130371
        0x0000607c:    bf6ed8a1    ..n.    DCD    3211712673
        0x00006080:    beb84428    (D..    DCD    3199747112
        0x00006084:    bf6ff573    s.o.    DCD    3211785587
        0x00006088:    beb263fa    .c..    DCD    3199362042
        0x0000608c:    bf710907    ..q.    DCD    3211856135
        0x00006090:    beac7cd9    .|..    DCD    3198975193
        0x00006094:    bf72134d    M.r.    DCD    3211924301
        0x00006098:    bea68f08    ....    DCD    3198586632
        0x0000609c:    bf731444    D.s.    DCD    3211990084
        0x000060a0:    bea09aed    ....    DCD    3198196461
        0x000060a4:    bf740bdd    ..t.    DCD    3212053469
        0x000060a8:    be9aa088    ....    DCD    3197804680
        0x000060ac:    bf74fa05    ..t.    DCD    3212114437
        0x000060b0:    be94a03c    <...    DCD    3197411388
        0x000060b4:    bf75dece    ..u.    DCD    3212173006
        0x000060b8:    be8e9a2c    ,...    DCD    3197016620
        0x000060bc:    bf76ba06    ..v.    DCD    3212229126
        0x000060c0:    be888e9b    ....    DCD    3196620443
        0x000060c4:    bf778bbd    ..w.    DCD    3212282813
        0x000060c8:    be827dcc    .}..    DCD    3196222924
        0x000060cc:    bf7853f4    .Sx.    DCD    3212334068
        0x000060d0:    be78cfc0    ..x.    DCD    3195588544
        0x000060d4:    bf791299    ..y.    DCD    3212382873
        0x000060d8:    be6c9a78    x.l.    DCD    3194788472
        0x000060dc:    bf79c79b    ..y.    DCD    3212429211
        0x000060e0:    be605c03    .\`.    DCD    3193986051
        0x000060e4:    bf7a72fc    .rz.    DCD    3212473084
        0x000060e8:    be5414e8    ..T.    DCD    3193181416
        0x000060ec:    bf7b14ba    ..{.    DCD    3212514490
        0x000060f0:    be47c5ac    ..G.    DCD    3192374700
        0x000060f4:    bf7bacc5    ..{.    DCD    3212553413
        0x000060f8:    be3b6ed6    .n;.    DCD    3191566038
        0x000060fc:    bf7c3b2e    .;|.    DCD    3212589870
        0x00006100:    be2f10aa    ../.    DCD    3190755498
        0x00006104:    bf7cbfc2    ..|.    DCD    3212623810
        0x00006108:    be22abac    ..".    DCD    3189943212
        0x0000610c:    bf7d3ab4    .:}.    DCD    3212655284
        0x00006110:    be164064    d@..    DCD    3189129316
        0x00006114:    bf7dabd2    ..}.    DCD    3212684242
        0x00006118:    be09cf9a    ....    DCD    3188314010
        0x0000611c:    bf7e132b    +.~.    DCD    3212710699
        0x00006120:    bdfab29e    ....    DCD    3187323550
        0x00006124:    bf7e70b0    .p~.    DCD    3212734640
        0x00006128:    bde1bc12    ....    DCD    3185687570
        0x0000612c:    bf7ec472    r.~.    DCD    3212756082
        0x00006130:    bdc8bd23    #...    DCD    3184049443
        0x00006134:    bf7f0e5e    ^...    DCD    3212775006
        0x00006138:    bdafb656    V...    DCD    3182409302
        0x0000613c:    bf7f4e66    fN..    DCD    3212791398
        0x00006140:    bd96a93f    ?...    DCD    3180767551
        0x00006144:    bf7f84a9    ....    DCD    3212805289
        0x00006148:    bd7b2bbb    .+{.    DCD    3178965947
        0x0000614c:    bf7fb107    ....    DCD    3212816647
        0x00006150:    bd48fb87    ..H.    DCD    3175676807
        0x00006154:    bf7fd391    ....    DCD    3212825489
        0x00006158:    bd16c2f0    ....    DCD    3172385520
        0x0000615c:    bf7fec46    F...    DCD    3212831814
        0x00006160:    bcc90a35    5...    DCD    3167291957
        0x00006164:    bf7ffb16    ....    DCD    3212835606
        0x00006168:    bc491080    ..I.    DCD    3158904960
        0x0000616c:    3f800000    ...?    DCD    1065353216
        0x00006170:    00000000    ....    DCD    0
        0x00006174:    3f7ffec1    ...?    DCD    1065352897
        0x00006178:    bbc91080    ....    DCD    3150516352
        0x0000617c:    3f7ffb16    ...?    DCD    1065351958
        0x00006180:    bc491080    ..I.    DCD    3158904960
        0x00006184:    3f7ff4ed    ...?    DCD    1065350381
        0x00006188:    bc96ca47    G...    DCD    3163998791
        0x0000618c:    3f7fec46    F..?    DCD    1065348166
        0x00006190:    bcc90a35    5...    DCD    3167291957
        0x00006194:    3f7fe122    "..?    DCD    1065345314
        0x00006198:    bcfb4a23    #J..    DCD    3170585123
        0x0000619c:    3f7fd391    ...?    DCD    1065341841
        0x000061a0:    bd16c2f0    ....    DCD    3172385520
        0x000061a4:    3f7fc393    ...?    DCD    1065337747
        0x000061a8:    bd2fdfc2    ../.    DCD    3174031298
        0x000061ac:    3f7fb107    ...?    DCD    1065332999
        0x000061b0:    bd48fb87    ..H.    DCD    3175676807
        0x000061b4:    3f7f9c20     ..?    DCD    1065327648
        0x000061b8:    bd621427    '.b.    DCD    3177321511
        0x000061bc:    3f7f84a9    ...?    DCD    1065321641
        0x000061c0:    bd7b2bbb    .+{.    DCD    3178965947
        0x000061c4:    3f7f6ac6    .j.?    DCD    1065315014
        0x000061c8:    bd8a2014    . ..    DCD    3179946004
        0x000061cc:    3f7f4e66    fN.?    DCD    1065307750
        0x000061d0:    bd96a93f    ?...    DCD    3180767551
        0x000061d4:    3f7f2f98    ./.?    DCD    1065299864
        0x000061d8:    bda33051    Q0..    DCD    3181588561
        0x000061dc:    3f7f0e5e    ^..?    DCD    1065291358
        0x000061e0:    bdafb656    V...    DCD    3182409302
        0x000061e4:    3f7eea96    ..~?    DCD    1065282198
        0x000061e8:    bdbc3ac9    .:..    DCD    3183229641
        0x000061ec:    3f7ec472    r.~?    DCD    1065272434
        0x000061f0:    bdc8bd23    #...    DCD    3184049443
        0x000061f4:    3f7e9bd0    ..~?    DCD    1065262032
        0x000061f8:    bdd53dea    .=..    DCD    3184868842
        0x000061fc:    3f7e70b0    .p~?    DCD    1065250992
        0x00006200:    bde1bc12    ....    DCD    3185687570
        0x00006204:    3f7e4324    $C~?    DCD    1065239332
        0x00006208:    bdee38a8    .8..    DCD    3186505896
        0x0000620c:    3f7e132b    +.~?    DCD    1065227051
        0x00006210:    bdfab29e    ....    DCD    3187323550
        0x00006214:    3f7de0b5    ..}?    DCD    1065214133
        0x00006218:    be0394fb    ....    DCD    3187905787
        0x0000621c:    3f7dabd2    ..}?    DCD    1065200594
        0x00006220:    be09cf9a    ....    DCD    3188314010
        0x00006224:    3f7d7471    qt}?    DCD    1065186417
        0x00006228:    be1008a7    ....    DCD    3188721831
        0x0000622c:    3f7d3ab4    .:}?    DCD    1065171636
        0x00006230:    be164064    d@..    DCD    3189129316
        0x00006234:    3f7cfe7a    z.|?    DCD    1065156218
        0x00006238:    be1c76d1    .v..    DCD    3189536465
        0x0000623c:    3f7cbfc2    ..|?    DCD    1065140162
        0x00006240:    be22abac    ..".    DCD    3189943212
        0x00006244:    3f7c7eae    .~|?    DCD    1065123502
        0x00006248:    be28def4    ..(.    DCD    3190349556
        0x0000624c:    3f7c3b2e    .;|?    DCD    1065106222
        0x00006250:    be2f10aa    ../.    DCD    3190755498
        0x00006254:    3f7bf530    0.{?    DCD    1065088304
        0x00006258:    be354089    .@5.    DCD    3191160969
        0x0000625c:    3f7bacc5    ..{?    DCD    1065069765
        0x00006260:    be3b6ed6    .n;.    DCD    3191566038
        0x00006264:    3f7b61fe    .a{?    DCD    1065050622
        0x00006268:    be419b4e    N.A.    DCD    3191970638
        0x0000626c:    3f7b14ba    ..{?    DCD    1065030842
        0x00006270:    be47c5ac    ..G.    DCD    3192374700
        0x00006274:    3f7ac519    ..z?    DCD    1065010457
        0x00006278:    be4dee78    x.M.    DCD    3192778360
        0x0000627c:    3f7a72fc    .rz?    DCD    1064989436
        0x00006280:    be5414e8    ..T.    DCD    3193181416
        0x00006284:    3f7a1e82    ..z?    DCD    1064967810
        0x00006288:    be5a3982    .9Z.    DCD    3193584002
        0x0000628c:    3f79c79b    ..y?    DCD    1064945563
        0x00006290:    be605c03    .\`.    DCD    3193986051
        0x00006294:    3f796e48    Hny?    DCD    1064922696
        0x00006298:    be667c6c    l|f.    DCD    3194387564
        0x0000629c:    3f791299    ..y?    DCD    1064899225
        0x000062a0:    be6c9a78    x.l.    DCD    3194788472
        0x000062a4:    3f78b47c    |.x?    DCD    1064875132
        0x000062a8:    be72b66b    k.r.    DCD    3195188843
        0x000062ac:    3f7853f4    .Sx?    DCD    1064850420
        0x000062b0:    be78cfc0    ..x.    DCD    3195588544
        0x000062b4:    3f77f10f    ..w?    DCD    1064825103
        0x000062b8:    be7ee6fb    ..~.    DCD    3195987707
        0x000062bc:    3f778bbd    ..w?    DCD    1064799165
        0x000062c0:    be827dcc    .}..    DCD    3196222924
        0x000062c4:    3f772410    .$w?    DCD    1064772624
        0x000062c8:    be8586cb    ....    DCD    3196421835
        0x000062cc:    3f76ba06    ..v?    DCD    1064745478
        0x000062d0:    be888e9b    ....    DCD    3196620443
        0x000062d4:    3f764d90    .Mv?    DCD    1064717712
        0x000062d8:    be8b94fb    ....    DCD    3196818683
        0x000062dc:    3f75dece    ..u?    DCD    1064689358
        0x000062e0:    be8e9a2c    ,...    DCD    3197016620
        0x000062e4:    3f756d8f    .mu?    DCD    1064660367
        0x000062e8:    be919ded    ....    DCD    3197214189
        0x000062ec:    3f74fa05    ..t?    DCD    1064630789
        0x000062f0:    be94a03c    <...    DCD    3197411388
        0x000062f4:    3f74841f    ..t?    DCD    1064600607
        0x000062f8:    be97a11b    ....    DCD    3197608219
        0x000062fc:    3f740bdd    ..t?    DCD    1064569821
        0x00006300:    be9aa088    ....    DCD    3197804680
        0x00006304:    3f73913f    ?.s?    DCD    1064538431
        0x00006308:    be9d9e84    ....    DCD    3198000772
        0x0000630c:    3f731444    D.s?    DCD    1064506436
        0x00006310:    bea09aed    ....    DCD    3198196461
        0x00006314:    3f7294ff    ..r?    DCD    1064473855
        0x00006318:    bea395c4    ....    DCD    3198391748
        0x0000631c:    3f72134d    M.r?    DCD    1064440653
        0x00006320:    bea68f08    ....    DCD    3198586632
        0x00006324:    3f718f50    P.q?    DCD    1064406864
        0x00006328:    bea986ba    ....    DCD    3198781114
        0x0000632c:    3f710907    ..q?    DCD    1064372487
        0x00006330:    beac7cd9    .|..    DCD    3198975193
        0x00006334:    3f708063    c.p?    DCD    1064337507
        0x00006338:    beaf7143    Cq..    DCD    3199168835
        0x0000633c:    3f6ff573    s.o?    DCD    1064301939
        0x00006340:    beb263fa    .c..    DCD    3199362042
        0x00006344:    3f6f6838    8ho?    DCD    1064265784
        0x00006348:    beb554fc    .T..    DCD    3199554812
        0x0000634c:    3f6ed8a1    ..n?    DCD    1064229025
        0x00006350:    beb84428    (D..    DCD    3199747112
        0x00006354:    3f6e46bf    .Fn?    DCD    1064191679
        0x00006358:    bebb31a1    .1..    DCD    3199938977
        0x0000635c:    3f6db292    ..m?    DCD    1064153746
        0x00006360:    bebe1d43    C...    DCD    3200130371
        0x00006364:    3f6d1c19    ..m?    DCD    1064115225
        0x00006368:    bec10710    ....    DCD    3200321296
        0x0000636c:    3f6c8366    f.l?    DCD    1064076134
        0x00006370:    bec3ef07    ....    DCD    3200511751
        0x00006374:    3f6be857    W.k?    DCD    1064036439
        0x00006378:    bec6d528    (...    DCD    3200701736
        0x0000637c:    3f6b4b0e    .Kk?    DCD    1063996174
        0x00006380:    bec9b952    R...    DCD    3200891218
        0x00006384:    3f6aab7a    z.j?    DCD    1063955322
        0x00006388:    becc9b84    ....    DCD    3201080196
        0x0000638c:    3f6a09ab    ..j?    DCD    1063913899
        0x00006390:    becf7bc0    .{..    DCD    3201268672
        0x00006394:    3f696590    .ei?    DCD    1063871888
        0x00006398:    bed25a04    .Z..    DCD    3201456644
        0x0000639c:    3f68bf3c    <.h?    DCD    1063829308
        0x000063a0:    bed53650    P6..    DCD    3201644112
        0x000063a4:    3f6816ad    ..h?    DCD    1063786157
        0x000063a8:    bed81062    b...    DCD    3201831010
        0x000063ac:    3f676bd3    .kg?    DCD    1063742419
        0x000063b0:    bedae87d    }...    DCD    3202017405
        0x000063b4:    3f66becf    ..f?    DCD    1063698127
        0x000063b8:    beddbe7f    ....    DCD    3202203263
        0x000063bc:    3f660f80    ..f?    DCD    1063653248
        0x000063c0:    bee09247    G...    DCD    3202388551
        0x000063c4:    3f655e07    .^e?    DCD    1063607815
        0x000063c8:    bee363f5    .c..    DCD    3202573301
        0x000063cc:    3f64aa54    T.d?    DCD    1063561812
        0x000063d0:    bee6336a    j3..    DCD    3202757482
        0x000063d4:    3f63f477    w.c?    DCD    1063515255
        0x000063d8:    bee900c5    ....    DCD    3202941125
        0x000063dc:    3f633c60    `<c?    DCD    1063468128
        0x000063e0:    beebcbc5    ....    DCD    3203124165
        0x000063e4:    3f62820e    ..b?    DCD    1063420430
        0x000063e8:    beee9468    h...    DCD    3203306600
        0x000063ec:    3f61c593    ..a?    DCD    1063372179
        0x000063f0:    bef15af3    .Z..    DCD    3203488499
        0x000063f4:    3f6106ee    ..a?    DCD    1063323374
        0x000063f8:    bef41f00    ....    DCD    3203669760
        0x000063fc:    3f604620     F`?    DCD    1063274016
        0x00006400:    bef6e0d2    ....    DCD    3203850450
        0x00006404:    3f5f8327    '._?    DCD    1063224103
        0x00006408:    bef9a027    '...    DCD    3204030503
        0x0000640c:    3f5ebe06    ..^?    DCD    1063173638
        0x00006410:    befc5d20     ]..    DCD    3204209952
        0x00006414:    3f5df6ba    ..]?    DCD    1063122618
        0x00006418:    beff17be    ....    DCD    3204388798
        0x0000641c:    3f5d2d56    V-]?    DCD    1063071062
        0x00006420:    bf00e7de    ....    DCD    3204507614
        0x00006424:    3f5c61c8    .a\?    DCD    1063018952
        0x00006428:    bf0242af    .B..    DCD    3204596399
        0x0000642c:    3f5b9421    !.[?    DCD    1062966305
        0x00006430:    bf039c41    A...    DCD    3204684865
        0x00006434:    3f5ac450    P.Z?    DCD    1062913104
        0x00006438:    bf04f484    ....    DCD    3204772996
        0x0000643c:    3f59f267    g.Y?    DCD    1062859367
        0x00006440:    bf064b88    .K..    DCD    3204860808
        0x00006444:    3f591e64    d.Y?    DCD    1062805092
        0x00006448:    bf07a13c    <...    DCD    3204948284
        0x0000644c:    3f58485a    ZHX?    DCD    1062750298
        0x00006450:    bf08f5a1    ....    DCD    3205035425
        0x00006454:    3f577026    &pW?    DCD    1062694950
        0x00006458:    bf0a48a6    .H..    DCD    3205122214
        0x0000645c:    3f5695ea    ..V?    DCD    1062639082
        0x00006460:    bf0b9a6b    k...    DCD    3205208683
        0x00006464:    3f55b995    ..U?    DCD    1062582677
        0x00006468:    bf0cead1    ....    DCD    3205294801
        0x0000646c:    3f54db38    8.T?    DCD    1062525752
        0x00006470:    bf0e39d6    .9..    DCD    3205380566
        0x00006474:    3f53fac2    ..S?    DCD    1062468290
        0x00006478:    bf0f878b    ....    DCD    3205465995
        0x0000647c:    3f531844    D.S?    DCD    1062410308
        0x00006480:    bf10d3d0    ....    DCD    3205551056
        0x00006484:    3f5233ce    .3R?    DCD    1062351822
        0x00006488:    bf121eb4    ....    DCD    3205635764
        0x0000648c:    3f514d40    @MQ?    DCD    1062292800
        0x00006490:    bf136827    'h..    DCD    3205720103
        0x00006494:    3f5064aa    .dP?    DCD    1062233258
        0x00006498:    bf14b03a    :...    DCD    3205804090
        0x0000649c:    3f4f7a1c    .zO?    DCD    1062173212
        0x000064a0:    bf15f6dc    ....    DCD    3205887708
        0x000064a4:    3f4e8d97    ..N?    DCD    1062112663
        0x000064a8:    bf173c0c    .<..    DCD    3205970956
        0x000064ac:    3f4d9f0a    ..M?    DCD    1062051594
        0x000064b0:    bf187fbb    ....    DCD    3206053819
        0x000064b4:    3f4cae75    u.L?    DCD    1061990005
        0x000064b8:    bf19c1f8    ....    DCD    3206136312
        0x000064bc:    3f4bbbf9    ..K?    DCD    1061927929
        0x000064c0:    bf1b02c5    ....    DCD    3206218437
        0x000064c4:    3f4ac786    ..J?    DCD    1061865350
        0x000064c8:    bf1c420f    .B..    DCD    3206300175
        0x000064cc:    3f49d10b    ..I?    DCD    1061802251
        0x000064d0:    bf1d7fd8    ....    DCD    3206381528
        0x000064d4:    3f48d8ba    ..H?    DCD    1061738682
        0x000064d8:    bf1ebc0e    ....    DCD    3206462478
        0x000064dc:    3f47de61    a.G?    DCD    1061674593
        0x000064e0:    bf1ff6c2    ....    DCD    3206543042
        0x000064e4:    3f46e222    ".F?    DCD    1061610018
        0x000064e8:    bf212ff5    ./!.    DCD    3206623221
        0x000064ec:    3f45e3fc    ..E?    DCD    1061544956
        0x000064f0:    bf226794    .g".    DCD    3206702996
        0x000064f4:    3f44e3ef    ..D?    DCD    1061479407
        0x000064f8:    bf239da1    ..#.    DCD    3206782369
        0x000064fc:    3f43e1fc    ..C?    DCD    1061413372
        0x00006500:    bf24d22d    -.$.    DCD    3206861357
        0x00006504:    3f42de22    ".B?    DCD    1061346850
        0x00006508:    bf260503    ..&.    DCD    3206939907
        0x0000650c:    3f41d873    s.A?    DCD    1061279859
        0x00006510:    bf273659    Y6'.    DCD    3207018073
        0x00006514:    3f40d0dd    ..@?    DCD    1061212381
        0x00006518:    bf28660a    .f(.    DCD    3207095818
        0x0000651c:    3f3fc760    `.??    DCD    1061144416
        0x00006520:    bf299418    ..).    DCD    3207173144
        0x00006524:    3f3ebc1f    ..>?    DCD    1061075999
        0x00006528:    bf2ac083    ..*.    DCD    3207250051
        0x0000652c:    3f3daef7    ..=?    DCD    1061007095
        0x00006530:    bf2beb4a    J.+.    DCD    3207326538
        0x00006534:    3f3ca00a    ..<?    DCD    1060937738
        0x00006538:    bf2d146e    n.-.    DCD    3207402606
        0x0000653c:    3f3b8f36    6.;?    DCD    1060867894
        0x00006540:    bf2e3bde    .;..    DCD    3207478238
        0x00006544:    3f3a7c9e    .|:?    DCD    1060797598
        0x00006548:    bf2f61aa    .a/.    DCD    3207553450
        0x0000654c:    3f396840    @h9?    DCD    1060726848
        0x00006550:    bf3085c2    ..0.    DCD    3207628226
        0x00006554:    3f38521e    .R8?    DCD    1060655646
        0x00006558:    bf31a815    ..1.    DCD    3207702549
        0x0000655c:    3f373a26    &:7?    DCD    1060583974
        0x00006560:    bf32c8c5    ..2.    DCD    3207776453
        0x00006564:    3f362068    h 6?    DCD    1060511848
        0x00006568:    bf33e7c0    ..3.    DCD    3207849920
        0x0000656c:    3f3504f7    ..5?    DCD    1060439287
        0x00006570:    bf3504f7    ..5.    DCD    3207922935
        0x00006574:    3f33e7c0    ..3?    DCD    1060366272
        0x00006578:    bf362068    h 6.    DCD    3207995496
        0x0000657c:    3f32c8c5    ..2?    DCD    1060292805
        0x00006580:    bf373a26    &:7.    DCD    3208067622
        0x00006584:    3f31a815    ..1?    DCD    1060218901
        0x00006588:    bf38521e    .R8.    DCD    3208139294
        0x0000658c:    3f3085c2    ..0?    DCD    1060144578
        0x00006590:    bf396840    @h9.    DCD    3208210496
        0x00006594:    3f2f61aa    .a/?    DCD    1060069802
        0x00006598:    bf3a7c9e    .|:.    DCD    3208281246
        0x0000659c:    3f2e3bde    .;.?    DCD    1059994590
        0x000065a0:    bf3b8f36    6.;.    DCD    3208351542
        0x000065a4:    3f2d146e    n.-?    DCD    1059918958
        0x000065a8:    bf3ca00a    ..<.    DCD    3208421386
        0x000065ac:    3f2beb4a    J.+?    DCD    1059842890
        0x000065b0:    bf3daef7    ..=.    DCD    3208490743
        0x000065b4:    3f2ac083    ..*?    DCD    1059766403
        0x000065b8:    bf3ebc1f    ..>.    DCD    3208559647
        0x000065bc:    3f299418    ..)?    DCD    1059689496
        0x000065c0:    bf3fc760    `.?.    DCD    3208628064
        0x000065c4:    3f28660a    .f(?    DCD    1059612170
        0x000065c8:    bf40d0dd    ..@.    DCD    3208696029
        0x000065cc:    3f273659    Y6'?    DCD    1059534425
        0x000065d0:    bf41d873    s.A.    DCD    3208763507
        0x000065d4:    3f260503    ..&?    DCD    1059456259
        0x000065d8:    bf42de22    ".B.    DCD    3208830498
        0x000065dc:    3f24d22d    -.$?    DCD    1059377709
        0x000065e0:    bf43e1fc    ..C.    DCD    3208897020
        0x000065e4:    3f239da1    ..#?    DCD    1059298721
        0x000065e8:    bf44e3ef    ..D.    DCD    3208963055
        0x000065ec:    3f226794    .g"?    DCD    1059219348
        0x000065f0:    bf45e3fc    ..E.    DCD    3209028604
        0x000065f4:    3f212ff5    ./!?    DCD    1059139573
        0x000065f8:    bf46e222    ".F.    DCD    3209093666
        0x000065fc:    3f1ff6c2    ...?    DCD    1059059394
        0x00006600:    bf47de61    a.G.    DCD    3209158241
        0x00006604:    3f1ebc0e    ...?    DCD    1058978830
        0x00006608:    bf48d8ba    ..H.    DCD    3209222330
        0x0000660c:    3f1d7fd8    ...?    DCD    1058897880
        0x00006610:    bf49d10b    ..I.    DCD    3209285899
        0x00006614:    3f1c420f    .B.?    DCD    1058816527
        0x00006618:    bf4ac786    ..J.    DCD    3209348998
        0x0000661c:    3f1b02c5    ...?    DCD    1058734789
        0x00006620:    bf4bbbf9    ..K.    DCD    3209411577
        0x00006624:    3f19c1f8    ...?    DCD    1058652664
        0x00006628:    bf4cae75    u.L.    DCD    3209473653
        0x0000662c:    3f187fbb    ...?    DCD    1058570171
        0x00006630:    bf4d9f0a    ..M.    DCD    3209535242
        0x00006634:    3f173c0c    .<.?    DCD    1058487308
        0x00006638:    bf4e8d97    ..N.    DCD    3209596311
        0x0000663c:    3f15f6dc    ...?    DCD    1058404060
        0x00006640:    bf4f7a1c    .zO.    DCD    3209656860
        0x00006644:    3f14b03a    :..?    DCD    1058320442
        0x00006648:    bf5064aa    .dP.    DCD    3209716906
        0x0000664c:    3f136827    'h.?    DCD    1058236455
        0x00006650:    bf514d40    @MQ.    DCD    3209776448
        0x00006654:    3f121eb4    ...?    DCD    1058152116
        0x00006658:    bf5233ce    .3R.    DCD    3209835470
        0x0000665c:    3f10d3d0    ...?    DCD    1058067408
        0x00006660:    bf531844    D.S.    DCD    3209893956
        0x00006664:    3f0f878b    ...?    DCD    1057982347
        0x00006668:    bf53fac2    ..S.    DCD    3209951938
        0x0000666c:    3f0e39d6    .9.?    DCD    1057896918
        0x00006670:    bf54db38    8.T.    DCD    3210009400
        0x00006674:    3f0cead1    ...?    DCD    1057811153
        0x00006678:    bf55b995    ..U.    DCD    3210066325
        0x0000667c:    3f0b9a6b    k..?    DCD    1057725035
        0x00006680:    bf5695ea    ..V.    DCD    3210122730
        0x00006684:    3f0a48a6    .H.?    DCD    1057638566
        0x00006688:    bf577026    &pW.    DCD    3210178598
        0x0000668c:    3f08f5a1    ...?    DCD    1057551777
        0x00006690:    bf58485a    ZHX.    DCD    3210233946
        0x00006694:    3f07a13c    <..?    DCD    1057464636
        0x00006698:    bf591e64    d.Y.    DCD    3210288740
        0x0000669c:    3f064b88    .K.?    DCD    1057377160
        0x000066a0:    bf59f267    g.Y.    DCD    3210343015
        0x000066a4:    3f04f484    ...?    DCD    1057289348
        0x000066a8:    bf5ac450    P.Z.    DCD    3210396752
        0x000066ac:    3f039c41    A..?    DCD    1057201217
        0x000066b0:    bf5b9421    !.[.    DCD    3210449953
        0x000066b4:    3f0242af    .B.?    DCD    1057112751
        0x000066b8:    bf5c61c8    .a\.    DCD    3210502600
        0x000066bc:    3f00e7de    ...?    DCD    1057023966
        0x000066c0:    bf5d2d56    V-].    DCD    3210554710
        0x000066c4:    3eff17be    ...>    DCD    1056905150
        0x000066c8:    bf5df6ba    ..].    DCD    3210606266
        0x000066cc:    3efc5d20     ].>    DCD    1056726304
        0x000066d0:    bf5ebe06    ..^.    DCD    3210657286
        0x000066d4:    3ef9a027    '..>    DCD    1056546855
        0x000066d8:    bf5f8327    '._.    DCD    3210707751
        0x000066dc:    3ef6e0d2    ...>    DCD    1056366802
        0x000066e0:    bf604620     F`.    DCD    3210757664
        0x000066e4:    3ef41f00    ...>    DCD    1056186112
        0x000066e8:    bf6106ee    ..a.    DCD    3210807022
        0x000066ec:    3ef15af3    .Z.>    DCD    1056004851
        0x000066f0:    bf61c593    ..a.    DCD    3210855827
        0x000066f4:    3eee9468    h..>    DCD    1055822952
        0x000066f8:    bf62820e    ..b.    DCD    3210904078
        0x000066fc:    3eebcbc5    ...>    DCD    1055640517
        0x00006700:    bf633c60    `<c.    DCD    3210951776
        0x00006704:    3ee900c5    ...>    DCD    1055457477
        0x00006708:    bf63f477    w.c.    DCD    3210998903
        0x0000670c:    3ee6336a    j3.>    DCD    1055273834
        0x00006710:    bf64aa54    T.d.    DCD    3211045460
        0x00006714:    3ee363f5    .c.>    DCD    1055089653
        0x00006718:    bf655e07    .^e.    DCD    3211091463
        0x0000671c:    3ee09247    G..>    DCD    1054904903
        0x00006720:    bf660f80    ..f.    DCD    3211136896
        0x00006724:    3eddbe7f    ...>    DCD    1054719615
        0x00006728:    bf66becf    ..f.    DCD    3211181775
        0x0000672c:    3edae87d    }..>    DCD    1054533757
        0x00006730:    bf676bd3    .kg.    DCD    3211226067
        0x00006734:    3ed81062    b..>    DCD    1054347362
        0x00006738:    bf6816ad    ..h.    DCD    3211269805
        0x0000673c:    3ed53650    P6.>    DCD    1054160464
        0x00006740:    bf68bf3c    <.h.    DCD    3211312956
        0x00006744:    3ed25a04    .Z.>    DCD    1053972996
        0x00006748:    bf696590    .ei.    DCD    3211355536
        0x0000674c:    3ecf7bc0    .{.>    DCD    1053785024
        0x00006750:    bf6a09ab    ..j.    DCD    3211397547
        0x00006754:    3ecc9b84    ...>    DCD    1053596548
        0x00006758:    bf6aab7a    z.j.    DCD    3211438970
        0x0000675c:    3ec9b952    R..>    DCD    1053407570
        0x00006760:    bf6b4b0e    .Kk.    DCD    3211479822
        0x00006764:    3ec6d528    (..>    DCD    1053218088
        0x00006768:    bf6be857    W.k.    DCD    3211520087
        0x0000676c:    3ec3ef07    ...>    DCD    1053028103
        0x00006770:    bf6c8366    f.l.    DCD    3211559782
        0x00006774:    3ec10710    ...>    DCD    1052837648
        0x00006778:    bf6d1c19    ..m.    DCD    3211598873
        0x0000677c:    3ebe1d43    C..>    DCD    1052646723
        0x00006780:    bf6db292    ..m.    DCD    3211637394
        0x00006784:    3ebb31a1    .1.>    DCD    1052455329
        0x00006788:    bf6e46bf    .Fn.    DCD    3211675327
        0x0000678c:    3eb84428    (D.>    DCD    1052263464
        0x00006790:    bf6ed8a1    ..n.    DCD    3211712673
        0x00006794:    3eb554fc    .T.>    DCD    1052071164
        0x00006798:    bf6f6838    8ho.    DCD    3211749432
        0x0000679c:    3eb263fa    .c.>    DCD    1051878394
        0x000067a0:    bf6ff573    s.o.    DCD    3211785587
        0x000067a4:    3eaf7143    Cq.>    DCD    1051685187
        0x000067a8:    bf708063    c.p.    DCD    3211821155
        0x000067ac:    3eac7cd9    .|.>    DCD    1051491545
        0x000067b0:    bf710907    ..q.    DCD    3211856135
        0x000067b4:    3ea986ba    ...>    DCD    1051297466
        0x000067b8:    bf718f50    P.q.    DCD    3211890512
        0x000067bc:    3ea68f08    ...>    DCD    1051102984
        0x000067c0:    bf72134d    M.r.    DCD    3211924301
        0x000067c4:    3ea395c4    ...>    DCD    1050908100
        0x000067c8:    bf7294ff    ..r.    DCD    3211957503
        0x000067cc:    3ea09aed    ...>    DCD    1050712813
        0x000067d0:    bf731444    D.s.    DCD    3211990084
        0x000067d4:    3e9d9e84    ...>    DCD    1050517124
        0x000067d8:    bf73913f    ?.s.    DCD    3212022079
        0x000067dc:    3e9aa088    ...>    DCD    1050321032
        0x000067e0:    bf740bdd    ..t.    DCD    3212053469
        0x000067e4:    3e97a11b    ...>    DCD    1050124571
        0x000067e8:    bf74841f    ..t.    DCD    3212084255
        0x000067ec:    3e94a03c    <..>    DCD    1049927740
        0x000067f0:    bf74fa05    ..t.    DCD    3212114437
        0x000067f4:    3e919ded    ...>    DCD    1049730541
        0x000067f8:    bf756d8f    .mu.    DCD    3212144015
        0x000067fc:    3e8e9a2c    ,..>    DCD    1049532972
        0x00006800:    bf75dece    ..u.    DCD    3212173006
        0x00006804:    3e8b94fb    ...>    DCD    1049335035
        0x00006808:    bf764d90    .Mv.    DCD    3212201360
        0x0000680c:    3e888e9b    ...>    DCD    1049136795
        0x00006810:    bf76ba06    ..v.    DCD    3212229126
        0x00006814:    3e8586cb    ...>    DCD    1048938187
        0x00006818:    bf772410    .$w.    DCD    3212256272
        0x0000681c:    3e827dcc    .}.>    DCD    1048739276
        0x00006820:    bf778bbd    ..w.    DCD    3212282813
        0x00006824:    3e7ee6fb    ..~>    DCD    1048504059
        0x00006828:    bf77f10f    ..w.    DCD    3212308751
        0x0000682c:    3e78cfc0    ..x>    DCD    1048104896
        0x00006830:    bf7853f4    .Sx.    DCD    3212334068
        0x00006834:    3e72b66b    k.r>    DCD    1047705195
        0x00006838:    bf78b47c    |.x.    DCD    3212358780
        0x0000683c:    3e6c9a78    x.l>    DCD    1047304824
        0x00006840:    bf791299    ..y.    DCD    3212382873
        0x00006844:    3e667c6c    l|f>    DCD    1046903916
        0x00006848:    bf796e48    Hny.    DCD    3212406344
        0x0000684c:    3e605c03    .\`>    DCD    1046502403
        0x00006850:    bf79c79b    ..y.    DCD    3212429211
        0x00006854:    3e5a3982    .9Z>    DCD    1046100354
        0x00006858:    bf7a1e82    ..z.    DCD    3212451458
        0x0000685c:    3e5414e8    ..T>    DCD    1045697768
        0x00006860:    bf7a72fc    .rz.    DCD    3212473084
        0x00006864:    3e4dee78    x.M>    DCD    1045294712
        0x00006868:    bf7ac519    ..z.    DCD    3212494105
        0x0000686c:    3e47c5ac    ..G>    DCD    1044891052
        0x00006870:    bf7b14ba    ..{.    DCD    3212514490
        0x00006874:    3e419b4e    N.A>    DCD    1044486990
        0x00006878:    bf7b61fe    .a{.    DCD    3212534270
        0x0000687c:    3e3b6ed6    .n;>    DCD    1044082390
        0x00006880:    bf7bacc5    ..{.    DCD    3212553413
        0x00006884:    3e354089    .@5>    DCD    1043677321
        0x00006888:    bf7bf530    0.{.    DCD    3212571952
        0x0000688c:    3e2f10aa    ../>    DCD    1043271850
        0x00006890:    bf7c3b2e    .;|.    DCD    3212589870
        0x00006894:    3e28def4    ..(>    DCD    1042865908
        0x00006898:    bf7c7eae    .~|.    DCD    3212607150
        0x0000689c:    3e22abac    ..">    DCD    1042459564
        0x000068a0:    bf7cbfc2    ..|.    DCD    3212623810
        0x000068a4:    3e1c76d1    .v.>    DCD    1042052817
        0x000068a8:    bf7cfe7a    z.|.    DCD    3212639866
        0x000068ac:    3e164064    d@.>    DCD    1041645668
        0x000068b0:    bf7d3ab4    .:}.    DCD    3212655284
        0x000068b4:    3e1008a7    ...>    DCD    1041238183
        0x000068b8:    bf7d7471    qt}.    DCD    3212670065
        0x000068bc:    3e09cf9a    ...>    DCD    1040830362
        0x000068c0:    bf7dabd2    ..}.    DCD    3212684242
        0x000068c4:    3e0394fb    ...>    DCD    1040422139
        0x000068c8:    bf7de0b5    ..}.    DCD    3212697781
        0x000068cc:    3dfab29e    ...=    DCD    1039839902
        0x000068d0:    bf7e132b    +.~.    DCD    3212710699
        0x000068d4:    3dee38a8    .8.=    DCD    1039022248
        0x000068d8:    bf7e4324    $C~.    DCD    3212722980
        0x000068dc:    3de1bc12    ...=    DCD    1038203922
        0x000068e0:    bf7e70b0    .p~.    DCD    3212734640
        0x000068e4:    3dd53dea    .=.=    DCD    1037385194
        0x000068e8:    bf7e9bd0    ..~.    DCD    3212745680
        0x000068ec:    3dc8bd23    #..=    DCD    1036565795
        0x000068f0:    bf7ec472    r.~.    DCD    3212756082
        0x000068f4:    3dbc3ac9    .:.=    DCD    1035745993
        0x000068f8:    bf7eea96    ..~.    DCD    3212765846
        0x000068fc:    3dafb656    V..=    DCD    1034925654
        0x00006900:    bf7f0e5e    ^...    DCD    3212775006
        0x00006904:    3da33051    Q0.=    DCD    1034104913
        0x00006908:    bf7f2f98    ./..    DCD    3212783512
        0x0000690c:    3d96a93f    ?..=    DCD    1033283903
        0x00006910:    bf7f4e66    fN..    DCD    3212791398
        0x00006914:    3d8a2014    . .=    DCD    1032462356
        0x00006918:    bf7f6ac6    .j..    DCD    3212798662
        0x0000691c:    3d7b2bbb    .+{=    DCD    1031482299
        0x00006920:    bf7f84a9    ....    DCD    3212805289
        0x00006924:    3d621427    '.b=    DCD    1029837863
        0x00006928:    bf7f9c20     ...    DCD    3212811296
        0x0000692c:    3d48fb87    ..H=    DCD    1028193159
        0x00006930:    bf7fb107    ....    DCD    3212816647
        0x00006934:    3d2fdfc2    ../=    DCD    1026547650
        0x00006938:    bf7fc393    ....    DCD    3212821395
        0x0000693c:    3d16c2f0    ...=    DCD    1024901872
        0x00006940:    bf7fd391    ....    DCD    3212825489
        0x00006944:    3cfb4a23    #J.<    DCD    1023101475
        0x00006948:    bf7fe122    "...    DCD    3212828962
        0x0000694c:    3cc90a35    5..<    DCD    1019808309
        0x00006950:    bf7fec46    F...    DCD    3212831814
        0x00006954:    3c96ca47    G..<    DCD    1016515143
        0x00006958:    bf7ff4ed    ....    DCD    3212834029
        0x0000695c:    3c491080    ..I<    DCD    1011421312
        0x00006960:    bf7ffb16    ....    DCD    3212835606
        0x00006964:    3bc91080    ...;    DCD    1003032704
        0x00006968:    bf7ffec1    ....    DCD    3212836545
        0x0000696c:    00000000    ....    DCD    0
        0x00006970:    bf800000    ....    DCD    3212836864
        0x00006974:    bbc91080    ....    DCD    3150516352
        0x00006978:    bf7ffec1    ....    DCD    3212836545
        0x0000697c:    bc491080    ..I.    DCD    3158904960
        0x00006980:    bf7ffb16    ....    DCD    3212835606
        0x00006984:    bc96ca47    G...    DCD    3163998791
        0x00006988:    bf7ff4ed    ....    DCD    3212834029
        0x0000698c:    bcc90a35    5...    DCD    3167291957
        0x00006990:    bf7fec46    F...    DCD    3212831814
        0x00006994:    bcfb4a23    #J..    DCD    3170585123
        0x00006998:    bf7fe122    "...    DCD    3212828962
        0x0000699c:    bd16c2f0    ....    DCD    3172385520
        0x000069a0:    bf7fd391    ....    DCD    3212825489
        0x000069a4:    bd2fdfc2    ../.    DCD    3174031298
        0x000069a8:    bf7fc393    ....    DCD    3212821395
        0x000069ac:    bd48fb87    ..H.    DCD    3175676807
        0x000069b0:    bf7fb107    ....    DCD    3212816647
        0x000069b4:    bd621427    '.b.    DCD    3177321511
        0x000069b8:    bf7f9c20     ...    DCD    3212811296
        0x000069bc:    bd7b2bbb    .+{.    DCD    3178965947
        0x000069c0:    bf7f84a9    ....    DCD    3212805289
        0x000069c4:    bd8a2014    . ..    DCD    3179946004
        0x000069c8:    bf7f6ac6    .j..    DCD    3212798662
        0x000069cc:    bd96a93f    ?...    DCD    3180767551
        0x000069d0:    bf7f4e66    fN..    DCD    3212791398
        0x000069d4:    bda33051    Q0..    DCD    3181588561
        0x000069d8:    bf7f2f98    ./..    DCD    3212783512
        0x000069dc:    bdafb656    V...    DCD    3182409302
        0x000069e0:    bf7f0e5e    ^...    DCD    3212775006
        0x000069e4:    bdbc3ac9    .:..    DCD    3183229641
        0x000069e8:    bf7eea96    ..~.    DCD    3212765846
        0x000069ec:    bdc8bd23    #...    DCD    3184049443
        0x000069f0:    bf7ec472    r.~.    DCD    3212756082
        0x000069f4:    bdd53dea    .=..    DCD    3184868842
        0x000069f8:    bf7e9bd0    ..~.    DCD    3212745680
        0x000069fc:    bde1bc12    ....    DCD    3185687570
        0x00006a00:    bf7e70b0    .p~.    DCD    3212734640
        0x00006a04:    bdee38a8    .8..    DCD    3186505896
        0x00006a08:    bf7e4324    $C~.    DCD    3212722980
        0x00006a0c:    bdfab29e    ....    DCD    3187323550
        0x00006a10:    bf7e132b    +.~.    DCD    3212710699
        0x00006a14:    be0394fb    ....    DCD    3187905787
        0x00006a18:    bf7de0b5    ..}.    DCD    3212697781
        0x00006a1c:    be09cf9a    ....    DCD    3188314010
        0x00006a20:    bf7dabd2    ..}.    DCD    3212684242
        0x00006a24:    be1008a7    ....    DCD    3188721831
        0x00006a28:    bf7d7471    qt}.    DCD    3212670065
        0x00006a2c:    be164064    d@..    DCD    3189129316
        0x00006a30:    bf7d3ab4    .:}.    DCD    3212655284
        0x00006a34:    be1c76d1    .v..    DCD    3189536465
        0x00006a38:    bf7cfe7a    z.|.    DCD    3212639866
        0x00006a3c:    be22abac    ..".    DCD    3189943212
        0x00006a40:    bf7cbfc2    ..|.    DCD    3212623810
        0x00006a44:    be28def4    ..(.    DCD    3190349556
        0x00006a48:    bf7c7eae    .~|.    DCD    3212607150
        0x00006a4c:    be2f10aa    ../.    DCD    3190755498
        0x00006a50:    bf7c3b2e    .;|.    DCD    3212589870
        0x00006a54:    be354089    .@5.    DCD    3191160969
        0x00006a58:    bf7bf530    0.{.    DCD    3212571952
        0x00006a5c:    be3b6ed6    .n;.    DCD    3191566038
        0x00006a60:    bf7bacc5    ..{.    DCD    3212553413
        0x00006a64:    be419b4e    N.A.    DCD    3191970638
        0x00006a68:    bf7b61fe    .a{.    DCD    3212534270
        0x00006a6c:    be47c5ac    ..G.    DCD    3192374700
        0x00006a70:    bf7b14ba    ..{.    DCD    3212514490
        0x00006a74:    be4dee78    x.M.    DCD    3192778360
        0x00006a78:    bf7ac519    ..z.    DCD    3212494105
        0x00006a7c:    be5414e8    ..T.    DCD    3193181416
        0x00006a80:    bf7a72fc    .rz.    DCD    3212473084
        0x00006a84:    be5a3982    .9Z.    DCD    3193584002
        0x00006a88:    bf7a1e82    ..z.    DCD    3212451458
        0x00006a8c:    be605c03    .\`.    DCD    3193986051
        0x00006a90:    bf79c79b    ..y.    DCD    3212429211
        0x00006a94:    be667c6c    l|f.    DCD    3194387564
        0x00006a98:    bf796e48    Hny.    DCD    3212406344
        0x00006a9c:    be6c9a78    x.l.    DCD    3194788472
        0x00006aa0:    bf791299    ..y.    DCD    3212382873
        0x00006aa4:    be72b66b    k.r.    DCD    3195188843
        0x00006aa8:    bf78b47c    |.x.    DCD    3212358780
        0x00006aac:    be78cfc0    ..x.    DCD    3195588544
        0x00006ab0:    bf7853f4    .Sx.    DCD    3212334068
        0x00006ab4:    be7ee6fb    ..~.    DCD    3195987707
        0x00006ab8:    bf77f10f    ..w.    DCD    3212308751
        0x00006abc:    be827dcc    .}..    DCD    3196222924
        0x00006ac0:    bf778bbd    ..w.    DCD    3212282813
        0x00006ac4:    be8586cb    ....    DCD    3196421835
        0x00006ac8:    bf772410    .$w.    DCD    3212256272
        0x00006acc:    be888e9b    ....    DCD    3196620443
        0x00006ad0:    bf76ba06    ..v.    DCD    3212229126
        0x00006ad4:    be8b94fb    ....    DCD    3196818683
        0x00006ad8:    bf764d90    .Mv.    DCD    3212201360
        0x00006adc:    be8e9a2c    ,...    DCD    3197016620
        0x00006ae0:    bf75dece    ..u.    DCD    3212173006
        0x00006ae4:    be919ded    ....    DCD    3197214189
        0x00006ae8:    bf756d8f    .mu.    DCD    3212144015
        0x00006aec:    be94a03c    <...    DCD    3197411388
        0x00006af0:    bf74fa05    ..t.    DCD    3212114437
        0x00006af4:    be97a11b    ....    DCD    3197608219
        0x00006af8:    bf74841f    ..t.    DCD    3212084255
        0x00006afc:    be9aa088    ....    DCD    3197804680
        0x00006b00:    bf740bdd    ..t.    DCD    3212053469
        0x00006b04:    be9d9e84    ....    DCD    3198000772
        0x00006b08:    bf73913f    ?.s.    DCD    3212022079
        0x00006b0c:    bea09aed    ....    DCD    3198196461
        0x00006b10:    bf731444    D.s.    DCD    3211990084
        0x00006b14:    bea395c4    ....    DCD    3198391748
        0x00006b18:    bf7294ff    ..r.    DCD    3211957503
        0x00006b1c:    bea68f08    ....    DCD    3198586632
        0x00006b20:    bf72134d    M.r.    DCD    3211924301
        0x00006b24:    bea986ba    ....    DCD    3198781114
        0x00006b28:    bf718f50    P.q.    DCD    3211890512
        0x00006b2c:    beac7cd9    .|..    DCD    3198975193
        0x00006b30:    bf710907    ..q.    DCD    3211856135
        0x00006b34:    beaf7143    Cq..    DCD    3199168835
        0x00006b38:    bf708063    c.p.    DCD    3211821155
        0x00006b3c:    beb263fa    .c..    DCD    3199362042
        0x00006b40:    bf6ff573    s.o.    DCD    3211785587
        0x00006b44:    beb554fc    .T..    DCD    3199554812
        0x00006b48:    bf6f6838    8ho.    DCD    3211749432
        0x00006b4c:    beb84428    (D..    DCD    3199747112
        0x00006b50:    bf6ed8a1    ..n.    DCD    3211712673
        0x00006b54:    bebb31a1    .1..    DCD    3199938977
        0x00006b58:    bf6e46bf    .Fn.    DCD    3211675327
        0x00006b5c:    bebe1d43    C...    DCD    3200130371
        0x00006b60:    bf6db292    ..m.    DCD    3211637394
        0x00006b64:    bec10710    ....    DCD    3200321296
        0x00006b68:    bf6d1c19    ..m.    DCD    3211598873
        0x00006b6c:    bec3ef07    ....    DCD    3200511751
        0x00006b70:    bf6c8366    f.l.    DCD    3211559782
        0x00006b74:    bec6d528    (...    DCD    3200701736
        0x00006b78:    bf6be857    W.k.    DCD    3211520087
        0x00006b7c:    bec9b952    R...    DCD    3200891218
        0x00006b80:    bf6b4b0e    .Kk.    DCD    3211479822
        0x00006b84:    becc9b84    ....    DCD    3201080196
        0x00006b88:    bf6aab7a    z.j.    DCD    3211438970
        0x00006b8c:    becf7bc0    .{..    DCD    3201268672
        0x00006b90:    bf6a09ab    ..j.    DCD    3211397547
        0x00006b94:    bed25a04    .Z..    DCD    3201456644
        0x00006b98:    bf696590    .ei.    DCD    3211355536
        0x00006b9c:    bed53650    P6..    DCD    3201644112
        0x00006ba0:    bf68bf3c    <.h.    DCD    3211312956
        0x00006ba4:    bed81062    b...    DCD    3201831010
        0x00006ba8:    bf6816ad    ..h.    DCD    3211269805
        0x00006bac:    bedae87d    }...    DCD    3202017405
        0x00006bb0:    bf676bd3    .kg.    DCD    3211226067
        0x00006bb4:    beddbe7f    ....    DCD    3202203263
        0x00006bb8:    bf66becf    ..f.    DCD    3211181775
        0x00006bbc:    bee09247    G...    DCD    3202388551
        0x00006bc0:    bf660f80    ..f.    DCD    3211136896
        0x00006bc4:    bee363f5    .c..    DCD    3202573301
        0x00006bc8:    bf655e07    .^e.    DCD    3211091463
        0x00006bcc:    bee6336a    j3..    DCD    3202757482
        0x00006bd0:    bf64aa54    T.d.    DCD    3211045460
        0x00006bd4:    bee900c5    ....    DCD    3202941125
        0x00006bd8:    bf63f477    w.c.    DCD    3210998903
        0x00006bdc:    beebcbc5    ....    DCD    3203124165
        0x00006be0:    bf633c60    `<c.    DCD    3210951776
        0x00006be4:    beee9468    h...    DCD    3203306600
        0x00006be8:    bf62820e    ..b.    DCD    3210904078
        0x00006bec:    bef15af3    .Z..    DCD    3203488499
        0x00006bf0:    bf61c593    ..a.    DCD    3210855827
        0x00006bf4:    bef41f00    ....    DCD    3203669760
        0x00006bf8:    bf6106ee    ..a.    DCD    3210807022
        0x00006bfc:    bef6e0d2    ....    DCD    3203850450
        0x00006c00:    bf604620     F`.    DCD    3210757664
        0x00006c04:    bef9a027    '...    DCD    3204030503
        0x00006c08:    bf5f8327    '._.    DCD    3210707751
        0x00006c0c:    befc5d20     ]..    DCD    3204209952
        0x00006c10:    bf5ebe06    ..^.    DCD    3210657286
        0x00006c14:    beff17be    ....    DCD    3204388798
        0x00006c18:    bf5df6ba    ..].    DCD    3210606266
        0x00006c1c:    bf00e7de    ....    DCD    3204507614
        0x00006c20:    bf5d2d56    V-].    DCD    3210554710
        0x00006c24:    bf0242af    .B..    DCD    3204596399
        0x00006c28:    bf5c61c8    .a\.    DCD    3210502600
        0x00006c2c:    bf039c41    A...    DCD    3204684865
        0x00006c30:    bf5b9421    !.[.    DCD    3210449953
        0x00006c34:    bf04f484    ....    DCD    3204772996
        0x00006c38:    bf5ac450    P.Z.    DCD    3210396752
        0x00006c3c:    bf064b88    .K..    DCD    3204860808
        0x00006c40:    bf59f267    g.Y.    DCD    3210343015
        0x00006c44:    bf07a13c    <...    DCD    3204948284
        0x00006c48:    bf591e64    d.Y.    DCD    3210288740
        0x00006c4c:    bf08f5a1    ....    DCD    3205035425
        0x00006c50:    bf58485a    ZHX.    DCD    3210233946
        0x00006c54:    bf0a48a6    .H..    DCD    3205122214
        0x00006c58:    bf577026    &pW.    DCD    3210178598
        0x00006c5c:    bf0b9a6b    k...    DCD    3205208683
        0x00006c60:    bf5695ea    ..V.    DCD    3210122730
        0x00006c64:    bf0cead1    ....    DCD    3205294801
        0x00006c68:    bf55b995    ..U.    DCD    3210066325
        0x00006c6c:    bf0e39d6    .9..    DCD    3205380566
        0x00006c70:    bf54db38    8.T.    DCD    3210009400
        0x00006c74:    bf0f878b    ....    DCD    3205465995
        0x00006c78:    bf53fac2    ..S.    DCD    3209951938
        0x00006c7c:    bf10d3d0    ....    DCD    3205551056
        0x00006c80:    bf531844    D.S.    DCD    3209893956
        0x00006c84:    bf121eb4    ....    DCD    3205635764
        0x00006c88:    bf5233ce    .3R.    DCD    3209835470
        0x00006c8c:    bf136827    'h..    DCD    3205720103
        0x00006c90:    bf514d40    @MQ.    DCD    3209776448
        0x00006c94:    bf14b03a    :...    DCD    3205804090
        0x00006c98:    bf5064aa    .dP.    DCD    3209716906
        0x00006c9c:    bf15f6dc    ....    DCD    3205887708
        0x00006ca0:    bf4f7a1c    .zO.    DCD    3209656860
        0x00006ca4:    bf173c0c    .<..    DCD    3205970956
        0x00006ca8:    bf4e8d97    ..N.    DCD    3209596311
        0x00006cac:    bf187fbb    ....    DCD    3206053819
        0x00006cb0:    bf4d9f0a    ..M.    DCD    3209535242
        0x00006cb4:    bf19c1f8    ....    DCD    3206136312
        0x00006cb8:    bf4cae75    u.L.    DCD    3209473653
        0x00006cbc:    bf1b02c5    ....    DCD    3206218437
        0x00006cc0:    bf4bbbf9    ..K.    DCD    3209411577
        0x00006cc4:    bf1c420f    .B..    DCD    3206300175
        0x00006cc8:    bf4ac786    ..J.    DCD    3209348998
        0x00006ccc:    bf1d7fd8    ....    DCD    3206381528
        0x00006cd0:    bf49d10b    ..I.    DCD    3209285899
        0x00006cd4:    bf1ebc0e    ....    DCD    3206462478
        0x00006cd8:    bf48d8ba    ..H.    DCD    3209222330
        0x00006cdc:    bf1ff6c2    ....    DCD    3206543042
        0x00006ce0:    bf47de61    a.G.    DCD    3209158241
        0x00006ce4:    bf212ff5    ./!.    DCD    3206623221
        0x00006ce8:    bf46e222    ".F.    DCD    3209093666
        0x00006cec:    bf226794    .g".    DCD    3206702996
        0x00006cf0:    bf45e3fc    ..E.    DCD    3209028604
        0x00006cf4:    bf239da1    ..#.    DCD    3206782369
        0x00006cf8:    bf44e3ef    ..D.    DCD    3208963055
        0x00006cfc:    bf24d22d    -.$.    DCD    3206861357
        0x00006d00:    bf43e1fc    ..C.    DCD    3208897020
        0x00006d04:    bf260503    ..&.    DCD    3206939907
        0x00006d08:    bf42de22    ".B.    DCD    3208830498
        0x00006d0c:    bf273659    Y6'.    DCD    3207018073
        0x00006d10:    bf41d873    s.A.    DCD    3208763507
        0x00006d14:    bf28660a    .f(.    DCD    3207095818
        0x00006d18:    bf40d0dd    ..@.    DCD    3208696029
        0x00006d1c:    bf299418    ..).    DCD    3207173144
        0x00006d20:    bf3fc760    `.?.    DCD    3208628064
        0x00006d24:    bf2ac083    ..*.    DCD    3207250051
        0x00006d28:    bf3ebc1f    ..>.    DCD    3208559647
        0x00006d2c:    bf2beb4a    J.+.    DCD    3207326538
        0x00006d30:    bf3daef7    ..=.    DCD    3208490743
        0x00006d34:    bf2d146e    n.-.    DCD    3207402606
        0x00006d38:    bf3ca00a    ..<.    DCD    3208421386
        0x00006d3c:    bf2e3bde    .;..    DCD    3207478238
        0x00006d40:    bf3b8f36    6.;.    DCD    3208351542
        0x00006d44:    bf2f61aa    .a/.    DCD    3207553450
        0x00006d48:    bf3a7c9e    .|:.    DCD    3208281246
        0x00006d4c:    bf3085c2    ..0.    DCD    3207628226
        0x00006d50:    bf396840    @h9.    DCD    3208210496
        0x00006d54:    bf31a815    ..1.    DCD    3207702549
        0x00006d58:    bf38521e    .R8.    DCD    3208139294
        0x00006d5c:    bf32c8c5    ..2.    DCD    3207776453
        0x00006d60:    bf373a26    &:7.    DCD    3208067622
        0x00006d64:    bf33e7c0    ..3.    DCD    3207849920
        0x00006d68:    bf362068    h 6.    DCD    3207995496
        0x00006d6c:    bf3504f7    ..5.    DCD    3207922935
        0x00006d70:    bf3504f7    ..5.    DCD    3207922935
        0x00006d74:    bf362068    h 6.    DCD    3207995496
        0x00006d78:    bf33e7c0    ..3.    DCD    3207849920
        0x00006d7c:    bf373a26    &:7.    DCD    3208067622
        0x00006d80:    bf32c8c5    ..2.    DCD    3207776453
        0x00006d84:    bf38521e    .R8.    DCD    3208139294
        0x00006d88:    bf31a815    ..1.    DCD    3207702549
        0x00006d8c:    bf396840    @h9.    DCD    3208210496
        0x00006d90:    bf3085c2    ..0.    DCD    3207628226
        0x00006d94:    bf3a7c9e    .|:.    DCD    3208281246
        0x00006d98:    bf2f61aa    .a/.    DCD    3207553450
        0x00006d9c:    bf3b8f36    6.;.    DCD    3208351542
        0x00006da0:    bf2e3bde    .;..    DCD    3207478238
        0x00006da4:    bf3ca00a    ..<.    DCD    3208421386
        0x00006da8:    bf2d146e    n.-.    DCD    3207402606
        0x00006dac:    bf3daef7    ..=.    DCD    3208490743
        0x00006db0:    bf2beb4a    J.+.    DCD    3207326538
        0x00006db4:    bf3ebc1f    ..>.    DCD    3208559647
        0x00006db8:    bf2ac083    ..*.    DCD    3207250051
        0x00006dbc:    bf3fc760    `.?.    DCD    3208628064
        0x00006dc0:    bf299418    ..).    DCD    3207173144
        0x00006dc4:    bf40d0dd    ..@.    DCD    3208696029
        0x00006dc8:    bf28660a    .f(.    DCD    3207095818
        0x00006dcc:    bf41d873    s.A.    DCD    3208763507
        0x00006dd0:    bf273659    Y6'.    DCD    3207018073
        0x00006dd4:    bf42de22    ".B.    DCD    3208830498
        0x00006dd8:    bf260503    ..&.    DCD    3206939907
        0x00006ddc:    bf43e1fc    ..C.    DCD    3208897020
        0x00006de0:    bf24d22d    -.$.    DCD    3206861357
        0x00006de4:    bf44e3ef    ..D.    DCD    3208963055
        0x00006de8:    bf239da1    ..#.    DCD    3206782369
        0x00006dec:    bf45e3fc    ..E.    DCD    3209028604
        0x00006df0:    bf226794    .g".    DCD    3206702996
        0x00006df4:    bf46e222    ".F.    DCD    3209093666
        0x00006df8:    bf212ff5    ./!.    DCD    3206623221
        0x00006dfc:    bf47de61    a.G.    DCD    3209158241
        0x00006e00:    bf1ff6c2    ....    DCD    3206543042
        0x00006e04:    bf48d8ba    ..H.    DCD    3209222330
        0x00006e08:    bf1ebc0e    ....    DCD    3206462478
        0x00006e0c:    bf49d10b    ..I.    DCD    3209285899
        0x00006e10:    bf1d7fd8    ....    DCD    3206381528
        0x00006e14:    bf4ac786    ..J.    DCD    3209348998
        0x00006e18:    bf1c420f    .B..    DCD    3206300175
        0x00006e1c:    bf4bbbf9    ..K.    DCD    3209411577
        0x00006e20:    bf1b02c5    ....    DCD    3206218437
        0x00006e24:    bf4cae75    u.L.    DCD    3209473653
        0x00006e28:    bf19c1f8    ....    DCD    3206136312
        0x00006e2c:    bf4d9f0a    ..M.    DCD    3209535242
        0x00006e30:    bf187fbb    ....    DCD    3206053819
        0x00006e34:    bf4e8d97    ..N.    DCD    3209596311
        0x00006e38:    bf173c0c    .<..    DCD    3205970956
        0x00006e3c:    bf4f7a1c    .zO.    DCD    3209656860
        0x00006e40:    bf15f6dc    ....    DCD    3205887708
        0x00006e44:    bf5064aa    .dP.    DCD    3209716906
        0x00006e48:    bf14b03a    :...    DCD    3205804090
        0x00006e4c:    bf514d40    @MQ.    DCD    3209776448
        0x00006e50:    bf136827    'h..    DCD    3205720103
        0x00006e54:    bf5233ce    .3R.    DCD    3209835470
        0x00006e58:    bf121eb4    ....    DCD    3205635764
        0x00006e5c:    bf531844    D.S.    DCD    3209893956
        0x00006e60:    bf10d3d0    ....    DCD    3205551056
        0x00006e64:    bf53fac2    ..S.    DCD    3209951938
        0x00006e68:    bf0f878b    ....    DCD    3205465995
        0x00006e6c:    bf54db38    8.T.    DCD    3210009400
        0x00006e70:    bf0e39d6    .9..    DCD    3205380566
        0x00006e74:    bf55b995    ..U.    DCD    3210066325
        0x00006e78:    bf0cead1    ....    DCD    3205294801
        0x00006e7c:    bf5695ea    ..V.    DCD    3210122730
        0x00006e80:    bf0b9a6b    k...    DCD    3205208683
        0x00006e84:    bf577026    &pW.    DCD    3210178598
        0x00006e88:    bf0a48a6    .H..    DCD    3205122214
        0x00006e8c:    bf58485a    ZHX.    DCD    3210233946
        0x00006e90:    bf08f5a1    ....    DCD    3205035425
        0x00006e94:    bf591e64    d.Y.    DCD    3210288740
        0x00006e98:    bf07a13c    <...    DCD    3204948284
        0x00006e9c:    bf59f267    g.Y.    DCD    3210343015
        0x00006ea0:    bf064b88    .K..    DCD    3204860808
        0x00006ea4:    bf5ac450    P.Z.    DCD    3210396752
        0x00006ea8:    bf04f484    ....    DCD    3204772996
        0x00006eac:    bf5b9421    !.[.    DCD    3210449953
        0x00006eb0:    bf039c41    A...    DCD    3204684865
        0x00006eb4:    bf5c61c8    .a\.    DCD    3210502600
        0x00006eb8:    bf0242af    .B..    DCD    3204596399
        0x00006ebc:    bf5d2d56    V-].    DCD    3210554710
        0x00006ec0:    bf00e7de    ....    DCD    3204507614
        0x00006ec4:    bf5df6ba    ..].    DCD    3210606266
        0x00006ec8:    beff17be    ....    DCD    3204388798
        0x00006ecc:    bf5ebe06    ..^.    DCD    3210657286
        0x00006ed0:    befc5d20     ]..    DCD    3204209952
        0x00006ed4:    bf5f8327    '._.    DCD    3210707751
        0x00006ed8:    bef9a027    '...    DCD    3204030503
        0x00006edc:    bf604620     F`.    DCD    3210757664
        0x00006ee0:    bef6e0d2    ....    DCD    3203850450
        0x00006ee4:    bf6106ee    ..a.    DCD    3210807022
        0x00006ee8:    bef41f00    ....    DCD    3203669760
        0x00006eec:    bf61c593    ..a.    DCD    3210855827
        0x00006ef0:    bef15af3    .Z..    DCD    3203488499
        0x00006ef4:    bf62820e    ..b.    DCD    3210904078
        0x00006ef8:    beee9468    h...    DCD    3203306600
        0x00006efc:    bf633c60    `<c.    DCD    3210951776
        0x00006f00:    beebcbc5    ....    DCD    3203124165
        0x00006f04:    bf63f477    w.c.    DCD    3210998903
        0x00006f08:    bee900c5    ....    DCD    3202941125
        0x00006f0c:    bf64aa54    T.d.    DCD    3211045460
        0x00006f10:    bee6336a    j3..    DCD    3202757482
        0x00006f14:    bf655e07    .^e.    DCD    3211091463
        0x00006f18:    bee363f5    .c..    DCD    3202573301
        0x00006f1c:    bf660f80    ..f.    DCD    3211136896
        0x00006f20:    bee09247    G...    DCD    3202388551
        0x00006f24:    bf66becf    ..f.    DCD    3211181775
        0x00006f28:    beddbe7f    ....    DCD    3202203263
        0x00006f2c:    bf676bd3    .kg.    DCD    3211226067
        0x00006f30:    bedae87d    }...    DCD    3202017405
        0x00006f34:    bf6816ad    ..h.    DCD    3211269805
        0x00006f38:    bed81062    b...    DCD    3201831010
        0x00006f3c:    bf68bf3c    <.h.    DCD    3211312956
        0x00006f40:    bed53650    P6..    DCD    3201644112
        0x00006f44:    bf696590    .ei.    DCD    3211355536
        0x00006f48:    bed25a04    .Z..    DCD    3201456644
        0x00006f4c:    bf6a09ab    ..j.    DCD    3211397547
        0x00006f50:    becf7bc0    .{..    DCD    3201268672
        0x00006f54:    bf6aab7a    z.j.    DCD    3211438970
        0x00006f58:    becc9b84    ....    DCD    3201080196
        0x00006f5c:    bf6b4b0e    .Kk.    DCD    3211479822
        0x00006f60:    bec9b952    R...    DCD    3200891218
        0x00006f64:    bf6be857    W.k.    DCD    3211520087
        0x00006f68:    bec6d528    (...    DCD    3200701736
        0x00006f6c:    bf6c8366    f.l.    DCD    3211559782
        0x00006f70:    bec3ef07    ....    DCD    3200511751
        0x00006f74:    bf6d1c19    ..m.    DCD    3211598873
        0x00006f78:    bec10710    ....    DCD    3200321296
        0x00006f7c:    bf6db292    ..m.    DCD    3211637394
        0x00006f80:    bebe1d43    C...    DCD    3200130371
        0x00006f84:    bf6e46bf    .Fn.    DCD    3211675327
        0x00006f88:    bebb31a1    .1..    DCD    3199938977
        0x00006f8c:    bf6ed8a1    ..n.    DCD    3211712673
        0x00006f90:    beb84428    (D..    DCD    3199747112
        0x00006f94:    bf6f6838    8ho.    DCD    3211749432
        0x00006f98:    beb554fc    .T..    DCD    3199554812
        0x00006f9c:    bf6ff573    s.o.    DCD    3211785587
        0x00006fa0:    beb263fa    .c..    DCD    3199362042
        0x00006fa4:    bf708063    c.p.    DCD    3211821155
        0x00006fa8:    beaf7143    Cq..    DCD    3199168835
        0x00006fac:    bf710907    ..q.    DCD    3211856135
        0x00006fb0:    beac7cd9    .|..    DCD    3198975193
        0x00006fb4:    bf718f50    P.q.    DCD    3211890512
        0x00006fb8:    bea986ba    ....    DCD    3198781114
        0x00006fbc:    bf72134d    M.r.    DCD    3211924301
        0x00006fc0:    bea68f08    ....    DCD    3198586632
        0x00006fc4:    bf7294ff    ..r.    DCD    3211957503
        0x00006fc8:    bea395c4    ....    DCD    3198391748
        0x00006fcc:    bf731444    D.s.    DCD    3211990084
        0x00006fd0:    bea09aed    ....    DCD    3198196461
        0x00006fd4:    bf73913f    ?.s.    DCD    3212022079
        0x00006fd8:    be9d9e84    ....    DCD    3198000772
        0x00006fdc:    bf740bdd    ..t.    DCD    3212053469
        0x00006fe0:    be9aa088    ....    DCD    3197804680
        0x00006fe4:    bf74841f    ..t.    DCD    3212084255
        0x00006fe8:    be97a11b    ....    DCD    3197608219
        0x00006fec:    bf74fa05    ..t.    DCD    3212114437
        0x00006ff0:    be94a03c    <...    DCD    3197411388
        0x00006ff4:    bf756d8f    .mu.    DCD    3212144015
        0x00006ff8:    be919ded    ....    DCD    3197214189
        0x00006ffc:    bf75dece    ..u.    DCD    3212173006
        0x00007000:    be8e9a2c    ,...    DCD    3197016620
        0x00007004:    bf764d90    .Mv.    DCD    3212201360
        0x00007008:    be8b94fb    ....    DCD    3196818683
        0x0000700c:    bf76ba06    ..v.    DCD    3212229126
        0x00007010:    be888e9b    ....    DCD    3196620443
        0x00007014:    bf772410    .$w.    DCD    3212256272
        0x00007018:    be8586cb    ....    DCD    3196421835
        0x0000701c:    bf778bbd    ..w.    DCD    3212282813
        0x00007020:    be827dcc    .}..    DCD    3196222924
        0x00007024:    bf77f10f    ..w.    DCD    3212308751
        0x00007028:    be7ee6fb    ..~.    DCD    3195987707
        0x0000702c:    bf7853f4    .Sx.    DCD    3212334068
        0x00007030:    be78cfc0    ..x.    DCD    3195588544
        0x00007034:    bf78b47c    |.x.    DCD    3212358780
        0x00007038:    be72b66b    k.r.    DCD    3195188843
        0x0000703c:    bf791299    ..y.    DCD    3212382873
        0x00007040:    be6c9a78    x.l.    DCD    3194788472
        0x00007044:    bf796e48    Hny.    DCD    3212406344
        0x00007048:    be667c6c    l|f.    DCD    3194387564
        0x0000704c:    bf79c79b    ..y.    DCD    3212429211
        0x00007050:    be605c03    .\`.    DCD    3193986051
        0x00007054:    bf7a1e82    ..z.    DCD    3212451458
        0x00007058:    be5a3982    .9Z.    DCD    3193584002
        0x0000705c:    bf7a72fc    .rz.    DCD    3212473084
        0x00007060:    be5414e8    ..T.    DCD    3193181416
        0x00007064:    bf7ac519    ..z.    DCD    3212494105
        0x00007068:    be4dee78    x.M.    DCD    3192778360
        0x0000706c:    bf7b14ba    ..{.    DCD    3212514490
        0x00007070:    be47c5ac    ..G.    DCD    3192374700
        0x00007074:    bf7b61fe    .a{.    DCD    3212534270
        0x00007078:    be419b4e    N.A.    DCD    3191970638
        0x0000707c:    bf7bacc5    ..{.    DCD    3212553413
        0x00007080:    be3b6ed6    .n;.    DCD    3191566038
        0x00007084:    bf7bf530    0.{.    DCD    3212571952
        0x00007088:    be354089    .@5.    DCD    3191160969
        0x0000708c:    bf7c3b2e    .;|.    DCD    3212589870
        0x00007090:    be2f10aa    ../.    DCD    3190755498
        0x00007094:    bf7c7eae    .~|.    DCD    3212607150
        0x00007098:    be28def4    ..(.    DCD    3190349556
        0x0000709c:    bf7cbfc2    ..|.    DCD    3212623810
        0x000070a0:    be22abac    ..".    DCD    3189943212
        0x000070a4:    bf7cfe7a    z.|.    DCD    3212639866
        0x000070a8:    be1c76d1    .v..    DCD    3189536465
        0x000070ac:    bf7d3ab4    .:}.    DCD    3212655284
        0x000070b0:    be164064    d@..    DCD    3189129316
        0x000070b4:    bf7d7471    qt}.    DCD    3212670065
        0x000070b8:    be1008a7    ....    DCD    3188721831
        0x000070bc:    bf7dabd2    ..}.    DCD    3212684242
        0x000070c0:    be09cf9a    ....    DCD    3188314010
        0x000070c4:    bf7de0b5    ..}.    DCD    3212697781
        0x000070c8:    be0394fb    ....    DCD    3187905787
        0x000070cc:    bf7e132b    +.~.    DCD    3212710699
        0x000070d0:    bdfab29e    ....    DCD    3187323550
        0x000070d4:    bf7e4324    $C~.    DCD    3212722980
        0x000070d8:    bdee38a8    .8..    DCD    3186505896
        0x000070dc:    bf7e70b0    .p~.    DCD    3212734640
        0x000070e0:    bde1bc12    ....    DCD    3185687570
        0x000070e4:    bf7e9bd0    ..~.    DCD    3212745680
        0x000070e8:    bdd53dea    .=..    DCD    3184868842
        0x000070ec:    bf7ec472    r.~.    DCD    3212756082
        0x000070f0:    bdc8bd23    #...    DCD    3184049443
        0x000070f4:    bf7eea96    ..~.    DCD    3212765846
        0x000070f8:    bdbc3ac9    .:..    DCD    3183229641
        0x000070fc:    bf7f0e5e    ^...    DCD    3212775006
        0x00007100:    bdafb656    V...    DCD    3182409302
        0x00007104:    bf7f2f98    ./..    DCD    3212783512
        0x00007108:    bda33051    Q0..    DCD    3181588561
        0x0000710c:    bf7f4e66    fN..    DCD    3212791398
        0x00007110:    bd96a93f    ?...    DCD    3180767551
        0x00007114:    bf7f6ac6    .j..    DCD    3212798662
        0x00007118:    bd8a2014    . ..    DCD    3179946004
        0x0000711c:    bf7f84a9    ....    DCD    3212805289
        0x00007120:    bd7b2bbb    .+{.    DCD    3178965947
        0x00007124:    bf7f9c20     ...    DCD    3212811296
        0x00007128:    bd621427    '.b.    DCD    3177321511
        0x0000712c:    bf7fb107    ....    DCD    3212816647
        0x00007130:    bd48fb87    ..H.    DCD    3175676807
        0x00007134:    bf7fc393    ....    DCD    3212821395
        0x00007138:    bd2fdfc2    ../.    DCD    3174031298
        0x0000713c:    bf7fd391    ....    DCD    3212825489
        0x00007140:    bd16c2f0    ....    DCD    3172385520
        0x00007144:    bf7fe122    "...    DCD    3212828962
        0x00007148:    bcfb4a23    #J..    DCD    3170585123
        0x0000714c:    bf7fec46    F...    DCD    3212831814
        0x00007150:    bcc90a35    5...    DCD    3167291957
        0x00007154:    bf7ff4ed    ....    DCD    3212834029
        0x00007158:    bc96ca47    G...    DCD    3163998791
        0x0000715c:    bf7ffb16    ....    DCD    3212835606
        0x00007160:    bc491080    ..I.    DCD    3158904960
        0x00007164:    bf7ffec1    ....    DCD    3212836545
        0x00007168:    bbc91080    ....    DCD    3150516352
    MFC_COS_TRGCNT
        0x0000716c:    3e947ae1    .z.>    DCD    1049918177
        0x00007170:    3e947ae1    .z.>    DCD    1049918177
        0x00007174:    3e947ae1    .z.>    DCD    1049918177
        0x00007178:    3e947ae1    .z.>    DCD    1049918177
        0x0000717c:    3e947ae1    .z.>    DCD    1049918177
        0x00007180:    3e947ae1    .z.>    DCD    1049918177
        0x00007184:    3e947ae1    .z.>    DCD    1049918177
        0x00007188:    3e947ae1    .z.>    DCD    1049918177
        0x0000718c:    3e947ae1    .z.>    DCD    1049918177
        0x00007190:    3e947ae1    .z.>    DCD    1049918177
        0x00007194:    3e947ae1    .z.>    DCD    1049918177
        0x00007198:    3e947ae1    .z.>    DCD    1049918177
        0x0000719c:    3e947ae1    .z.>    DCD    1049918177
        0x000071a0:    3e947ae1    .z.>    DCD    1049918177
        0x000071a4:    3e947ae1    .z.>    DCD    1049918177
        0x000071a8:    3e947ae1    .z.>    DCD    1049918177
        0x000071ac:    3e947ae1    .z.>    DCD    1049918177
        0x000071b0:    3e947ae1    .z.>    DCD    1049918177
        0x000071b4:    3e947ae1    .z.>    DCD    1049918177
        0x000071b8:    3e947ae1    .z.>    DCD    1049918177
        0x000071bc:    3e947ae1    .z.>    DCD    1049918177
        0x000071c0:    3e947ae1    .z.>    DCD    1049918177
        0x000071c4:    3e947ae1    .z.>    DCD    1049918177
        0x000071c8:    3e947ae1    .z.>    DCD    1049918177
        0x000071cc:    3e947ae1    .z.>    DCD    1049918177
        0x000071d0:    3e947ae1    .z.>    DCD    1049918177
        0x000071d4:    3e8f5c29    )\.>    DCD    1049582633
        0x000071d8:    3e8a3d71    q=.>    DCD    1049247089
        0x000071dc:    3e851eb8    ...>    DCD    1048911544
        0x000071e0:    3e75c28f    ..u>    DCD    1047904911
        0x000071e4:    3e6147ae    .Ga>    DCD    1046562734
        0x000071e8:    3e428f5c    \.B>    DCD    1044549468
        0x000071ec:    3e23d70a    ..#>    DCD    1042536202
        0x000071f0:    3e051eb8    ...>    DCD    1040522936
        0x000071f4:    3db851ec    .Q.=    DCD    1035489772
        0x000071f8:    3d75c28f    ..u=    DCD    1031127695
        0x000071fc:    3ca3d70a    ...<    DCD    1017370378
        0x00007200:    bca3d70a    ....    DCD    3164854026
        0x00007204:    bd75c28f    ..u.    DCD    3178611343
        0x00007208:    bdb851ec    .Q..    DCD    3182973420
        0x0000720c:    be051eb8    ....    DCD    3188006584
        0x00007210:    be23d70a    ..#.    DCD    3190019850
        0x00007214:    be428f5c    \.B.    DCD    3192033116
        0x00007218:    be6147ae    .Ga.    DCD    3194046382
        0x0000721c:    be75c28f    ..u.    DCD    3195388559
        0x00007220:    be851eb8    ....    DCD    3196395192
        0x00007224:    be8a3d71    q=..    DCD    3196730737
        0x00007228:    be8f5c29    )\..    DCD    3197066281
        0x0000722c:    3e947ae1    .z.>    DCD    1049918177
        0x00007230:    3e947ae1    .z.>    DCD    1049918177
        0x00007234:    3e8a3d71    q=.>    DCD    1049247089
        0x00007238:    3e6b851f    ..k>    DCD    1047233823
        0x0000723c:    3e3851ec    .Q8>    DCD    1043878380
        0x00007240:    3de147ae    .G.=    DCD    1038174126
        0x00007244:    3d23d70a    ..#=    DCD    1025758986
        0x00007248:    bd23d70a    ..#.    DCD    3173242634
        0x0000724c:    bde147ae    .G..    DCD    3185657774
        0x00007250:    be3851ec    .Q8.    DCD    3191362028
        0x00007254:    be6b851f    ..k.    DCD    3194717471
        0x00007258:    be8a3d71    q=..    DCD    3196730737
        0x0000725c:    be947ae1    .z..    DCD    3197401825
        0x00007260:    be947ae1    .z..    DCD    3197401825
        0x00007264:    be8a3d71    q=..    DCD    3196730737
        0x00007268:    be6b851f    ..k.    DCD    3194717471
        0x0000726c:    be3851ec    .Q8.    DCD    3191362028
        0x00007270:    bde147ae    .G..    DCD    3185657774
        0x00007274:    bd23d70a    ..#.    DCD    3173242634
        0x00007278:    3d23d70a    ..#=    DCD    1025758986
        0x0000727c:    3de147ae    .G.=    DCD    1038174126
        0x00007280:    3e3851ec    .Q8>    DCD    1043878380
        0x00007284:    3e6b851f    ..k>    DCD    1047233823
        0x00007288:    3e8a3d71    q=.>    DCD    1049247089
        0x0000728c:    3e8f5c29    )\.>    DCD    1049582633
        0x00007290:    3e8f5c29    )\.>    DCD    1049582633
        0x00007294:    3e75c28f    ..u>    DCD    1047904911
        0x00007298:    3e23d70a    ..#>    DCD    1042536202
        0x0000729c:    3d75c28f    ..u=    DCD    1031127695
        0x000072a0:    bd75c28f    ..u.    DCD    3178611343
        0x000072a4:    be23d70a    ..#.    DCD    3190019850
        0x000072a8:    be75c28f    ..u.    DCD    3195388559
        0x000072ac:    be8f5c29    )\..    DCD    3197066281
        0x000072b0:    be8f5c29    )\..    DCD    3197066281
        0x000072b4:    be75c28f    ..u.    DCD    3195388559
        0x000072b8:    be23d70a    ..#.    DCD    3190019850
        0x000072bc:    bd75c28f    ..u.    DCD    3178611343
        0x000072c0:    3d75c28f    ..u=    DCD    1031127695
        0x000072c4:    3e23d70a    ..#>    DCD    1042536202
        0x000072c8:    3e75c28f    ..u>    DCD    1047904911
        0x000072cc:    3e8f5c29    )\.>    DCD    1049582633
        0x000072d0:    3e8f5c29    )\.>    DCD    1049582633
        0x000072d4:    3e75c28f    ..u>    DCD    1047904911
        0x000072d8:    3e23d70a    ..#>    DCD    1042536202
        0x000072dc:    3d75c28f    ..u=    DCD    1031127695
        0x000072e0:    bd75c28f    ..u.    DCD    3178611343
        0x000072e4:    be23d70a    ..#.    DCD    3190019850
        0x000072e8:    be75c28f    ..u.    DCD    3195388559
        0x000072ec:    3e8f5c29    )\.>    DCD    1049582633
        0x000072f0:    3e8f5c29    )\.>    DCD    1049582633
        0x000072f4:    3e4ccccd    ..L>    DCD    1045220557
        0x000072f8:    3d8f5c29    )\.=    DCD    1032805417
        0x000072fc:    bd8f5c29    )\..    DCD    3180289065
        0x00007300:    be4ccccd    ..L.    DCD    3192704205
        0x00007304:    be8f5c29    )\..    DCD    3197066281
        0x00007308:    be8f5c29    )\..    DCD    3197066281
        0x0000730c:    be4ccccd    ..L.    DCD    3192704205
        0x00007310:    bd8f5c29    )\..    DCD    3180289065
        0x00007314:    3d8f5c29    )\.=    DCD    1032805417
        0x00007318:    3e4ccccd    ..L>    DCD    1045220557
        0x0000731c:    3e8f5c29    )\.>    DCD    1049582633
        0x00007320:    3e8f5c29    )\.>    DCD    1049582633
        0x00007324:    3e4ccccd    ..L>    DCD    1045220557
        0x00007328:    3d8f5c29    )\.=    DCD    1032805417
        0x0000732c:    bd8f5c29    )\..    DCD    3180289065
        0x00007330:    be4ccccd    ..L.    DCD    3192704205
        0x00007334:    be8f5c29    )\..    DCD    3197066281
        0x00007338:    be8f5c29    )\..    DCD    3197066281
        0x0000733c:    be4ccccd    ..L.    DCD    3192704205
        0x00007340:    bd8f5c29    )\..    DCD    3180289065
        0x00007344:    3d8f5c29    )\.=    DCD    1032805417
        0x00007348:    3e4ccccd    ..L>    DCD    1045220557
        0x0000734c:    3e8a3d71    q=.>    DCD    1049247089
        0x00007350:    3e8a3d71    q=.>    DCD    1049247089
        0x00007354:    3e23d70a    ..#>    DCD    1042536202
        0x00007358:    bca3d70a    ....    DCD    3164854026
        0x0000735c:    be428f5c    \.B.    DCD    3192033116
        0x00007360:    be8f5c29    )\..    DCD    3197066281
        0x00007364:    be851eb8    ....    DCD    3196395192
        0x00007368:    be051eb8    ....    DCD    3188006584
        0x0000736c:    3d75c28f    ..u=    DCD    1031127695
        0x00007370:    3e6147ae    .Ga>    DCD    1046562734
        0x00007374:    3e947ae1    .z.>    DCD    1049918177
        0x00007378:    3e75c28f    ..u>    DCD    1047904911
        0x0000737c:    3db851ec    .Q.=    DCD    1035489772
        0x00007380:    bdb851ec    .Q..    DCD    3182973420
        0x00007384:    be75c28f    ..u.    DCD    3195388559
        0x00007388:    be947ae1    .z..    DCD    3197401825
        0x0000738c:    be6147ae    .Ga.    DCD    3194046382
        0x00007390:    bd75c28f    ..u.    DCD    3178611343
        0x00007394:    3e051eb8    ...>    DCD    1040522936
        0x00007398:    3e851eb8    ...>    DCD    1048911544
        0x0000739c:    3e8f5c29    )\.>    DCD    1049582633
        0x000073a0:    3e428f5c    \.B>    DCD    1044549468
        0x000073a4:    3ca3d70a    ...<    DCD    1017370378
        0x000073a8:    be23d70a    ..#.    DCD    3190019850
        0x000073ac:    3e8a3d71    q=.>    DCD    1049247089
        0x000073b0:    3e8a3d71    q=.>    DCD    1049247089
        0x000073b4:    3de147ae    .G.=    DCD    1038174126
        0x000073b8:    bde147ae    .G..    DCD    3185657774
        0x000073bc:    be8a3d71    q=..    DCD    3196730737
        0x000073c0:    be8a3d71    q=..    DCD    3196730737
        0x000073c4:    bde147ae    .G..    DCD    3185657774
        0x000073c8:    3de147ae    .G.=    DCD    1038174126
        0x000073cc:    3e8a3d71    q=.>    DCD    1049247089
        0x000073d0:    3e8a3d71    q=.>    DCD    1049247089
        0x000073d4:    3de147ae    .G.=    DCD    1038174126
        0x000073d8:    bde147ae    .G..    DCD    3185657774
        0x000073dc:    be8a3d71    q=..    DCD    3196730737
        0x000073e0:    be8a3d71    q=..    DCD    3196730737
        0x000073e4:    bde147ae    .G..    DCD    3185657774
        0x000073e8:    3de147ae    .G.=    DCD    1038174126
        0x000073ec:    3e8a3d71    q=.>    DCD    1049247089
        0x000073f0:    3e8a3d71    q=.>    DCD    1049247089
        0x000073f4:    3de147ae    .G.=    DCD    1038174126
        0x000073f8:    bde147ae    .G..    DCD    3185657774
        0x000073fc:    be8a3d71    q=..    DCD    3196730737
        0x00007400:    be8a3d71    q=..    DCD    3196730737
        0x00007404:    bde147ae    .G..    DCD    3185657774
        0x00007408:    3de147ae    .G.=    DCD    1038174126
        0x0000740c:    3e851eb8    ...>    DCD    1048911544
        0x00007410:    3e851eb8    ...>    DCD    1048911544
        0x00007414:    3d75c28f    ..u=    DCD    1031127695
        0x00007418:    be428f5c    \.B.    DCD    3192033116
        0x0000741c:    be947ae1    .z..    DCD    3197401825
        0x00007420:    be23d70a    ..#.    DCD    3190019850
        0x00007424:    3db851ec    .Q.=    DCD    1035489772
        0x00007428:    3e8a3d71    q=.>    DCD    1049247089
        0x0000742c:    3e75c28f    ..u>    DCD    1047904911
        0x00007430:    3ca3d70a    ...<    DCD    1017370378
        0x00007434:    be6147ae    .Ga.    DCD    3194046382
        0x00007438:    be8f5c29    )\..    DCD    3197066281
        0x0000743c:    be051eb8    ....    DCD    3188006584
        0x00007440:    3e051eb8    ...>    DCD    1040522936
        0x00007444:    3e8f5c29    )\.>    DCD    1049582633
        0x00007448:    3e6147ae    .Ga>    DCD    1046562734
        0x0000744c:    bca3d70a    ....    DCD    3164854026
        0x00007450:    be75c28f    ..u.    DCD    3195388559
        0x00007454:    be8a3d71    q=..    DCD    3196730737
        0x00007458:    bdb851ec    .Q..    DCD    3182973420
        0x0000745c:    3e23d70a    ..#>    DCD    1042536202
        0x00007460:    3e947ae1    .z.>    DCD    1049918177
        0x00007464:    3e428f5c    \.B>    DCD    1044549468
        0x00007468:    bd75c28f    ..u.    DCD    3178611343
        0x0000746c:    3e800000    ...>    DCD    1048576000
        0x00007470:    3e800000    ...>    DCD    1048576000
        0x00007474:    00000000    ....    DCD    0
        0x00007478:    be800000    ....    DCD    3196059648
        0x0000747c:    be800000    ....    DCD    3196059648
        0x00007480:    80000000    ....    DCD    2147483648
        0x00007484:    3e800000    ...>    DCD    1048576000
        0x00007488:    3e800000    ...>    DCD    1048576000
        0x0000748c:    00000000    ....    DCD    0
        0x00007490:    be800000    ....    DCD    3196059648
        0x00007494:    be800000    ....    DCD    3196059648
        0x00007498:    80000000    ....    DCD    2147483648
        0x0000749c:    3e800000    ...>    DCD    1048576000
        0x000074a0:    3e800000    ...>    DCD    1048576000
        0x000074a4:    00000000    ....    DCD    0
        0x000074a8:    be800000    ....    DCD    3196059648
        0x000074ac:    be800000    ....    DCD    3196059648
        0x000074b0:    00000000    ....    DCD    0
        0x000074b4:    3e800000    ...>    DCD    1048576000
        0x000074b8:    3e800000    ...>    DCD    1048576000
        0x000074bc:    00000000    ....    DCD    0
        0x000074c0:    be800000    ....    DCD    3196059648
        0x000074c4:    be800000    ....    DCD    3196059648
        0x000074c8:    00000000    ....    DCD    0
        0x000074cc:    3e75c28f    ..u>    DCD    1047904911
        0x000074d0:    3e75c28f    ..u>    DCD    1047904911
        0x000074d4:    bd75c28f    ..u.    DCD    3178611343
        0x000074d8:    be8f5c29    )\..    DCD    3197066281
        0x000074dc:    be23d70a    ..#.    DCD    3190019850
        0x000074e0:    3e23d70a    ..#>    DCD    1042536202
        0x000074e4:    3e8f5c29    )\.>    DCD    1049582633
        0x000074e8:    3d75c28f    ..u=    DCD    1031127695
        0x000074ec:    be75c28f    ..u.    DCD    3195388559
        0x000074f0:    be75c28f    ..u.    DCD    3195388559
        0x000074f4:    3d75c28f    ..u=    DCD    1031127695
        0x000074f8:    3e8f5c29    )\.>    DCD    1049582633
        0x000074fc:    3e23d70a    ..#>    DCD    1042536202
        0x00007500:    be23d70a    ..#.    DCD    3190019850
        0x00007504:    be8f5c29    )\..    DCD    3197066281
        0x00007508:    bd75c28f    ..u.    DCD    3178611343
        0x0000750c:    3e75c28f    ..u>    DCD    1047904911
        0x00007510:    3e75c28f    ..u>    DCD    1047904911
        0x00007514:    bd75c28f    ..u.    DCD    3178611343
        0x00007518:    be8f5c29    )\..    DCD    3197066281
        0x0000751c:    be23d70a    ..#.    DCD    3190019850
        0x00007520:    3e23d70a    ..#>    DCD    1042536202
        0x00007524:    3e8f5c29    )\.>    DCD    1049582633
        0x00007528:    3d75c28f    ..u=    DCD    1031127695
        0x0000752c:    3e6b851f    ..k>    DCD    1047233823
        0x00007530:    3e6b851f    ..k>    DCD    1047233823
        0x00007534:    bde147ae    .G..    DCD    3185657774
        0x00007538:    be947ae1    .z..    DCD    3197401825
        0x0000753c:    bd23d70a    ..#.    DCD    3173242634
        0x00007540:    3e8a3d71    q=.>    DCD    1049247089
        0x00007544:    3e3851ec    .Q8>    DCD    1043878380
        0x00007548:    be3851ec    .Q8.    DCD    3191362028
        0x0000754c:    be8a3d71    q=..    DCD    3196730737
        0x00007550:    3d23d70a    ..#=    DCD    1025758986
        0x00007554:    3e947ae1    .z.>    DCD    1049918177
        0x00007558:    3de147ae    .G.=    DCD    1038174126
        0x0000755c:    be6b851f    ..k.    DCD    3194717471
        0x00007560:    be6b851f    ..k.    DCD    3194717471
        0x00007564:    3de147ae    .G.=    DCD    1038174126
        0x00007568:    3e947ae1    .z.>    DCD    1049918177
        0x0000756c:    3d23d70a    ..#=    DCD    1025758986
        0x00007570:    be8a3d71    q=..    DCD    3196730737
        0x00007574:    be3851ec    .Q8.    DCD    3191362028
        0x00007578:    3e3851ec    .Q8>    DCD    1043878380
        0x0000757c:    3e8a3d71    q=.>    DCD    1049247089
        0x00007580:    bd23d70a    ..#.    DCD    3173242634
        0x00007584:    be947ae1    .z..    DCD    3197401825
        0x00007588:    bde147ae    .G..    DCD    3185657774
        0x0000758c:    3e6147ae    .Ga>    DCD    1046562734
        0x00007590:    3e6147ae    .Ga>    DCD    1046562734
        0x00007594:    be23d70a    ..#.    DCD    3190019850
        0x00007598:    be851eb8    ....    DCD    3196395192
        0x0000759c:    3db851ec    .Q.=    DCD    1035489772
        0x000075a0:    3e8f5c29    )\.>    DCD    1049582633
        0x000075a4:    bca3d70a    ....    DCD    3164854026
        0x000075a8:    be947ae1    .z..    DCD    3197401825
        0x000075ac:    bd75c28f    ..u.    DCD    3178611343
        0x000075b0:    3e8a3d71    q=.>    DCD    1049247089
        0x000075b4:    3e051eb8    ...>    DCD    1040522936
        0x000075b8:    be75c28f    ..u.    DCD    3195388559
        0x000075bc:    be428f5c    \.B.    DCD    3192033116
        0x000075c0:    3e428f5c    \.B>    DCD    1044549468
        0x000075c4:    3e75c28f    ..u>    DCD    1047904911
        0x000075c8:    be051eb8    ....    DCD    3188006584
        0x000075cc:    be8a3d71    q=..    DCD    3196730737
        0x000075d0:    3d75c28f    ..u=    DCD    1031127695
        0x000075d4:    3e947ae1    .z.>    DCD    1049918177
        0x000075d8:    3ca3d70a    ...<    DCD    1017370378
        0x000075dc:    be8f5c29    )\..    DCD    3197066281
        0x000075e0:    bdb851ec    .Q..    DCD    3182973420
        0x000075e4:    3e851eb8    ...>    DCD    1048911544
        0x000075e8:    3e23d70a    ..#>    DCD    1042536202
        0x000075ec:    00000000    ....    DCD    0
    .constdata
    Lg2
        0x000075f0:    9997fa04    ....    DCD    2576873988
        0x000075f4:    3fd99999    ...?    DCD    1071225241
        0x000075f8:    1d8e78af    .x..    DCD    495876271
        0x000075fc:    3fcc71c5    .q.?    DCD    1070363077
        0x00007600:    d078c69f    ..x.    DCD    3497576095
        0x00007604:    3fc39a09    ...?    DCD    1069783561
    Lg
        0x00007608:    55555593    .UUU    DCD    1431655827
        0x0000760c:    3fe55555    UU.?    DCD    1071994197
        0x00007610:    94229359    Y.".    DCD    2485293913
        0x00007614:    3fd24924    $I.?    DCD    1070745892
        0x00007618:    96cb03de    ....    DCD    2529887198
        0x0000761c:    3fc74664    dF.?    DCD    1070024292
        0x00007620:    df3e5244    DR>.    DCD    3745403460
        0x00007624:    3fc2f112    ...?    DCD    1069740306
    .constdata
    bp
        0x00007628:    00000000    ....    DCD    0
        0x0000762c:    3ff00000    ...?    DCD    1072693248
        0x00007630:    00000000    ....    DCD    0
        0x00007634:    3ff80000    ...?    DCD    1073217536
    dp_h
        0x00007638:    00000000    ....    DCD    0
        0x0000763c:    00000000    ....    DCD    0
        0x00007640:    40000000    ...@    DCD    1073741824
        0x00007644:    3fe2b803    ...?    DCD    1071822851
    dp_l
        0x00007648:    00000000    ....    DCD    0
        0x0000764c:    00000000    ....    DCD    0
        0x00007650:    43cfd006    ...C    DCD    1137692678
        0x00007654:    3e4cfdeb    ..L>    DCD    1045233131
    L
        0x00007658:    33333303    .333    DCD    858993411
        0x0000765c:    3fe33333    33.?    DCD    1071854387
        0x00007660:    db6fabff    ..o.    DCD    3681528831
        0x00007664:    3fdb6db6    .m.?    DCD    1071345078
        0x00007668:    518f264d    M&.Q    DCD    1368335949
        0x0000766c:    3fd55555    UU.?    DCD    1070945621
        0x00007670:    a91d4101    .A..    DCD    2837266689
        0x00007674:    3fd17460    `t.?    DCD    1070691424
        0x00007678:    93c9db65    e...    DCD    2479479653
        0x0000767c:    3fcd864a    J..?    DCD    1070433866
        0x00007680:    4a454eef    .NEJ    DCD    1246056175
        0x00007684:    3fca7e28    (~.?    DCD    1070235176
    P
        0x00007688:    5555553e    >UUU    DCD    1431655742
        0x0000768c:    3fc55555    UU.?    DCD    1069897045
        0x00007690:    16bebd93    ....    DCD    381599123
        0x00007694:    bf66c16c    l.f.    DCD    3211182444
        0x00007698:    af25de2c    ,.%.    DCD    2938494508
        0x0000769c:    3f11566a    jV.?    DCD    1058100842
        0x000076a0:    c5d26bf1    .k..    DCD    3318901745
        0x000076a4:    bebbbd41    A...    DCD    3199974721
        0x000076a8:    72bea4d0    ...r    DCD    1925096656
        0x000076ac:    3e663769    i7f>    DCD    1046886249
    .constdata
    __mathlib_zero
        0x000076b0:    00000000    ....    DCD    0
        0x000076b4:    00000000    ....    DCD    0
    Region$$Table$$Base
        0x000076b8:    000076d8    .v..    DCD    30424
        0x000076bc:    20000000    ...     DCD    536870912
        0x000076c0:    0000012c    ,...    DCD    300
        0x000076c4:    000022ec    ."..    DCD    8940
        0x000076c8:    00007804    .x..    DCD    30724
        0x000076cc:    2000012c    ,..     DCD    536871212
        0x000076d0:    000006cc    ....    DCD    1740
        0x000076d4:    000022fc    ."..    DCD    8956
    Region$$Table$$Limit

** Section #2 'ER_RW' (SHT_PROGBITS) [SHF_ALLOC + SHF_WRITE]
    Size   : 300 bytes (alignment 4)
    Address: 0x20000000


** Section #3 'ER_ZI' (SHT_NOBITS) [SHF_ALLOC + SHF_WRITE]
    Size   : 1740 bytes (alignment 8)
    Address: 0x2000012c


** Section #4 '.debug_abbrev' (SHT_PROGBITS)
    Size   : 1476 bytes


** Section #5 '.debug_frame' (SHT_PROGBITS)
    Size   : 4528 bytes


** Section #6 '.debug_info' (SHT_PROGBITS)
    Size   : 39456 bytes


** Section #7 '.debug_line' (SHT_PROGBITS)
    Size   : 14900 bytes


** Section #8 '.debug_loc' (SHT_PROGBITS)
    Size   : 5748 bytes


** Section #9 '.debug_macinfo' (SHT_PROGBITS)
    Size   : 189544 bytes


** Section #10 '.debug_pubnames' (SHT_PROGBITS)
    Size   : 3259 bytes


** Section #11 '.symtab' (SHT_SYMTAB)
    Size   : 11728 bytes (alignment 4)
    String table #12 '.strtab'
    Last local symbol no. 477


** Section #12 '.strtab' (SHT_STRTAB)
    Size   : 7708 bytes


** Section #13 '.note' (SHT_NOTE)
    Size   : 28 bytes (alignment 4)


** Section #14 '.comment' (SHT_PROGBITS)
    Size   : 21788 bytes


** Section #15 '.shstrtab' (SHT_STRTAB)
    Size   : 156 bytes


